
firmware.elf:     file format elf32-littleriscv


Disassembly of section .init:

00000000 <InterruptVector>:
	void InterruptVector()         __attribute__((naked)) __attribute((section(".init"))) __attribute((weak,alias("InterruptVectorDefault"))) __attribute((naked));
	void InterruptVectorDefault()  __attribute__((naked)) __attribute((section(".init"))) __attribute((naked));
	void InterruptVectorDefault( void )
	{
		#if !defined(FUNCONF_TINYVECTOR) || !FUNCONF_TINYVECTOR
			asm volatile( DEFAULT_INTERRUPT_VECTOR_CONTENTS );
   0:	1360106f          	j	1136 <handle_reset>
   4:	00000000          	.word	0x00000000
   8:	000011e6          	.word	0x000011e6
   c:	000011e6          	.word	0x000011e6
  10:	f3f9bda9          	.word	0xf3f9bda9
  14:	000011e6          	.word	0x000011e6
	...
  20:	000011e6          	.word	0x000011e6
  24:	000011e6          	.word	0x000011e6
	...
  30:	000011e6          	.word	0x000011e6
  34:	00000000          	.word	0x00000000
  38:	000011e6          	.word	0x000011e6
  3c:	00000000          	.word	0x00000000
  40:	000011e6          	.word	0x000011e6
  44:	000011e6          	.word	0x000011e6
  48:	000011e6          	.word	0x000011e6
  4c:	000011e6          	.word	0x000011e6
  50:	000011e6          	.word	0x000011e6
  54:	00001b4e          	.word	0x00001b4e
  58:	000011e6          	.word	0x000011e6
  5c:	00000000          	.word	0x00000000
  60:	200002d2          	.word	0x200002d2
  64:	000011e6          	.word	0x000011e6
  68:	000011e6          	.word	0x000011e6
  6c:	000011e6          	.word	0x000011e6
  70:	000011e6          	.word	0x000011e6
  74:	000011e6          	.word	0x000011e6
  78:	000011e6          	.word	0x000011e6
  7c:	000011e6          	.word	0x000011e6
  80:	000011e6          	.word	0x000011e6
  84:	000011e6          	.word	0x000011e6
  88:	000011e6          	.word	0x000011e6
  8c:	000011e6          	.word	0x000011e6

Disassembly of section .highcode:

20000000 <EventRelease>:

// The timing on the setup has to be tight.
void EventRelease(void) __attribute__((section(".highcode"))) __attribute__((noinline));
void EventRelease(void)
{
	R8_TMR_CTRL_MOD = 0b00000010; // Reset Timer
20000000:	400027b7          	lui	a5,0x40002
20000004:	4709                	li	a4,2
20000006:	40e78023          	sb	a4,1024(a5) # 40002400 <_eusrstack+0x1ffff400>
	R8_TMR_CTRL_MOD = 0b11000101; // Capture mode rising edge
2000000a:	fc500713          	li	a4,-59
2000000e:	40e78023          	sb	a4,1024(a5)
#define funDigitalWrite( pin, value ) do{ if((value)==FUN_HIGH){GPIO_SetBits(pin);} else if((value)==FUN_LOW){GPIO_ResetBits(pin);} }while(0)
#define funGpioInitAll()              // funGpioInitAll() does not do anything on ch5xx, put here for consistency

RV_STATIC_INLINE void funPinMode(u32 pin, GPIOModeTypeDef mode)
{
	switch(mode) {
20000012:	4511                	li	a0,4
20000014:	e0001317          	auipc	t1,0xe0001
20000018:	dfe30067          	jr	-514(t1) # e12 <funPinMode.part.0>

2000001c <iSLERRSSI>:

__HIGH_CODE
int iSLERRSSI() {
#ifdef CH570_CH572
	uint8_t *tx_buf = (uint8_t*)LLE_BUF;
	int len = tx_buf[1];
2000001c:	200017b7          	lui	a5,0x20001
	return (int8_t)tx_buf[len +4];
20000020:	4397c783          	lbu	a5,1081(a5) # 20001439 <LLE_BUF+0x1>
20000024:	20001737          	lui	a4,0x20001
20000028:	43c70713          	addi	a4,a4,1084 # 2000143c <LLE_BUF+0x4>
2000002c:	97ba                	add	a5,a5,a4
#else
	return (int8_t)(BB->RSSI >> 0xf);
#endif
}
2000002e:	00078503          	lb	a0,0(a5)
20000032:	8082                	ret

20000034 <iSLERCRCOK>:

__HIGH_CODE
int iSLERCRCOK() {
#ifdef CH570_CH572
	uint8_t *tx_buf = (uint8_t*)LLE_BUF;
	int len = tx_buf[1];
20000034:	200017b7          	lui	a5,0x20001
	return (int8_t)!(tx_buf[len + 5] & 0x10);
20000038:	4397c783          	lbu	a5,1081(a5) # 20001439 <LLE_BUF+0x1>
2000003c:	20001737          	lui	a4,0x20001
20000040:	43d70713          	addi	a4,a4,1085 # 2000143d <LLE_BUF+0x5>
20000044:	97ba                	add	a5,a5,a4
20000046:	0007c503          	lbu	a0,0(a5)
2000004a:	8111                	srli	a0,a0,0x4
2000004c:	8905                	andi	a0,a0,1
#else
	// Unimplemented!
	return -1;
#endif
}
2000004e:	00154513          	xori	a0,a0,1
20000052:	8082                	ret

20000054 <iSLERTX>:

__HIGH_CODE
void iSLERTX(uint32_t access_address, uint8_t adv[], size_t len, uint8_t channel, uint8_t phy_mode) {
20000054:	1101                	addi	sp,sp,-32
20000056:	ca26                	sw	s1,20(sp)
	BB->CTRL_TX = (BB->CTRL_TX & 0xfffffffc) | 1;
20000058:	4000c4b7          	lui	s1,0x4000c
2000005c:	10048493          	addi	s1,s1,256 # 4000c100 <_eusrstack+0x20009100>
20000060:	58dc                	lw	a5,52(s1)
void iSLERTX(uint32_t access_address, uint8_t adv[], size_t len, uint8_t channel, uint8_t phy_mode) {
20000062:	ce06                	sw	ra,28(sp)
20000064:	cc22                	sw	s0,24(sp)
	BB->CTRL_TX = (BB->CTRL_TX & 0xfffffffc) | 1;
20000066:	9bf1                	andi	a5,a5,-4
20000068:	0017e793          	ori	a5,a5,1
void iSLERTX(uint32_t access_address, uint8_t adv[], size_t len, uint8_t channel, uint8_t phy_mode) {
2000006c:	c84a                	sw	s2,16(sp)
2000006e:	c64e                	sw	s3,12(sp)
20000070:	c452                	sw	s4,8(sp)
20000072:	89aa                	mv	s3,a0
	BB->CTRL_TX = (BB->CTRL_TX & 0xfffffffc) | 1;
20000074:	d8dc                	sw	a5,52(s1)

	DevSetChannel(channel);
20000076:	8536                	mv	a0,a3
void iSLERTX(uint32_t access_address, uint8_t adv[], size_t len, uint8_t channel, uint8_t phy_mode) {
20000078:	8a2e                	mv	s4,a1
2000007a:	843a                	mv	s0,a4
2000007c:	8932                	mv	s2,a2
	DevSetChannel(channel);
2000007e:	e0001097          	auipc	ra,0xe0001
20000082:	c2c080e7          	jalr	-980(ra) # caa <DevSetChannel>

	// Uncomment to disable whitening to debug RF.
	//BB->CTRL_CFG |= (1<<6);
	DevSetMode(DEVSETMODE_TX);
20000086:	25800513          	li	a0,600
2000008a:	e0001097          	auipc	ra,0xe0001
2000008e:	b54080e7          	jalr	-1196(ra) # bde <DevSetMode>

	BB->ACCESSADDRESS1 = access_address; // access address
	BB->CRCINIT1 = 0x555555; // crc init
20000092:	005557b7          	lui	a5,0x555
	BB->ACCESSADDRESS1 = access_address; // access address
20000096:	0134a623          	sw	s3,12(s1)
	BB->CRCINIT1 = 0x555555; // crc init
2000009a:	55578793          	addi	a5,a5,1365 # 555555 <_data_lma+0x55042d>
2000009e:	c0dc                	sw	a5,4(s1)
#ifdef CH570_CH572
	BB->ACCESSADDRESS2 = access_address;
200000a0:	0734a023          	sw	s3,96(s1)
	BB->CRCINIT2 = 0x555555;
200000a4:	ccbc                	sw	a5,88(s1)
	BB->CRCPOLY1 = (BB->CRCPOLY1 & 0xff000000) | 0x80032d; // crc poly
200000a6:	449c                	lw	a5,8(s1)
200000a8:	ff0006b7          	lui	a3,0xff000
200000ac:	00800737          	lui	a4,0x800
200000b0:	32d70713          	addi	a4,a4,813 # 80032d <_data_lma+0x7fb205>
200000b4:	8ff5                	and	a5,a5,a3
200000b6:	8fd9                	or	a5,a5,a4
200000b8:	c49c                	sw	a5,8(s1)
	BB->CRCPOLY2 = (BB->CRCPOLY2 & 0xff000000) | 0x80032d;
200000ba:	4cfc                	lw	a5,92(s1)
200000bc:	8ff5                	and	a5,a5,a3
200000be:	8fd9                	or	a5,a5,a4
200000c0:	ccfc                	sw	a5,92(s1)
#endif

#if defined(CH571_CH573)
	DMA->TXBUF = (uint32_t)adv;
#else
	LL->TXBUF = (uint32_t)adv;
200000c2:	4000c7b7          	lui	a5,0x4000c
200000c6:	20078793          	addi	a5,a5,512 # 4000c200 <_eusrstack+0x20009200>
200000ca:	0747ac23          	sw	s4,120(a5)
#endif

	// Wait for tuning bit to clear.
	for( int timeout = 3000; !(RF->RF26 & 0x1000000) && timeout >= 0; timeout-- );
200000ce:	6785                	lui	a5,0x1
200000d0:	bba78793          	addi	a5,a5,-1094 # bba <ssd1306_drawPixel+0x18>
200000d4:	4000d737          	lui	a4,0x4000d
200000d8:	5734                	lw	a3,104(a4)
200000da:	00769613          	slli	a2,a3,0x7
200000de:	00064463          	bltz	a2,200000e6 <iSLERTX+0x92>
200000e2:	17fd                	addi	a5,a5,-1
200000e4:	fbf5                	bnez	a5,200000d8 <iSLERTX+0x84>
		BB->CTRL_CFG = (BB->CTRL_CFG & 0xffff3fff) | ((phy_mode == PHY_S2) ? 0x4000 : 0);
	}
#elif defined(CH571_CH573)
	BB->CTRL_CFG = CTRL_CFG_PHY_1M; // no 2M PHY on ch571/3
#else
	BB->CTRL_CFG = (phy_mode == PHY_2M) ? CTRL_CFG_PHY_2M:
200000e6:	4000c7b7          	lui	a5,0x4000c
200000ea:	4709                	li	a4,2
200000ec:	10078793          	addi	a5,a5,256 # 4000c100 <_eusrstack+0x20009100>
200000f0:	08e41863          	bne	s0,a4,20000180 <iSLERTX+0x12c>
200000f4:	4398                	lw	a4,0(a5)
200000f6:	cff77713          	andi	a4,a4,-769
200000fa:	4000c7b7          	lui	a5,0x4000c
200000fe:	10078793          	addi	a5,a5,256 # 4000c100 <_eusrstack+0x20009100>
20000102:	c398                	sw	a4,0(a5)
										  CTRL_CFG_PHY_1M; // default 1M for now
#endif

#if defined(CH570_CH572)
	BB->BB9 = (BB->BB9 & 0xf9ffffff) | ((phy_mode == PHY_2M) ? 0 : 0x2000000);
20000104:	53d8                	lw	a4,36(a5)
20000106:	1479                	addi	s0,s0,-2
20000108:	fa0006b7          	lui	a3,0xfa000
2000010c:	16fd                	addi	a3,a3,-1 # f9ffffff <_eusrstack+0xd9ffcfff>
2000010e:	00803433          	snez	s0,s0
20000112:	8f75                	and	a4,a4,a3
20000114:	0466                	slli	s0,s0,0x19
20000116:	8c59                	or	s0,s0,a4
20000118:	d3c0                	sw	s0,36(a5)
#if defined(CH571_CH573)
	BB->BB11 = (BB->BB11 & 0xfffffffc); // |2 for RX
#endif

	// This clears bit 17 (If set, seems to have no impact.)
	LL->LL4 &= 0xfffdffff;
2000011a:	4000c437          	lui	s0,0x4000c
2000011e:	20040413          	addi	s0,s0,512 # 4000c200 <_eusrstack+0x20009200>
20000122:	4818                	lw	a4,16(s0)
20000124:	7681                	lui	a3,0xfffe0
20000126:	16fd                	addi	a3,a3,-1 # fffdffff <_eusrstack+0xdffdcfff>
20000128:	8f75                	and	a4,a4,a3
2000012a:	c818                	sw	a4,16(s0)

#if !defined(CH571_CH573)
	LL->STATUS = LL_STATUS_TX;
2000012c:	00020737          	lui	a4,0x20
20000130:	c418                	sw	a4,8(s0)
#endif
	LL->TMR = (uint32_t)(len *512); // needs optimisation, per phy mode
20000132:	0926                	slli	s2,s2,0x9
20000134:	07242223          	sw	s2,100(s0)

	BB->CTRL_CFG |= CTRL_CFG_START_TX;
20000138:	4398                	lw	a4,0(a5)
2000013a:	010006b7          	lui	a3,0x1000
2000013e:	8f55                	or	a4,a4,a3
20000140:	c398                	sw	a4,0(a5)
	BB->CTRL_TX &= 0xfffffffc;
20000142:	5bd8                	lw	a4,52(a5)
20000144:	9b71                	andi	a4,a4,-4
20000146:	dbd8                	sw	a4,52(a5)

	LL->LL0 = 2; // Not sure what this does, but on RX it's 1
20000148:	4789                	li	a5,2
2000014a:	c01c                	sw	a5,0(s0)

	while(LL->TMR); // wait for tx buffer to empty
2000014c:	507c                	lw	a5,100(s0)
2000014e:	fffd                	bnez	a5,2000014c <iSLERTX+0xf8>
	DevSetMode(0);
20000150:	4501                	li	a0,0
20000152:	e0001097          	auipc	ra,0xe0001
20000156:	a8c080e7          	jalr	-1396(ra) # bde <DevSetMode>
	if(LL->LL0 & 3) {
2000015a:	401c                	lw	a5,0(s0)
2000015c:	8b8d                	andi	a5,a5,3
2000015e:	cb89                	beqz	a5,20000170 <iSLERTX+0x11c>
		LL->CTRL_MOD &= CTRL_MOD_RFSTOP;
20000160:	483c                	lw	a5,80(s0)
20000162:	8ff7f793          	andi	a5,a5,-1793
20000166:	c83c                	sw	a5,80(s0)
		LL->LL0 |= 0x08;
20000168:	401c                	lw	a5,0(s0)
2000016a:	0087e793          	ori	a5,a5,8
2000016e:	c01c                	sw	a5,0(s0)
	}
}
20000170:	40f2                	lw	ra,28(sp)
20000172:	4462                	lw	s0,24(sp)
20000174:	44d2                	lw	s1,20(sp)
20000176:	4942                	lw	s2,16(sp)
20000178:	49b2                	lw	s3,12(sp)
2000017a:	4a22                	lw	s4,8(sp)
2000017c:	6105                	addi	sp,sp,32
2000017e:	8082                	ret
										  CTRL_CFG_PHY_1M; // default 1M for now
20000180:	4398                	lw	a4,0(a5)
20000182:	cff77713          	andi	a4,a4,-769
	BB->CTRL_CFG = (phy_mode == PHY_2M) ? CTRL_CFG_PHY_2M:
20000186:	10076713          	ori	a4,a4,256
2000018a:	bf85                	j	200000fa <iSLERTX+0xa6>

2000018c <iSLERRX>:

__HIGH_CODE
void iSLERRX(uint32_t access_address, uint8_t channel, uint8_t phy_mode) {
2000018c:	1141                	addi	sp,sp,-16
2000018e:	c226                	sw	s1,4(sp)
20000190:	84aa                	mv	s1,a0
	DevSetMode(0);
20000192:	4501                	li	a0,0
void iSLERRX(uint32_t access_address, uint8_t channel, uint8_t phy_mode) {
20000194:	c422                	sw	s0,8(sp)
20000196:	c04a                	sw	s2,0(sp)
20000198:	c606                	sw	ra,12(sp)
2000019a:	892e                	mv	s2,a1
2000019c:	8432                	mv	s0,a2
	DevSetMode(0);
2000019e:	e0001097          	auipc	ra,0xe0001
200001a2:	a40080e7          	jalr	-1472(ra) # bde <DevSetMode>
	if(LL->LL0 & 3) {
200001a6:	4000c7b7          	lui	a5,0x4000c
200001aa:	20078793          	addi	a5,a5,512 # 4000c200 <_eusrstack+0x20009200>
200001ae:	4398                	lw	a4,0(a5)
200001b0:	8b0d                	andi	a4,a4,3
200001b2:	cb09                	beqz	a4,200001c4 <iSLERRX+0x38>
		LL->CTRL_MOD &= CTRL_MOD_RFSTOP;
200001b4:	4bb8                	lw	a4,80(a5)
200001b6:	8ff77713          	andi	a4,a4,-1793
200001ba:	cbb8                	sw	a4,80(a5)
		LL->LL0 |= 0x08;
200001bc:	4398                	lw	a4,0(a5)
200001be:	00876713          	ori	a4,a4,8
200001c2:	c398                	sw	a4,0(a5)
	}
	LL->TMR = 0;
200001c4:	4000c7b7          	lui	a5,0x4000c
200001c8:	20078793          	addi	a5,a5,512 # 4000c200 <_eusrstack+0x20009200>
200001cc:	0607a223          	sw	zero,100(a5)

	DevSetChannel(channel);
200001d0:	854a                	mv	a0,s2
200001d2:	e0001097          	auipc	ra,0xe0001
200001d6:	ad8080e7          	jalr	-1320(ra) # caa <DevSetChannel>
	DevSetMode(DEVSETMODE_RX);
200001da:	15800513          	li	a0,344
200001de:	e0001097          	auipc	ra,0xe0001
200001e2:	a00080e7          	jalr	-1536(ra) # bde <DevSetMode>
		BB->CTRL_CFG = (BB->CTRL_CFG & 0xffff3fff) | ((phy_mode == PHY_S2) ? 0x4000 : 0);
	}
#elif defined(CH571_CH573)
	BB->CTRL_CFG = CTRL_CFG_PHY_1M; // no 2M PHY on ch571/3
#else
	BB->CTRL_CFG = (phy_mode == PHY_2M) ? CTRL_CFG_PHY_2M:
200001e6:	4000c7b7          	lui	a5,0x4000c
200001ea:	10078793          	addi	a5,a5,256 # 4000c100 <_eusrstack+0x20009100>
200001ee:	439c                	lw	a5,0(a5)
200001f0:	4709                	li	a4,2
200001f2:	cff7f793          	andi	a5,a5,-769
200001f6:	0ce41863          	bne	s0,a4,200002c6 <iSLERRX+0x13a>
200001fa:	4000c737          	lui	a4,0x4000c
200001fe:	10070713          	addi	a4,a4,256 # 4000c100 <_eusrstack+0x20009100>
20000202:	c31c                	sw	a5,0(a4)
										  CTRL_CFG_PHY_1M; // default 1M for now
#endif

#ifdef CH570_CH572
	BB->BB9 = (BB->BB9 & 0xf9ffffff) | ((phy_mode == PHY_2M) ? 0 : 0x2000000);
20000204:	5354                	lw	a3,36(a4)
20000206:	ffe40793          	addi	a5,s0,-2
2000020a:	fa000637          	lui	a2,0xfa000
2000020e:	00f037b3          	snez	a5,a5
20000212:	167d                	addi	a2,a2,-1 # f9ffffff <_eusrstack+0xd9ffcfff>
20000214:	07e6                	slli	a5,a5,0x19
20000216:	8ef1                	and	a3,a3,a2
20000218:	8fd5                	or	a5,a5,a3
2000021a:	d35c                	sw	a5,36(a4)
	RF->RF20 = (RF->RF20 & 0xffffffe0) | ((phy_mode == PHY_2M) ? (tuneFilter2M & 0x1f) : (tuneFilter & 0x1f));
2000021c:	4000d7b7          	lui	a5,0x4000d
20000220:	4bbc                	lw	a5,80(a5)
20000222:	fe07f713          	andi	a4,a5,-32
20000226:	4789                	li	a5,2
20000228:	0af41263          	bne	s0,a5,200002cc <iSLERRX+0x140>
2000022c:	66c1a783          	lw	a5,1644(gp) # 20001410 <tuneFilter2M>
20000230:	8bfd                	andi	a5,a5,31
20000232:	8fd9                	or	a5,a5,a4
20000234:	4000d737          	lui	a4,0x4000d
20000238:	cb3c                	sw	a5,80(a4)
	BB->BB5 = (BB->BB5 & 0xffffffc0) | ((phy_mode == PHY_2M) ? 0xd : 0xb);
2000023a:	4000c7b7          	lui	a5,0x4000c
2000023e:	10078793          	addi	a5,a5,256 # 4000c100 <_eusrstack+0x20009100>
20000242:	4bd8                	lw	a4,20(a5)
20000244:	4609                	li	a2,2
20000246:	46ad                	li	a3,11
20000248:	fc077713          	andi	a4,a4,-64
2000024c:	00c41363          	bne	s0,a2,20000252 <iSLERRX+0xc6>
20000250:	46b5                	li	a3,13
20000252:	8f55                	or	a4,a4,a3
20000254:	cbd8                	sw	a4,20(a5)
	BB->BB7 = (BB->BB7 & 0xff00fc00) | ((phy_mode == PHY_2M) ? 0x7f00a0 : 0x79009c);
20000256:	4fd8                	lw	a4,28(a5)
20000258:	ff0107b7          	lui	a5,0xff010
2000025c:	c0078793          	addi	a5,a5,-1024 # ff00fc00 <_eusrstack+0xdf00cc00>
20000260:	8f7d                	and	a4,a4,a5
20000262:	4689                	li	a3,2
20000264:	007907b7          	lui	a5,0x790
20000268:	09c78793          	addi	a5,a5,156 # 79009c <_data_lma+0x78af74>
2000026c:	00d41663          	bne	s0,a3,20000278 <iSLERRX+0xec>
20000270:	007f07b7          	lui	a5,0x7f0
20000274:	0a078793          	addi	a5,a5,160 # 7f00a0 <_data_lma+0x7eaf78>
20000278:	8f5d                	or	a4,a4,a5
2000027a:	4000c7b7          	lui	a5,0x4000c
2000027e:	10078793          	addi	a5,a5,256 # 4000c100 <_eusrstack+0x20009100>
20000282:	cfd8                	sw	a4,28(a5)
	BB->BB6 = (BB->BB6 & 0xfffffc00) | ((phy_mode == PHY_2M) ? 0x13a : 0x132);
	BB->BB4 = (BB->BB4 & 0x00ffffff) | ((phy_mode == PHY_2M) ? 0x78000000 : 0x7f000000);
#endif

	BB->ACCESSADDRESS1 = access_address; // access address
	BB->CRCINIT1 = 0x555555; // crc init
20000284:	00555737          	lui	a4,0x555
	BB->ACCESSADDRESS1 = access_address; // access address
20000288:	c7c4                	sw	s1,12(a5)
	BB->CRCINIT1 = 0x555555; // crc init
2000028a:	55570713          	addi	a4,a4,1365 # 555555 <_data_lma+0x55042d>
2000028e:	c3d8                	sw	a4,4(a5)
#ifdef CH570_CH572
	BB->ACCESSADDRESS2 = access_address;
20000290:	d3a4                	sw	s1,96(a5)
	BB->CRCINIT2 = 0x555555;
20000292:	cfb8                	sw	a4,88(a5)
	BB->CRCPOLY1 = (BB->CRCPOLY1 & 0xff000000) | 0x80032d; // crc poly
20000294:	4798                	lw	a4,8(a5)
20000296:	ff000637          	lui	a2,0xff000
2000029a:	008006b7          	lui	a3,0x800
2000029e:	32d68693          	addi	a3,a3,813 # 80032d <_data_lma+0x7fb205>
200002a2:	8f71                	and	a4,a4,a2
200002a4:	8f55                	or	a4,a4,a3
200002a6:	c798                	sw	a4,8(a5)
	BB->CRCPOLY2 = (BB->CRCPOLY2 & 0xff000000) | 0x80032d;
200002a8:	4ff8                	lw	a4,92(a5)

	LL->LL0 = 1; // Not sure what this does, but on TX it's 2
#ifndef ISLER_CALLBACK
	rx_ready = 0;
#endif
}
200002aa:	40b2                	lw	ra,12(sp)
200002ac:	4422                	lw	s0,8(sp)
	BB->CRCPOLY2 = (BB->CRCPOLY2 & 0xff000000) | 0x80032d;
200002ae:	8f71                	and	a4,a4,a2
200002b0:	8f55                	or	a4,a4,a3
200002b2:	cff8                	sw	a4,92(a5)
	LL->LL0 = 1; // Not sure what this does, but on TX it's 2
200002b4:	4000c7b7          	lui	a5,0x4000c
200002b8:	4705                	li	a4,1
200002ba:	20e7a023          	sw	a4,512(a5) # 4000c200 <_eusrstack+0x20009200>
}
200002be:	4492                	lw	s1,4(sp)
200002c0:	4902                	lw	s2,0(sp)
200002c2:	0141                	addi	sp,sp,16
200002c4:	8082                	ret
	BB->CTRL_CFG = (phy_mode == PHY_2M) ? CTRL_CFG_PHY_2M:
200002c6:	1007e793          	ori	a5,a5,256
200002ca:	bf05                	j	200001fa <iSLERRX+0x6e>
	RF->RF20 = (RF->RF20 & 0xffffffe0) | ((phy_mode == PHY_2M) ? (tuneFilter2M & 0x1f) : (tuneFilter & 0x1f));
200002cc:	6681a783          	lw	a5,1640(gp) # 2000140c <tuneFilter>
200002d0:	b785                	j	20000230 <iSLERRX+0xa4>

200002d2 <TMR1_IRQHandler>:
{
200002d2:	7139                	addi	sp,sp,-64
200002d4:	d62a                	sw	a0,44(sp)
200002d6:	ce3a                	sw	a4,28(sp)
200002d8:	cc3e                	sw	a5,24(sp)
200002da:	de06                	sw	ra,60(sp)
200002dc:	dc16                	sw	t0,56(sp)
200002de:	da1a                	sw	t1,52(sp)
200002e0:	d81e                	sw	t2,48(sp)
200002e2:	d42e                	sw	a1,40(sp)
200002e4:	d232                	sw	a2,36(sp)
200002e6:	d036                	sw	a3,32(sp)
200002e8:	ca42                	sw	a6,20(sp)
200002ea:	c846                	sw	a7,16(sp)
200002ec:	c672                	sw	t3,12(sp)
200002ee:	c476                	sw	t4,8(sp)
200002f0:	c27a                	sw	t5,4(sp)
200002f2:	c07e                	sw	t6,0(sp)
	R8_TMR_INT_FLAG = 2;
200002f4:	400027b7          	lui	a5,0x40002
200002f8:	4709                	li	a4,2
200002fa:	40e78323          	sb	a4,1030(a5) # 40002406 <_eusrstack+0x1ffff406>
	lastfifo = R32_TMR_FIFO;
200002fe:	4107a703          	lw	a4,1040(a5)
	funPinMode( PA2, GPIO_ModeOut_PP_20mA );
20000302:	4511                	li	a0,4
	lastfifo = R32_TMR_FIFO;
20000304:	66e1a223          	sw	a4,1636(gp) # 20001408 <lastfifo>
	funPinMode( PA2, GPIO_ModeOut_PP_20mA );
20000308:	e0001097          	auipc	ra,0xe0001
2000030c:	e10080e7          	jalr	-496(ra) # 1118 <funPinMode.constprop.0>
}
20000310:	50f2                	lw	ra,60(sp)
20000312:	52e2                	lw	t0,56(sp)
20000314:	5352                	lw	t1,52(sp)
20000316:	53c2                	lw	t2,48(sp)
20000318:	5532                	lw	a0,44(sp)
2000031a:	55a2                	lw	a1,40(sp)
2000031c:	5612                	lw	a2,36(sp)
2000031e:	5682                	lw	a3,32(sp)
20000320:	4772                	lw	a4,28(sp)
20000322:	47e2                	lw	a5,24(sp)
20000324:	4852                	lw	a6,20(sp)
20000326:	48c2                	lw	a7,16(sp)
20000328:	4e32                	lw	t3,12(sp)
2000032a:	4ea2                	lw	t4,8(sp)
2000032c:	4f12                	lw	t5,4(sp)
2000032e:	4f82                	lw	t6,0(sp)
20000330:	6121                	addi	sp,sp,64
20000332:	30200073          	mret

20000336 <ConfigI2C>:
	#define DSDA_DONE_INPUT
#endif

I2CCODE void I2CFNCOLLAPSE(I2CPREFIX, ConfigI2C)()
{
	DSDA_IHIGH
20000336:	400017b7          	lui	a5,0x40001
2000033a:	0b878793          	addi	a5,a5,184 # 400010b8 <_eusrstack+0x1fffe0b8>
2000033e:	40000713          	li	a4,1024
20000342:	c398                	sw	a4,0(a5)
	DSCL_IHIGH
20000344:	6705                	lui	a4,0x1
20000346:	80070713          	addi	a4,a4,-2048 # 800 <_einit+0x770>
2000034a:	c398                	sw	a4,0(a5)
}
2000034c:	8082                	ret

2000034e <SendStart>:

I2CCODE void I2CFNCOLLAPSE(I2CPREFIX, SendStart)()
{
	DSDA_IHIGH
2000034e:	400017b7          	lui	a5,0x40001
20000352:	0b878793          	addi	a5,a5,184 # 400010b8 <_eusrstack+0x1fffe0b8>
20000356:	40000693          	li	a3,1024
2000035a:	c394                	sw	a3,0(a5)
	DELAY1
2000035c:	0001                	nop
2000035e:	0001                	nop
20000360:	0001                	nop
20000362:	0001                	nop
20000364:	0001                	nop
20000366:	0001                	nop
20000368:	0001                	nop
2000036a:	0001                	nop
2000036c:	0001                	nop
	DSCL_IHIGH
2000036e:	6705                	lui	a4,0x1
20000370:	80070713          	addi	a4,a4,-2048 # 800 <_einit+0x770>
20000374:	c398                	sw	a4,0(a5)
	DELAY1
20000376:	0001                	nop
20000378:	0001                	nop
2000037a:	0001                	nop
2000037c:	0001                	nop
2000037e:	0001                	nop
20000380:	0001                	nop
20000382:	0001                	nop
20000384:	0001                	nop
20000386:	0001                	nop
	DSDA_OUTPUT
20000388:	400017b7          	lui	a5,0x40001
2000038c:	0ac78793          	addi	a5,a5,172 # 400010ac <_eusrstack+0x1fffe0ac>
20000390:	c394                	sw	a3,0(a5)
	DELAY1
20000392:	0001                	nop
20000394:	0001                	nop
20000396:	0001                	nop
20000398:	0001                	nop
2000039a:	0001                	nop
2000039c:	0001                	nop
2000039e:	0001                	nop
200003a0:	0001                	nop
200003a2:	0001                	nop
	DSCL_OUTPUT
200003a4:	c398                	sw	a4,0(a5)
	DELAY1
200003a6:	0001                	nop
200003a8:	0001                	nop
200003aa:	0001                	nop
200003ac:	0001                	nop
200003ae:	0001                	nop
200003b0:	0001                	nop
200003b2:	0001                	nop
200003b4:	0001                	nop
200003b6:	0001                	nop
}
200003b8:	8082                	ret

200003ba <SendStop>:

I2CCODE void I2CFNCOLLAPSE(I2CPREFIX, SendStop)()
{
	DELAY1
200003ba:	0001                	nop
200003bc:	0001                	nop
200003be:	0001                	nop
200003c0:	0001                	nop
200003c2:	0001                	nop
200003c4:	0001                	nop
200003c6:	0001                	nop
200003c8:	0001                	nop
200003ca:	0001                	nop
	DSDA_OUTPUT
200003cc:	400017b7          	lui	a5,0x40001
200003d0:	0ac78793          	addi	a5,a5,172 # 400010ac <_eusrstack+0x1fffe0ac>
200003d4:	40000613          	li	a2,1024
200003d8:	c390                	sw	a2,0(a5)
	DELAY1
200003da:	0001                	nop
200003dc:	0001                	nop
200003de:	0001                	nop
200003e0:	0001                	nop
200003e2:	0001                	nop
200003e4:	0001                	nop
200003e6:	0001                	nop
200003e8:	0001                	nop
200003ea:	0001                	nop
	DSCL_IHIGH
200003ec:	400016b7          	lui	a3,0x40001
200003f0:	6705                	lui	a4,0x1
200003f2:	0b868693          	addi	a3,a3,184 # 400010b8 <_eusrstack+0x1fffe0b8>
200003f6:	80070713          	addi	a4,a4,-2048 # 800 <_einit+0x770>
200003fa:	c298                	sw	a4,0(a3)
	DELAY1
200003fc:	0001                	nop
200003fe:	0001                	nop
20000400:	0001                	nop
20000402:	0001                	nop
20000404:	0001                	nop
20000406:	0001                	nop
20000408:	0001                	nop
2000040a:	0001                	nop
2000040c:	0001                	nop
	DSDA_IHIGH
2000040e:	c290                	sw	a2,0(a3)
	DELAY1
20000410:	0001                	nop
20000412:	0001                	nop
20000414:	0001                	nop
20000416:	0001                	nop
20000418:	0001                	nop
2000041a:	0001                	nop
2000041c:	0001                	nop
2000041e:	0001                	nop
20000420:	0001                	nop
	DSCL_OUTPUT
20000422:	c398                	sw	a4,0(a5)
	DELAY1
20000424:	0001                	nop
20000426:	0001                	nop
20000428:	0001                	nop
2000042a:	0001                	nop
2000042c:	0001                	nop
2000042e:	0001                	nop
20000430:	0001                	nop
20000432:	0001                	nop
20000434:	0001                	nop
	DSDA_OUTPUT
20000436:	c390                	sw	a2,0(a5)
}
20000438:	8082                	ret

2000043a <SendByte>:
        {
            DSDA_IHIGH
        }
        else
        {
            DSDA_OUTPUT
2000043a:	400016b7          	lui	a3,0x40001
            DSDA_IHIGH
2000043e:	40001737          	lui	a4,0x40001
        }
        data <<= 1;
        DELAY2
        DSCL_IHIGH
20000442:	6785                	lui	a5,0x1
{
20000444:	4621                	li	a2,8
20000446:	40000593          	li	a1,1024
            DSDA_OUTPUT
2000044a:	0ac68693          	addi	a3,a3,172 # 400010ac <_eusrstack+0x1fffe0ac>
            DSDA_IHIGH
2000044e:	0b870713          	addi	a4,a4,184 # 400010b8 <_eusrstack+0x1fffe0b8>
        DSCL_IHIGH
20000452:	80078793          	addi	a5,a5,-2048 # 800 <_einit+0x770>
        if (data & 0x80)
20000456:	01851813          	slli	a6,a0,0x18
2000045a:	41885813          	srai	a6,a6,0x18
2000045e:	0a085563          	bgez	a6,20000508 <SendByte+0xce>
            DSDA_IHIGH
20000462:	c30c                	sw	a1,0(a4)
        data <<= 1;
20000464:	0506                	slli	a0,a0,0x1
20000466:	0ff57513          	zext.b	a0,a0
        DELAY2
2000046a:	0001                	nop
2000046c:	0001                	nop
2000046e:	0001                	nop
20000470:	0001                	nop
20000472:	0001                	nop
20000474:	0001                	nop
20000476:	0001                	nop
20000478:	0001                	nop
2000047a:	0001                	nop
        DSCL_IHIGH
2000047c:	c31c                	sw	a5,0(a4)
        DELAY1
2000047e:	0001                	nop
20000480:	0001                	nop
20000482:	0001                	nop
20000484:	0001                	nop
20000486:	0001                	nop
20000488:	0001                	nop
2000048a:	0001                	nop
2000048c:	0001                	nop
2000048e:	0001                	nop
        DSCL_OUTPUT
20000490:	c29c                	sw	a5,0(a3)
    for (i = 0; i < 8; i++)
20000492:	167d                	addi	a2,a2,-1 # feffffff <_eusrstack+0xdeffcfff>
20000494:	f269                	bnez	a2,20000456 <SendByte+0x1c>
    }

    // Immediately after sending last bit, open up DDDR for control.
    DELAY1
20000496:	0001                	nop
20000498:	0001                	nop
2000049a:	0001                	nop
2000049c:	0001                	nop
2000049e:	0001                	nop
200004a0:	0001                	nop
200004a2:	0001                	nop
200004a4:	0001                	nop
200004a6:	0001                	nop
    DSDA_INPUT
200004a8:	40000613          	li	a2,1024
200004ac:	c310                	sw	a2,0(a4)
    DELAY1
200004ae:	0001                	nop
200004b0:	0001                	nop
200004b2:	0001                	nop
200004b4:	0001                	nop
200004b6:	0001                	nop
200004b8:	0001                	nop
200004ba:	0001                	nop
200004bc:	0001                	nop
200004be:	0001                	nop
    DSCL_IHIGH
200004c0:	c31c                	sw	a5,0(a4)
    DELAY1
200004c2:	0001                	nop
200004c4:	0001                	nop
200004c6:	0001                	nop
200004c8:	0001                	nop
200004ca:	0001                	nop
200004cc:	0001                	nop
200004ce:	0001                	nop
200004d0:	0001                	nop
200004d2:	0001                	nop
    i = READ_DSDA;
200004d4:	40001737          	lui	a4,0x40001
200004d8:	0a472503          	lw	a0,164(a4) # 400010a4 <_eusrstack+0x1fffe0a4>
    DELAY1
200004dc:	0001                	nop
200004de:	0001                	nop
200004e0:	0001                	nop
200004e2:	0001                	nop
200004e4:	0001                	nop
200004e6:	0001                	nop
200004e8:	0001                	nop
200004ea:	0001                	nop
200004ec:	0001                	nop
	DSDA_DONE_INPUT
    DSCL_OUTPUT
200004ee:	c29c                	sw	a5,0(a3)
    DELAY1
200004f0:	0001                	nop
200004f2:	0001                	nop
200004f4:	0001                	nop
200004f6:	0001                	nop
200004f8:	0001                	nop
200004fa:	0001                	nop
200004fc:	0001                	nop
200004fe:	0001                	nop
20000500:	0001                	nop
    return !!i;
20000502:	8129                	srli	a0,a0,0xa
}
20000504:	8905                	andi	a0,a0,1
20000506:	8082                	ret
            DSDA_OUTPUT
20000508:	c28c                	sw	a1,0(a3)
2000050a:	bfa9                	j	20000464 <SendByte+0x2a>

2000050c <SendByteNoAck>:
        {
            DSDA_IHIGH
        }
        else
        {
            DSDA_OUTPUT
2000050c:	400017b7          	lui	a5,0x40001
            DSDA_IHIGH
20000510:	400016b7          	lui	a3,0x40001
        }
        data <<= 1;
        DELAY2
        DSCL_IHIGH
20000514:	6705                	lui	a4,0x1
{
20000516:	4621                	li	a2,8
20000518:	40000593          	li	a1,1024
            DSDA_OUTPUT
2000051c:	0ac78793          	addi	a5,a5,172 # 400010ac <_eusrstack+0x1fffe0ac>
            DSDA_IHIGH
20000520:	0b868693          	addi	a3,a3,184 # 400010b8 <_eusrstack+0x1fffe0b8>
        DSCL_IHIGH
20000524:	80070713          	addi	a4,a4,-2048 # 800 <_einit+0x770>
        if (data & 0x80)
20000528:	01851813          	slli	a6,a0,0x18
2000052c:	41885813          	srai	a6,a6,0x18
20000530:	0a085363          	bgez	a6,200005d6 <SendByteNoAck+0xca>
            DSDA_IHIGH
20000534:	c28c                	sw	a1,0(a3)
        data <<= 1;
20000536:	0506                	slli	a0,a0,0x1
20000538:	0ff57513          	zext.b	a0,a0
        DELAY2
2000053c:	0001                	nop
2000053e:	0001                	nop
20000540:	0001                	nop
20000542:	0001                	nop
20000544:	0001                	nop
20000546:	0001                	nop
20000548:	0001                	nop
2000054a:	0001                	nop
2000054c:	0001                	nop
        DSCL_IHIGH
2000054e:	c298                	sw	a4,0(a3)
        DELAY1
20000550:	0001                	nop
20000552:	0001                	nop
20000554:	0001                	nop
20000556:	0001                	nop
20000558:	0001                	nop
2000055a:	0001                	nop
2000055c:	0001                	nop
2000055e:	0001                	nop
20000560:	0001                	nop
        DSCL_OUTPUT
20000562:	c398                	sw	a4,0(a5)
    for (i = 0; i < 8; i++)
20000564:	167d                	addi	a2,a2,-1
20000566:	f269                	bnez	a2,20000528 <SendByteNoAck+0x1c>
    }

    // Immediately after sending last bit, open up DDDR for control.
    DELAY1
20000568:	0001                	nop
2000056a:	0001                	nop
2000056c:	0001                	nop
2000056e:	0001                	nop
20000570:	0001                	nop
20000572:	0001                	nop
20000574:	0001                	nop
20000576:	0001                	nop
20000578:	0001                	nop
    DSDA_OUTPUT
2000057a:	40000613          	li	a2,1024
2000057e:	c390                	sw	a2,0(a5)
    DELAY1
20000580:	0001                	nop
20000582:	0001                	nop
20000584:	0001                	nop
20000586:	0001                	nop
20000588:	0001                	nop
2000058a:	0001                	nop
2000058c:	0001                	nop
2000058e:	0001                	nop
20000590:	0001                	nop
    DSCL_IHIGH
20000592:	c298                	sw	a4,0(a3)
    DELAY1
20000594:	0001                	nop
20000596:	0001                	nop
20000598:	0001                	nop
2000059a:	0001                	nop
2000059c:	0001                	nop
2000059e:	0001                	nop
200005a0:	0001                	nop
200005a2:	0001                	nop
200005a4:	0001                	nop
    i = READ_DSDA;
200005a6:	400016b7          	lui	a3,0x40001
200005aa:	0a46a683          	lw	a3,164(a3) # 400010a4 <_eusrstack+0x1fffe0a4>
    DELAY1
200005ae:	0001                	nop
200005b0:	0001                	nop
200005b2:	0001                	nop
200005b4:	0001                	nop
200005b6:	0001                	nop
200005b8:	0001                	nop
200005ba:	0001                	nop
200005bc:	0001                	nop
200005be:	0001                	nop
    DSCL_OUTPUT
200005c0:	c398                	sw	a4,0(a5)
    DELAY1
200005c2:	0001                	nop
200005c4:	0001                	nop
200005c6:	0001                	nop
200005c8:	0001                	nop
200005ca:	0001                	nop
200005cc:	0001                	nop
200005ce:	0001                	nop
200005d0:	0001                	nop
200005d2:	0001                	nop
}
200005d4:	8082                	ret
            DSDA_OUTPUT
200005d6:	c38c                	sw	a1,0(a5)
200005d8:	bfb9                	j	20000536 <SendByteNoAck+0x2a>

200005da <GetByte>:
I2CCODE unsigned char I2CFNCOLLAPSE(I2CPREFIX, GetByte)(uint8_t send_nak)
{
    unsigned char i;
    unsigned char ret = 0;

    DSDA_INPUT
200005da:	400015b7          	lui	a1,0x40001
200005de:	0b858593          	addi	a1,a1,184 # 400010b8 <_eusrstack+0x1fffe0b8>
200005e2:	40000793          	li	a5,1024

    for (i = 0; i < 8; i++)
    {
        DELAY1
        DELAY1
        DSCL_IHIGH
200005e6:	6605                	lui	a2,0x1
        DELAY1
        ret <<= 1;
        if (READ_DSDA)
200005e8:	400018b7          	lui	a7,0x40001
            ret |= 1;
        DSCL_OUTPUT
200005ec:	400016b7          	lui	a3,0x40001
{
200005f0:	882a                	mv	a6,a0
    DSDA_INPUT
200005f2:	c19c                	sw	a5,0(a1)
200005f4:	4721                	li	a4,8
    unsigned char ret = 0;
200005f6:	4501                	li	a0,0
        DSCL_IHIGH
200005f8:	80060613          	addi	a2,a2,-2048 # 800 <_einit+0x770>
        if (READ_DSDA)
200005fc:	0a488893          	addi	a7,a7,164 # 400010a4 <_eusrstack+0x1fffe0a4>
        DSCL_OUTPUT
20000600:	0ac68693          	addi	a3,a3,172 # 400010ac <_eusrstack+0x1fffe0ac>
        DELAY1
20000604:	0001                	nop
20000606:	0001                	nop
20000608:	0001                	nop
2000060a:	0001                	nop
2000060c:	0001                	nop
2000060e:	0001                	nop
20000610:	0001                	nop
20000612:	0001                	nop
20000614:	0001                	nop
        DELAY1
20000616:	0001                	nop
20000618:	0001                	nop
2000061a:	0001                	nop
2000061c:	0001                	nop
2000061e:	0001                	nop
20000620:	0001                	nop
20000622:	0001                	nop
20000624:	0001                	nop
20000626:	0001                	nop
        DSCL_IHIGH
20000628:	c190                	sw	a2,0(a1)
        DELAY1
2000062a:	0001                	nop
2000062c:	0001                	nop
2000062e:	0001                	nop
20000630:	0001                	nop
20000632:	0001                	nop
20000634:	0001                	nop
20000636:	0001                	nop
20000638:	0001                	nop
2000063a:	0001                	nop
        ret <<= 1;
2000063c:	00151793          	slli	a5,a0,0x1
20000640:	0ff7f513          	zext.b	a0,a5
        if (READ_DSDA)
20000644:	0008a783          	lw	a5,0(a7)
20000648:	4007f793          	andi	a5,a5,1024
2000064c:	c399                	beqz	a5,20000652 <GetByte+0x78>
            ret |= 1;
2000064e:	00156513          	ori	a0,a0,1
    for (i = 0; i < 8; i++)
20000652:	177d                	addi	a4,a4,-1
        DSCL_OUTPUT
20000654:	c290                	sw	a2,0(a3)
    for (i = 0; i < 8; i++)
20000656:	0ff77713          	zext.b	a4,a4
2000065a:	f74d                	bnez	a4,20000604 <GetByte+0x2a>
    }

	DSDA_DONE_INPUT

    // Send ack.
    if (send_nak)
2000065c:	40000793          	li	a5,1024
20000660:	04080f63          	beqz	a6,200006be <GetByte+0xe4>
    {
		DSDA_IHIGH
20000664:	40001737          	lui	a4,0x40001
20000668:	0af72c23          	sw	a5,184(a4) # 400010b8 <_eusrstack+0x1fffe0b8>
    else
    {
        DSDA_OUTPUT
    }

    DELAY1
2000066c:	0001                	nop
2000066e:	0001                	nop
20000670:	0001                	nop
20000672:	0001                	nop
20000674:	0001                	nop
20000676:	0001                	nop
20000678:	0001                	nop
2000067a:	0001                	nop
2000067c:	0001                	nop
    DSCL_IHIGH
2000067e:	6705                	lui	a4,0x1
20000680:	400017b7          	lui	a5,0x40001
20000684:	80070713          	addi	a4,a4,-2048 # 800 <_einit+0x770>
20000688:	0ae7ac23          	sw	a4,184(a5) # 400010b8 <_eusrstack+0x1fffe0b8>
    DELAY2
2000068c:	0001                	nop
2000068e:	0001                	nop
20000690:	0001                	nop
20000692:	0001                	nop
20000694:	0001                	nop
20000696:	0001                	nop
20000698:	0001                	nop
2000069a:	0001                	nop
2000069c:	0001                	nop
    DSCL_OUTPUT
2000069e:	0ac78793          	addi	a5,a5,172
200006a2:	c398                	sw	a4,0(a5)
    DELAY1
200006a4:	0001                	nop
200006a6:	0001                	nop
200006a8:	0001                	nop
200006aa:	0001                	nop
200006ac:	0001                	nop
200006ae:	0001                	nop
200006b0:	0001                	nop
200006b2:	0001                	nop
200006b4:	0001                	nop
        DSDA_OUTPUT
200006b6:	40000713          	li	a4,1024
200006ba:	c398                	sw	a4,0(a5)
//    DSDA_IHIGH

    return ret;
}
200006bc:	8082                	ret
        DSDA_OUTPUT
200006be:	c29c                	sw	a5,0(a3)
200006c0:	b775                	j	2000066c <GetByte+0x92>

200006c2 <ProcessLSM6DS3>:

}

void ProcessLSM6DS3() __HIGH_CODE;
void ProcessLSM6DS3()
{
200006c2:	7139                	addi	sp,sp,-64
200006c4:	de06                	sw	ra,60(sp)
200006c6:	dc22                	sw	s0,56(sp)
200006c8:	da26                	sw	s1,52(sp)
200006ca:	d84a                	sw	s2,48(sp)
200006cc:	d64e                	sw	s3,44(sp)
200006ce:	d452                	sw	s4,40(sp)
200006d0:	d256                	sw	s5,36(sp)
200006d2:	d05a                	sw	s6,32(sp)
200006d4:	ce5e                	sw	s7,28(sp)
	SendStart();
200006d6:	39a5                	jal	2000034e <SendStart>
	SendByteNoAck( LSM6DS3_ADDRESS<<1 );
200006d8:	0d400513          	li	a0,212
200006dc:	3d05                	jal	2000050c <SendByteNoAck>
	SendByteNoAck( 0x3a );
200006de:	03a00513          	li	a0,58
200006e2:	352d                	jal	2000050c <SendByteNoAck>
	SendStart();
200006e4:	31ad                	jal	2000034e <SendStart>
	SendByteNoAck( (LSM6DS3_ADDRESS<<1)|1 );
200006e6:	0d500513          	li	a0,213
200006ea:	350d                	jal	2000050c <SendByteNoAck>

	uint32_t sw = 0;
	sw = GetByte( 0 );
200006ec:	4501                	li	a0,0
200006ee:	35f5                	jal	200005da <GetByte>
200006f0:	84aa                	mv	s1,a0
	sw |= GetByte( 0 ) << 8ULL;
200006f2:	4501                	li	a0,0
200006f4:	35dd                	jal	200005da <GetByte>
200006f6:	842a                	mv	s0,a0
	sw |= GetByte( 1 ) << 16ULL;
200006f8:	4505                	li	a0,1
200006fa:	35c5                	jal	200005da <GetByte>
200006fc:	0542                	slli	a0,a0,0x10
	sw |= GetByte( 0 ) << 8ULL;
200006fe:	0422                	slli	s0,s0,0x8
	sw |= GetByte( 1 ) << 16ULL;
20000700:	8c49                	or	s0,s0,a0
20000702:	8c45                	or	s0,s0,s1

	SendStop();
20000704:	395d                	jal	200003ba <SendStop>

	if( sw & 0x4000 )
20000706:	01141793          	slli	a5,s0,0x11
	{
		printf( "Full SW: %06x\n", (int)sw );
2000070a:	85a2                	mv	a1,s0
	if( sw & 0x4000 )
2000070c:	0407d463          	bgez	a5,20000754 <ProcessLSM6DS3+0x92>
		printf( "Full SW: %06x\n", (int)sw );
20000710:	6511                	lui	a0,0x4
20000712:	74050513          	addi	a0,a0,1856 # 4740 <__clzsi2+0x17e>
20000716:	e0001097          	auipc	ra,0xe0001
2000071a:	cba080e7          	jalr	-838(ra) # 13d0 <printf>
		// Need to reset fifo.

		SetupRegisterMap( LSM6DS3_ADDRESS, 
			(const uint8_t[]){ 0x0a, 0x28, 0x0a, 0x2e },
2000071e:	2e0a37b7          	lui	a5,0x2e0a3
		SetupRegisterMap( LSM6DS3_ADDRESS, 
20000722:	6691                	lui	a3,0x4
			(const uint8_t[]){ 0x0a, 0x28, 0x0a, 0x2e },
20000724:	80a78793          	addi	a5,a5,-2038 # 2e0a280a <_eusrstack+0xe09f80a>
		SetupRegisterMap( LSM6DS3_ADDRESS, 
20000728:	75068693          	addi	a3,a3,1872 # 4750 <__clzsi2+0x18e>
2000072c:	4609                	li	a2,2
2000072e:	006c                	addi	a1,sp,12
20000730:	06a00513          	li	a0,106
			(const uint8_t[]){ 0x0a, 0x28, 0x0a, 0x2e },
20000734:	c63e                	sw	a5,12(sp)
		SetupRegisterMap( LSM6DS3_ADDRESS, 
20000736:	e0001097          	auipc	ra,0xe0001
2000073a:	678080e7          	jalr	1656(ra) # 1dae <SetupRegisterMap.isra.0>
		//printf( "\n" );
	}
	printf( "\n" );

	SendStop();
}
2000073e:	50f2                	lw	ra,60(sp)
20000740:	5462                	lw	s0,56(sp)
20000742:	54d2                	lw	s1,52(sp)
20000744:	5942                	lw	s2,48(sp)
20000746:	59b2                	lw	s3,44(sp)
20000748:	5a22                	lw	s4,40(sp)
2000074a:	5a92                	lw	s5,36(sp)
2000074c:	5b02                	lw	s6,32(sp)
2000074e:	4bf2                	lw	s7,28(sp)
20000750:	6121                	addi	sp,sp,64
20000752:	8082                	ret
	printf( "%06x ", (unsigned int)sw );
20000754:	6511                	lui	a0,0x4
20000756:	76450513          	addi	a0,a0,1892 # 4764 <__clzsi2+0x1a2>
2000075a:	e0001097          	auipc	ra,0xe0001
2000075e:	c76080e7          	jalr	-906(ra) # 13d0 <printf>
	if( samps > 63 ) samps = 63;
20000762:	7c047793          	andi	a5,s0,1984
20000766:	efc9                	bnez	a5,20000800 <ProcessLSM6DS3+0x13e>
20000768:	7ff47413          	andi	s0,s0,2047
	if( samps == 0 )
2000076c:	d869                	beqz	s0,2000073e <ProcessLSM6DS3+0x7c>
	SendStart();
2000076e:	36c5                	jal	2000034e <SendStart>
	SendByteNoAck( LSM6DS3_ADDRESS<<1 );
20000770:	0d400513          	li	a0,212
20000774:	3b61                	jal	2000050c <SendByteNoAck>
	SendByteNoAck( 0x20 );
20000776:	02000513          	li	a0,32
2000077a:	3b49                	jal	2000050c <SendByteNoAck>
	SendStart();
2000077c:	3ec9                	jal	2000034e <SendStart>
	SendByteNoAck( (LSM6DS3_ADDRESS<<1)|1 );
2000077e:	0d500513          	li	a0,213
20000782:	3369                	jal	2000050c <SendByteNoAck>
	uint32_t ta = GetByte( 0 );
20000784:	4501                	li	a0,0
20000786:	3d91                	jal	200005da <GetByte>
	ta |= GetByte( 0 )<<8; // Ignore FIFO status 4
20000788:	4501                	li	a0,0
2000078a:	3d81                	jal	200005da <GetByte>
	for( samp = 0; samp < samps; samp++ )
2000078c:	4481                	li	s1,0
			int end = (i==5 && samp == samps-1);
2000078e:	4a15                	li	s4,5
20000790:	fff40b13          	addi	s6,s0,-1
				printf( "%04x ", val );
20000794:	6b91                	lui	s7,0x4
		for( i = 0; i < 6; i++ )
20000796:	4a99                	li	s5,6
20000798:	4901                	li	s2,0
			uint16_t val = GetByte( 0 );
2000079a:	4501                	li	a0,0
2000079c:	3d3d                	jal	200005da <GetByte>
2000079e:	89aa                	mv	s3,a0
			int end = (i==5 && samp == samps-1);
200007a0:	4501                	li	a0,0
200007a2:	01491b63          	bne	s2,s4,200007b8 <ProcessLSM6DS3+0xf6>
200007a6:	009b1963          	bne	s6,s1,200007b8 <ProcessLSM6DS3+0xf6>
			if( end ) printf( "." );
200007aa:	02e00513          	li	a0,46
200007ae:	e0001097          	auipc	ra,0xe0001
200007b2:	20e080e7          	jalr	526(ra) # 19bc <putchar>
			int end = (i==5 && samp == samps-1);
200007b6:	4505                	li	a0,1
			val |= GetByte( end ) << 8;
200007b8:	350d                	jal	200005da <GetByte>
			if( samp == 0 )
200007ba:	ec89                	bnez	s1,200007d4 <ProcessLSM6DS3+0x112>
			val |= GetByte( end ) << 8;
200007bc:	00851593          	slli	a1,a0,0x8
200007c0:	0135e5b3          	or	a1,a1,s3
				printf( "%04x ", val );
200007c4:	05c2                	slli	a1,a1,0x10
200007c6:	81c1                	srli	a1,a1,0x10
200007c8:	76cb8513          	addi	a0,s7,1900 # 476c <__clzsi2+0x1aa>
200007cc:	e0001097          	auipc	ra,0xe0001
200007d0:	c04080e7          	jalr	-1020(ra) # 13d0 <printf>
		for( i = 0; i < 6; i++ )
200007d4:	0905                	addi	s2,s2,1
200007d6:	fd5912e3          	bne	s2,s5,2000079a <ProcessLSM6DS3+0xd8>
	for( samp = 0; samp < samps; samp++ )
200007da:	0485                	addi	s1,s1,1
200007dc:	fa941ee3          	bne	s0,s1,20000798 <ProcessLSM6DS3+0xd6>
	printf( "\n" );
200007e0:	4529                	li	a0,10
200007e2:	e0001097          	auipc	ra,0xe0001
200007e6:	1da080e7          	jalr	474(ra) # 19bc <putchar>
}
200007ea:	5462                	lw	s0,56(sp)
200007ec:	50f2                	lw	ra,60(sp)
200007ee:	54d2                	lw	s1,52(sp)
200007f0:	5942                	lw	s2,48(sp)
200007f2:	59b2                	lw	s3,44(sp)
200007f4:	5a22                	lw	s4,40(sp)
200007f6:	5a92                	lw	s5,36(sp)
200007f8:	5b02                	lw	s6,32(sp)
200007fa:	4bf2                	lw	s7,28(sp)
200007fc:	6121                	addi	sp,sp,64
	SendStop();
200007fe:	be75                	j	200003ba <SendStop>
	if( samps > 63 ) samps = 63;
20000800:	03f00413          	li	s0,63
20000804:	b7ad                	j	2000076e <ProcessLSM6DS3+0xac>

20000806 <CoreLoop>:


void CoreLoop() __HIGH_CODE;

void CoreLoop()
{
20000806:	715d                	addi	sp,sp,-80
20000808:	d85a                	sw	s6,48(sp)

	uint32_t cimutag;
	uint32_t cimudat;
	int16_t cimu[3] = { 0 };

	unsigned nextdeadline = SysTick->CNT;
2000080a:	e000fb37          	lui	s6,0xe000f
{
2000080e:	d462                	sw	s8,40(sp)
	unsigned nextdeadline = SysTick->CNT;
20000810:	008b2c03          	lw	s8,8(s6) # e000f008 <_eusrstack+0xc000c008>
{
20000814:	c2a6                	sw	s1,68(sp)
20000816:	de4e                	sw	s3,60(sp)
20000818:	dc52                	sw	s4,56(sp)
2000081a:	da56                	sw	s5,52(sp)
	funDigitalWrite( SSD1306_DC_PIN, FUN_LOW );
2000081c:	400019b7          	lui	s3,0x40001
20000820:	6a85                	lui	s5,0x1
	R16_SPI0_TOTAL_CNT = 4;
20000822:	40004a37          	lui	s4,0x40004
{
20000826:	c0ca                	sw	s2,64(sp)
20000828:	d65e                	sw	s7,44(sp)
2000082a:	d266                	sw	s9,36(sp)
2000082c:	d06a                	sw	s10,32(sp)
	void * nextjump = &&lsm6_getcimu;
2000082e:	b0818793          	addi	a5,gp,-1272 # 200008ac <CoreLoop+0xa6>
{
20000832:	c686                	sw	ra,76(sp)
20000834:	c4a2                	sw	s0,72(sp)
20000836:	ce6e                	sw	s11,28(sp)
	uint32_t fn = 0;
20000838:	4901                	li	s2,0
2000083a:	b0818493          	addi	s1,gp,-1272 # 200008ac <CoreLoop+0xa6>
2000083e:	9c4a8a93          	addi	s5,s5,-1596 # 9c4 <_einit+0x934>
	funDigitalWrite( SSD1306_DC_PIN, FUN_LOW );
20000842:	0ac98993          	addi	s3,s3,172 # 400010ac <_eusrstack+0x1fffe0ac>
20000846:	40000c93          	li	s9,1024
	funDigitalWrite( SSD1306_CS_PIN, FUN_LOW );
2000084a:	4bc1                	li	s7,16
	R16_SPI0_TOTAL_CNT = 4;
2000084c:	0a31                	addi	s4,s4,12 # 4000400c <_eusrstack+0x2000100c>
2000084e:	4d11                	li	s10,4
20000850:	035906b3          	mul	a3,s2,s5
20000854:	96e2                	add	a3,a3,s8

	cont:
		// Target 16.697 kHz
		while( ((int32_t)( SysTick->CNT - nextdeadline )) < 0  );
20000856:	008b2703          	lw	a4,8(s6)
2000085a:	8f15                	sub	a4,a4,a3
2000085c:	fe074de3          	bltz	a4,20000856 <CoreLoop+0x50>
	funDigitalWrite( SSD1306_DC_PIN, FUN_LOW );
20000860:	0199a023          	sw	s9,0(s3)
	funDigitalWrite( SSD1306_CS_PIN, FUN_LOW );
20000864:	0179a023          	sw	s7,0(s3)
	R16_SPI0_TOTAL_CNT = 4;
20000868:	01aa1023          	sh	s10,0(s4)
	R8_SPI0_FIFO = 0xd3;
2000086c:	40004737          	lui	a4,0x40004
20000870:	fd300693          	li	a3,-45
20000874:	00d70823          	sb	a3,16(a4) # 40004010 <_eusrstack+0x20001010>
	R8_SPI0_FIFO = x;
20000878:	07f97693          	andi	a3,s2,127
2000087c:	00d70823          	sb	a3,16(a4)
	R8_SPI0_FIFO = 0xdc;
20000880:	fdc00693          	li	a3,-36
20000884:	00d70823          	sb	a3,16(a4)
		nextdeadline += 2500;
		spi_send_command_fast( fn&0x7f, fn>>7 );
20000888:	00795693          	srli	a3,s2,0x7
	R8_SPI0_FIFO = y;
2000088c:	0ff6f693          	zext.b	a3,a3
20000890:	00d70823          	sb	a3,16(a4)
	while( R16_SPI0_TOTAL_CNT );
20000894:	000a5703          	lhu	a4,0(s4)
20000898:	ff75                	bnez	a4,20000894 <CoreLoop+0x8e>
	funDigitalWrite( SSD1306_CS_PIN, FUN_HIGH );
2000089a:	40001737          	lui	a4,0x40001
2000089e:	0b772c23          	sw	s7,184(a4) # 400010b8 <_eusrstack+0x1fffe0b8>
		fn++;
200008a2:	0905                	addi	s2,s2,1
		goto *nextjump;
200008a4:	8782                	jr	a5
		cimudat |= GetByte( 0 ) << 8ULL;
		cimudat |= GetByte( 1 ) << 16ULL;
		SendStop();
		if( cimudat & 0x4000 )
		{
			nextjump = &&lsm6_force_fifo_reset;
200008a6:	b5418793          	addi	a5,gp,-1196 # 200008f8 <CoreLoop+0xf2>
200008aa:	b75d                	j	20000850 <CoreLoop+0x4a>
		SendStart();
200008ac:	344d                	jal	2000034e <SendStart>
		SendByteNoAck( LSM6DS3_ADDRESS<<1 );
200008ae:	0d400513          	li	a0,212
200008b2:	39a9                	jal	2000050c <SendByteNoAck>
		SendByteNoAck( 0x3a );
200008b4:	03a00513          	li	a0,58
200008b8:	3991                	jal	2000050c <SendByteNoAck>
		SendStart();
200008ba:	3c51                	jal	2000034e <SendStart>
		SendByteNoAck( (LSM6DS3_ADDRESS<<1)|1 );
200008bc:	0d500513          	li	a0,213
200008c0:	31b1                	jal	2000050c <SendByteNoAck>
		cimudat = GetByte( 0 );
200008c2:	4501                	li	a0,0
200008c4:	3b19                	jal	200005da <GetByte>
200008c6:	c62a                	sw	a0,12(sp)
		cimudat |= GetByte( 0 ) << 8ULL;
200008c8:	4501                	li	a0,0
200008ca:	3b01                	jal	200005da <GetByte>
200008cc:	8daa                	mv	s11,a0
		cimudat |= GetByte( 1 ) << 16ULL;
200008ce:	4505                	li	a0,1
200008d0:	3329                	jal	200005da <GetByte>
200008d2:	47b2                	lw	a5,12(sp)
200008d4:	0542                	slli	a0,a0,0x10
		cimudat |= GetByte( 0 ) << 8ULL;
200008d6:	0da2                	slli	s11,s11,0x8
		cimudat |= GetByte( 1 ) << 16ULL;
200008d8:	00adedb3          	or	s11,s11,a0
200008dc:	00fdedb3          	or	s11,s11,a5
		SendStop();
200008e0:	3ce9                	jal	200003ba <SendStop>
		if( cimudat & 0x4000 )
200008e2:	011d9793          	slli	a5,s11,0x11
200008e6:	fc07c0e3          	bltz	a5,200008a6 <CoreLoop+0xa0>
			goto cont;
		}
		else if( ( cimudat & 0x7ff ) > 0 )
200008ea:	015d9793          	slli	a5,s11,0x15
200008ee:	0a078563          	beqz	a5,20000998 <CoreLoop+0x192>
		{
			nextjump = &&lsm6_pull0;
200008f2:	b9018793          	addi	a5,gp,-1136 # 20000934 <CoreLoop+0x12e>
200008f6:	bfa9                	j	20000850 <CoreLoop+0x4a>
		}
		nextjump = &&lsm6_1;
		goto cont;

	lsm6_force_fifo_reset:
		SendStart();
200008f8:	3c99                	jal	2000034e <SendStart>
		SendByteNoAck( LSM6DS3_ADDRESS<<1 );
200008fa:	0d400513          	li	a0,212
200008fe:	3139                	jal	2000050c <SendByteNoAck>
		SendByteNoAck( 0x0a );
20000900:	4529                	li	a0,10
20000902:	3129                	jal	2000050c <SendByteNoAck>
		SendByteNoAck( 0x28 );
20000904:	02800513          	li	a0,40
20000908:	3111                	jal	2000050c <SendByteNoAck>
		SendStop();
2000090a:	3c45                	jal	200003ba <SendStop>
		SendStart();
2000090c:	3489                	jal	2000034e <SendStart>
		SendByteNoAck( LSM6DS3_ADDRESS<<1 );
2000090e:	0d400513          	li	a0,212
20000912:	3eed                	jal	2000050c <SendByteNoAck>
		SendByteNoAck( 0x0a );
20000914:	4529                	li	a0,10
20000916:	3edd                	jal	2000050c <SendByteNoAck>
		SendByteNoAck( 0x2e );
20000918:	02e00513          	li	a0,46
2000091c:	3ec5                	jal	2000050c <SendByteNoAck>
		SendStop();
2000091e:	3c71                	jal	200003ba <SendStop>
		Delay_Ms(20);
20000920:	00125537          	lui	a0,0x125
20000924:	f8050513          	addi	a0,a0,-128 # 124f80 <_data_lma+0x11fe58>
20000928:	e0000097          	auipc	ra,0xe0000
2000092c:	1d8080e7          	jalr	472(ra) # b00 <DelaySysTick>
	lsm6_1:
		nextjump = &&lsm6_2;
		goto cont;

	lsm6_2:
		nextjump = &&lsm6_getcimu;
20000930:	87a6                	mv	a5,s1
		goto cont;
20000932:	bf39                	j	20000850 <CoreLoop+0x4a>
		SendStart();
20000934:	3c29                	jal	2000034e <SendStart>
		SendByteNoAck( LSM6DS3_ADDRESS<<1 );
20000936:	0d400513          	li	a0,212
2000093a:	3ec9                	jal	2000050c <SendByteNoAck>
		SendByteNoAck( 0x78 );
2000093c:	07800513          	li	a0,120
20000940:	36f1                	jal	2000050c <SendByteNoAck>
		SendStart();
20000942:	3431                	jal	2000034e <SendStart>
		SendByteNoAck( (LSM6DS3_ADDRESS<<1)|1 );
20000944:	0d500513          	li	a0,213
20000948:	36d1                	jal	2000050c <SendByteNoAck>
		cimutag = GetByte( 0 ); // FIFO Tag
2000094a:	4501                	li	a0,0
2000094c:	3179                	jal	200005da <GetByte>
2000094e:	842a                	mv	s0,a0
		nextjump = &&lsm6_pull1;
20000950:	bb218793          	addi	a5,gp,-1102 # 20000956 <CoreLoop+0x150>
		goto cont;
20000954:	bdf5                	j	20000850 <CoreLoop+0x4a>
		tmp = GetByte( 0 );
20000956:	4501                	li	a0,0
20000958:	3149                	jal	200005da <GetByte>
		cimu[0] = tmp | GetByte( 0 ) << 8;
2000095a:	4501                	li	a0,0
2000095c:	39bd                	jal	200005da <GetByte>
		tmp = GetByte( 0 );
2000095e:	4501                	li	a0,0
20000960:	39ad                	jal	200005da <GetByte>
		cimu[1] = tmp | GetByte( 0 ) << 8;
20000962:	4501                	li	a0,0
20000964:	399d                	jal	200005da <GetByte>
		tmp = GetByte( 0 );
20000966:	4501                	li	a0,0
20000968:	398d                	jal	200005da <GetByte>
		cimu[2] = tmp | GetByte( 1 ) << 8;
2000096a:	4505                	li	a0,1
2000096c:	31bd                	jal	200005da <GetByte>
		SendStop();
2000096e:	34b1                	jal	200003ba <SendStop>
		nextjump = &&lsm6_pull2;
20000970:	bd218793          	addi	a5,gp,-1070 # 20000976 <CoreLoop+0x170>
		goto cont;
20000974:	bdf1                	j	20000850 <CoreLoop+0x4a>
		cimutag >>= 3;
20000976:	800d                	srli	s0,s0,0x3
		if( cimutag == 1 )
20000978:	fff40713          	addi	a4,s0,-1
2000097c:	4789                	li	a5,2
2000097e:	00e7fa63          	bgeu	a5,a4,20000992 <CoreLoop+0x18c>
			printf( "Confusing tag: %d\n", (int)cimutag );
20000982:	6511                	lui	a0,0x4
20000984:	85a2                	mv	a1,s0
20000986:	77450513          	addi	a0,a0,1908 # 4774 <__clzsi2+0x1b2>
2000098a:	e0001097          	auipc	ra,0xe0001
2000098e:	a46080e7          	jalr	-1466(ra) # 13d0 <printf>
		nextjump = &&lsm6_process;
20000992:	bf418793          	addi	a5,gp,-1036 # 20000998 <CoreLoop+0x192>
20000996:	bd6d                	j	20000850 <CoreLoop+0x4a>
		nextjump = &&lsm6_1;
20000998:	bfa18793          	addi	a5,gp,-1030 # 2000099e <CoreLoop+0x198>
2000099c:	bd55                	j	20000850 <CoreLoop+0x4a>
		nextjump = &&lsm6_2;
2000099e:	b8c18793          	addi	a5,gp,-1140 # 20000930 <CoreLoop+0x12a>
		goto cont;
200009a2:	b57d                	j	20000850 <CoreLoop+0x4a>

Disassembly of section .text:

00000a34 <mini_pad>:
	if(pad_to == 0) pad_to = len;
     a34:	c699                	beqz	a3,a42 <mini_pad+0xe>
	int overflow = 0;
     a36:	4801                	li	a6,0
	if(len > pad_to) {
     a38:	00b6d763          	bge	a3,a1,a46 <mini_pad+0x12>
		len = pad_to;
     a3c:	85b6                	mv	a1,a3
		overflow = 1;
     a3e:	4805                	li	a6,1
     a40:	a019                	j	a46 <mini_pad+0x12>
	int overflow = 0;
     a42:	4801                	li	a6,0
	if(pad_to == 0) pad_to = len;
     a44:	86ae                	mv	a3,a1
	for(i = pad_to - len; i > 0; i --) {
     a46:	8e8d                	sub	a3,a3,a1
	char * pbuffer = buffer;
     a48:	87ba                	mv	a5,a4
     a4a:	00e68333          	add	t1,a3,a4
	for(i = pad_to - len; i > 0; i --) {
     a4e:	40f308b3          	sub	a7,t1,a5
     a52:	05104a63          	bgtz	a7,aa6 <mini_pad+0x72>
     a56:	fff6c793          	not	a5,a3
     a5a:	87fd                	srai	a5,a5,0x1f
     a5c:	8efd                	and	a3,a3,a5
     a5e:	96ba                	add	a3,a3,a4
     a60:	4781                	li	a5,0
	for(i = len; i > 0; i --) {
     a62:	40f58633          	sub	a2,a1,a5
     a66:	00f688b3          	add	a7,a3,a5
     a6a:	04c04263          	bgtz	a2,aae <mini_pad+0x7a>
     a6e:	fff5c793          	not	a5,a1
     a72:	87fd                	srai	a5,a5,0x1f
     a74:	8dfd                	and	a1,a1,a5
     a76:	95b6                	add	a1,a1,a3
	len = pbuffer - buffer;
     a78:	40e58533          	sub	a0,a1,a4
	if(overflow) {
     a7c:	02080463          	beqz	a6,aa4 <mini_pad+0x70>
		for (i = 0; i < 3 && pbuffer > buffer; i ++) {
     a80:	02b77263          	bgeu	a4,a1,aa4 <mini_pad+0x70>
			*(pbuffer-- - 1) = '*';
     a84:	02a00793          	li	a5,42
     a88:	fef58fa3          	sb	a5,-1(a1)
     a8c:	fff58693          	addi	a3,a1,-1
		for (i = 0; i < 3 && pbuffer > buffer; i ++) {
     a90:	00d77a63          	bgeu	a4,a3,aa4 <mini_pad+0x70>
			*(pbuffer-- - 1) = '*';
     a94:	fef58f23          	sb	a5,-2(a1)
     a98:	ffe58693          	addi	a3,a1,-2
		for (i = 0; i < 3 && pbuffer > buffer; i ++) {
     a9c:	00d77463          	bgeu	a4,a3,aa4 <mini_pad+0x70>
			*(pbuffer-- - 1) = '*';
     aa0:	fef58ea3          	sb	a5,-3(a1)
}
     aa4:	8082                	ret
		*(pbuffer++) = pad_char;
     aa6:	0785                	addi	a5,a5,1
     aa8:	fec78fa3          	sb	a2,-1(a5)
	for(i = pad_to - len; i > 0; i --) {
     aac:	b74d                	j	a4e <mini_pad+0x1a>
		*(pbuffer++) = *(ptr++);
     aae:	00f50633          	add	a2,a0,a5
     ab2:	00064603          	lbu	a2,0(a2)
     ab6:	0785                	addi	a5,a5,1
     ab8:	00c88023          	sb	a2,0(a7)
	for(i = len; i > 0; i --) {
     abc:	b75d                	j	a62 <mini_pad+0x2e>

00000abe <_puts>:
{
     abe:	86aa                	mv	a3,a0
     ac0:	852e                	mv	a0,a1
	if(!buf) return len;
     ac2:	ce01                	beqz	a2,ada <_puts+0x1c>
	char * p0 = b->buffer;
     ac4:	00062883          	lw	a7,0(a2)
	for (i = 0; i < len; i++) {
     ac8:	4701                	li	a4,0
		if(b->pbuffer == b->buffer + b->buffer_len - 1) {
     aca:	425c                	lw	a5,4(a2)
	for (i = 0; i < len; i++) {
     acc:	00a74863          	blt	a4,a0,adc <_puts+0x1e>
	*(b->pbuffer) = 0;
     ad0:	00078023          	sb	zero,0(a5)
	return b->pbuffer - p0;
     ad4:	4248                	lw	a0,4(a2)
     ad6:	41150533          	sub	a0,a0,a7
}
     ada:	8082                	ret
		if(b->pbuffer == b->buffer + b->buffer_len - 1) {
     adc:	00862803          	lw	a6,8(a2)
     ae0:	420c                	lw	a1,0(a2)
     ae2:	187d                	addi	a6,a6,-1
     ae4:	95c2                	add	a1,a1,a6
     ae6:	feb785e3          	beq	a5,a1,ad0 <_puts+0x12>
		*(b->pbuffer ++) = s[i];
     aea:	00178593          	addi	a1,a5,1
     aee:	c24c                	sw	a1,4(a2)
     af0:	00e685b3          	add	a1,a3,a4
     af4:	0005c583          	lbu	a1,0(a1)
	for (i = 0; i < len; i++) {
     af8:	0705                	addi	a4,a4,1
		*(b->pbuffer ++) = s[i];
     afa:	00b78023          	sb	a1,0(a5)
	for (i = 0; i < len; i++) {
     afe:	b7f1                	j	aca <_puts+0xc>

00000b00 <DelaySysTick>:
	while( ((int32_t)( SysTick->CNT - targend )) < 0 );
#elif defined(CH32V20x) || defined(CH32V30x) || defined(CH32X03x) || defined(CH32L103) || defined(CH582_CH583) || defined(CH591_CH592) || defined(CH32H41x)
	uint64_t targend = SysTick->CNT + n;
	while( ((int64_t)( SysTick->CNT - targend )) < 0 );
#elif defined(CH32V10x) || defined(CH570_CH572) || defined(CH584_CH585)
	uint32_t targend = SysTick->CNTL + n;
     b00:	e000f737          	lui	a4,0xe000f
     b04:	471c                	lw	a5,8(a4)
     b06:	953e                	add	a0,a0,a5
	while( ((int32_t)( SysTick->CNTL - targend )) < 0 );
     b08:	471c                	lw	a5,8(a4)
     b0a:	8f89                	sub	a5,a5,a0
     b0c:	fe07cee3          	bltz	a5,b08 <DelaySysTick+0x8>
	uint64_t targend = SysTick->CNT - n;
	while( ((int64_t)( SysTick->CNT - targend )) > 0 );
#else
	#error DelaySysTick not defined.
#endif
}
     b10:	8082                	ret

00000b12 <mini_itoa.part.0>:
	int	negative = 0;
     b12:	4881                	li	a7,0
	if (value < 0 && !unsig) {
     b14:	00055663          	bgez	a0,b20 <mini_itoa.part.0+0xe>
     b18:	e681                	bnez	a3,b20 <mini_itoa.part.0+0xe>
		value = -value;
     b1a:	40a00533          	neg	a0,a0
		negative = 1;
     b1e:	4885                	li	a7,1
     b20:	8a05                	andi	a2,a2,1
     b22:	06100793          	li	a5,97
     b26:	c219                	beqz	a2,b2c <mini_itoa.part.0+0x1a>
     b28:	04100793          	li	a5,65
	int	negative = 0;
     b2c:	883a                	mv	a6,a4
		*(pbuffer++) = (digit < 10 ? '0' + digit : (uppercase ? 'A' : 'a') + digit - 10);
     b2e:	4e25                	li	t3,9
     b30:	ff678613          	addi	a2,a5,-10
		int digit = value % radix;
     b34:	02b577b3          	remu	a5,a0,a1
     b38:	832a                	mv	t1,a0
		*(pbuffer++) = (digit < 10 ? '0' + digit : (uppercase ? 'A' : 'a') + digit - 10);
     b3a:	0ff7f693          	zext.b	a3,a5
     b3e:	04fe6463          	bltu	t3,a5,b86 <mini_itoa.part.0+0x74>
     b42:	03068693          	addi	a3,a3,48
     b46:	0ff6f693          	zext.b	a3,a3
     b4a:	00d80023          	sb	a3,0(a6)
     b4e:	00180793          	addi	a5,a6,1
		value /= radix;
     b52:	02b55533          	divu	a0,a0,a1
	} while (value > 0);
     b56:	02b37663          	bgeu	t1,a1,b82 <mini_itoa.part.0+0x70>
	if (negative)
     b5a:	00088863          	beqz	a7,b6a <mini_itoa.part.0+0x58>
		*(pbuffer++) = '-';
     b5e:	02d00693          	li	a3,45
     b62:	00d78023          	sb	a3,0(a5)
     b66:	00280793          	addi	a5,a6,2
	len = (pbuffer - buffer);
     b6a:	40e78533          	sub	a0,a5,a4
	for (i = 0; i < len / 2; i++) {
     b6e:	4609                	li	a2,2
	*(pbuffer) = '\0';
     b70:	00078023          	sb	zero,0(a5)
	for (i = 0; i < len / 2; i++) {
     b74:	4681                	li	a3,0
     b76:	02c54633          	div	a2,a0,a2
     b7a:	17fd                	addi	a5,a5,-1
     b7c:	00c6c763          	blt	a3,a2,b8a <mini_itoa.part.0+0x78>
}
     b80:	8082                	ret
		*(pbuffer++) = (digit < 10 ? '0' + digit : (uppercase ? 'A' : 'a') + digit - 10);
     b82:	883e                	mv	a6,a5
     b84:	bf45                	j	b34 <mini_itoa.part.0+0x22>
     b86:	96b2                	add	a3,a3,a2
     b88:	bf7d                	j	b46 <mini_itoa.part.0+0x34>
		char j = buffer[i];
     b8a:	00d705b3          	add	a1,a4,a3
		buffer[i] = buffer[len-i-1];
     b8e:	0007c883          	lbu	a7,0(a5)
		char j = buffer[i];
     b92:	0005c803          	lbu	a6,0(a1)
	for (i = 0; i < len / 2; i++) {
     b96:	0685                	addi	a3,a3,1
		buffer[i] = buffer[len-i-1];
     b98:	01158023          	sb	a7,0(a1)
		buffer[len-i-1] = j;
     b9c:	01078023          	sb	a6,0(a5)
	for (i = 0; i < len / 2; i++) {
     ba0:	bfe9                	j	b7a <mini_itoa.part.0+0x68>

00000ba2 <ssd1306_drawPixel>:
void ssd1306_drawPixel(uint32_t x, uint32_t y, int color)
{
	uint32_t addr;
	
	/* clip */
	if(x >= SSD1306_W)
     ba2:	00b56733          	or	a4,a0,a1
     ba6:	07f00793          	li	a5,127
     baa:	02e7e563          	bltu	a5,a4,bd4 <ssd1306_drawPixel+0x32>
		return;
	if(y >= SSD1306_H)
		return;
	
	/* compute buffer address */
	addr = x + SSD1306_W*(y/8);
     bae:	0035d793          	srli	a5,a1,0x3
     bb2:	079e                	slli	a5,a5,0x7
     bb4:	97aa                	add	a5,a5,a0
	
	/* set/clear bit in buffer */
	if(color)
		ssd1306_buffer[addr] |= (1<<(y&7));
     bb6:	20002537          	lui	a0,0x20002
     bba:	87850513          	addi	a0,a0,-1928 # 20001878 <ssd1306_buffer>
     bbe:	953e                	add	a0,a0,a5
     bc0:	899d                	andi	a1,a1,7
     bc2:	4705                	li	a4,1
     bc4:	00054783          	lbu	a5,0(a0)
     bc8:	00b71733          	sll	a4,a4,a1
	if(color)
     bcc:	c609                	beqz	a2,bd6 <ssd1306_drawPixel+0x34>
		ssd1306_buffer[addr] |= (1<<(y&7));
     bce:	8fd9                	or	a5,a5,a4
	else
		ssd1306_buffer[addr] &= ~(1<<(y&7));
     bd0:	00f50023          	sb	a5,0(a0)
}
     bd4:	8082                	ret
		ssd1306_buffer[addr] &= ~(1<<(y&7));
     bd6:	fff74713          	not	a4,a4
     bda:	8ff9                	and	a5,a5,a4
     bdc:	bfd5                	j	bd0 <ssd1306_drawPixel+0x2e>

00000bde <DevSetMode>:
	if(mode) {
     bde:	4000c7b7          	lui	a5,0x4000c
     be2:	10078793          	addi	a5,a5,256 # 4000c100 <_eusrstack+0x20009100>
		BB->CTRL_CFG = DEVSETMODE_ON;
     be6:	4398                	lw	a4,0(a5)
     be8:	fffd06b7          	lui	a3,0xfffd0
     bec:	16fd                	addi	a3,a3,-1 # fffcffff <_eusrstack+0xdffccfff>
     bee:	8f75                	and	a4,a4,a3
	if(mode) {
     bf0:	c115                	beqz	a0,c14 <DevSetMode+0x36>
		BB->CTRL_CFG = DEVSETMODE_ON;
     bf2:	000206b7          	lui	a3,0x20
     bf6:	8f55                	or	a4,a4,a3
     bf8:	c398                	sw	a4,0(a5)
		RF->RF2 |= 0x330000;
     bfa:	4000d737          	lui	a4,0x4000d
     bfe:	471c                	lw	a5,8(a4)
     c00:	003306b7          	lui	a3,0x330
     c04:	8fd5                	or	a5,a5,a3
     c06:	c71c                	sw	a5,8(a4)
	LL->CTRL_MOD = mode;
     c08:	4000c7b7          	lui	a5,0x4000c
     c0c:	20078793          	addi	a5,a5,512 # 4000c200 <_eusrstack+0x20009200>
     c10:	cba8                	sw	a0,80(a5)
}
     c12:	8082                	ret
		BB->CTRL_CFG = DEVSETMODE_OFF;
     c14:	66c1                	lui	a3,0x10
     c16:	8f55                	or	a4,a4,a3
     c18:	c398                	sw	a4,0(a5)
		RF->RF2 &= 0xffcdffff;
     c1a:	4000d6b7          	lui	a3,0x4000d
     c1e:	469c                	lw	a5,8(a3)
     c20:	ffce0737          	lui	a4,0xffce0
     c24:	177d                	addi	a4,a4,-1 # ffcdffff <_eusrstack+0xdfcdcfff>
     c26:	8ff9                	and	a5,a5,a4
     c28:	c69c                	sw	a5,8(a3)
     c2a:	bff9                	j	c08 <DevSetMode+0x2a>

00000c2c <RFEND_TXCTune>:
	RF->RF1 &= 0xfffffffe;
     c2c:	4000d7b7          	lui	a5,0x4000d
     c30:	43d8                	lw	a4,4(a5)
	RF->TXTUNE_CTRL = (RF->TXTUNE_CTRL & 0xfffe00ff) | (0xbf00 + (channel_map[channel] << 8));
     c32:	6631                	lui	a2,0xc
     c34:	f0060613          	addi	a2,a2,-256 # bf00 <_data_lma+0x6dd8>
	RF->RF1 &= 0xfffffffe;
     c38:	9b79                	andi	a4,a4,-2
     c3a:	c3d8                	sw	a4,4(a5)
	RF->TXTUNE_CTRL = (RF->TXTUNE_CTRL & 0xfffe00ff) | (0xbf00 + (channel_map[channel] << 8));
     c3c:	6715                	lui	a4,0x5
     c3e:	00070713          	mv	a4,a4
     c42:	972a                	add	a4,a4,a0
     c44:	00074703          	lbu	a4,0(a4) # 5000 <channel_map>
     c48:	5f94                	lw	a3,56(a5)
     c4a:	0722                	slli	a4,a4,0x8
     c4c:	9732                	add	a4,a4,a2
     c4e:	7601                	lui	a2,0xfffe0
     c50:	0ff60613          	addi	a2,a2,255 # fffe00ff <_eusrstack+0xdffdd0ff>
     c54:	8ef1                	and	a3,a3,a2
     c56:	8f55                	or	a4,a4,a3
     c58:	df98                	sw	a4,56(a5)
	RF->RF1 |= 1;
     c5a:	43d8                	lw	a4,4(a5)
	LL->TMR = 8000;
     c5c:	6689                	lui	a3,0x2
     c5e:	f4068693          	addi	a3,a3,-192 # 1f40 <main+0x10e>
	RF->RF1 |= 1;
     c62:	00176713          	ori	a4,a4,1
     c66:	c3d8                	sw	a4,4(a5)
	LL->TMR = 8000;
     c68:	4000c737          	lui	a4,0x4000c
     c6c:	20070713          	addi	a4,a4,512 # 4000c200 <_eusrstack+0x20009200>
     c70:	d374                	sw	a3,100(a4)
	while(!(RF->TXCTUNE_CO_CTRL & (1 << 25)) || !(RF->TXCTUNE_CO_CTRL & (1 << 26))) {
     c72:	0907a683          	lw	a3,144(a5) # 4000d090 <_eusrstack+0x2000a090>
     c76:	00669613          	slli	a2,a3,0x6
     c7a:	00065863          	bgez	a2,c8a <RFEND_TXCTune+0x5e>
     c7e:	0907a683          	lw	a3,144(a5)
     c82:	00569613          	slli	a2,a3,0x5
     c86:	00064463          	bltz	a2,c8e <RFEND_TXCTune+0x62>
		if(LL->TMR == 0) {
     c8a:	5374                	lw	a3,100(a4)
     c8c:	f2fd                	bnez	a3,c72 <RFEND_TXCTune+0x46>
	uint8_t nCO = (uint8_t)RF->TXCTUNE_CO_CTRL & 0x3f;
     c8e:	4000d7b7          	lui	a5,0x4000d
     c92:	0907a503          	lw	a0,144(a5) # 4000d090 <_eusrstack+0x2000a090>
	uint8_t nGA = (uint8_t)(RF->TXCTUNE_GA_CTRL >> 10) & 0x7f;
     c96:	0947a783          	lw	a5,148(a5)
	return (nGA << 24) | nCO;
     c9a:	03f57513          	andi	a0,a0,63
	uint8_t nGA = (uint8_t)(RF->TXCTUNE_GA_CTRL >> 10) & 0x7f;
     c9e:	83a9                	srli	a5,a5,0xa
	return (nGA << 24) | nCO;
     ca0:	07f7f793          	andi	a5,a5,127
     ca4:	07e2                	slli	a5,a5,0x18
}
     ca6:	8d5d                	or	a0,a0,a5
     ca8:	8082                	ret

00000caa <DevSetChannel>:
	RF->RF11 &= 0xfffffffd;
     caa:	4000d737          	lui	a4,0x4000d
     cae:	575c                	lw	a5,44(a4)
	BB->CTRL_CFG = (BB->CTRL_CFG & 0xffffff80) | (channel & 0x7f);
     cb0:	07f57513          	andi	a0,a0,127
	RF->RF11 &= 0xfffffffd;
     cb4:	9bf5                	andi	a5,a5,-3
     cb6:	d75c                	sw	a5,44(a4)
	BB->CTRL_CFG = (BB->CTRL_CFG & 0xffffff80) | (channel & 0x7f);
     cb8:	4000c737          	lui	a4,0x4000c
     cbc:	10070713          	addi	a4,a4,256 # 4000c100 <_eusrstack+0x20009100>
     cc0:	431c                	lw	a5,0(a4)
     cc2:	f807f793          	andi	a5,a5,-128
     cc6:	8fc9                	or	a5,a5,a0
     cc8:	c31c                	sw	a5,0(a4)
}
     cca:	8082                	ret

00000ccc <RenderBSprite>:
	int sw = spr->w;
     ccc:	00051303          	lh	t1,0(a0)
{
     cd0:	1101                	addi	sp,sp,-32
     cd2:	ca4a                	sw	s2,20(sp)
     cd4:	c84e                	sw	s3,16(sp)
     cd6:	ce22                	sw	s0,28(sp)
     cd8:	cc26                	sw	s1,24(sp)
     cda:	c652                	sw	s4,12(sp)
     cdc:	c456                	sw	s5,8(sp)
     cde:	c25a                	sw	s6,4(sp)
     ce0:	c05e                	sw	s7,0(sp)
	int sh = spr->h;
     ce2:	00251903          	lh	s2,2(a0)
			bin += sw;
     ce6:	00231993          	slli	s3,t1,0x2
	const uint32_t * bin = &spr->data[0];
     cea:	0511                	addi	a0,a0,4
	for( y = 0; y < sh; y++, outy++ )
     cec:	4781                	li	a5,0
     cee:	00034363          	bltz	t1,cf4 <RenderBSprite+0x28>
     cf2:	879a                	mv	a5,t1
     cf4:	07c2                	slli	a5,a5,0x10
     cf6:	87c1                	srai	a5,a5,0x10
     cf8:	00279813          	slli	a6,a5,0x2
		else if( outy >= SSD1306_H )
     cfc:	07f00413          	li	s0,127
	for( y = 0; y < sh; y++, outy++ )
     d00:	87b2                	mv	a5,a2
		uint8_t * bout = &ssd1306_buffer[(outy>>3)*SSD1306_W + outx];
     d02:	20002a37          	lui	s4,0x20002
		int boutshiftmaskinv = ~(1<<boutshift);
     d06:	4a85                	li	s5,1
			for( x = 0; x < 16; x++, tx++, input >>= 1 )
     d08:	4b41                	li	s6,16
	for( y = 0; y < sh; y++, outy++ )
     d0a:	40c78733          	sub	a4,a5,a2
     d0e:	01274c63          	blt	a4,s2,d26 <RenderBSprite+0x5a>
}
     d12:	4472                	lw	s0,28(sp)
     d14:	44e2                	lw	s1,24(sp)
     d16:	4952                	lw	s2,20(sp)
     d18:	49c2                	lw	s3,16(sp)
     d1a:	4a32                	lw	s4,12(sp)
     d1c:	4aa2                	lw	s5,8(sp)
     d1e:	4b12                	lw	s6,4(sp)
     d20:	4b82                	lw	s7,0(sp)
     d22:	6105                	addi	sp,sp,32
     d24:	8082                	ret
		if( outy < 0 )
     d26:	0007d563          	bgez	a5,d30 <RenderBSprite+0x64>
			bin += sw;
     d2a:	954e                	add	a0,a0,s3
	for( y = 0; y < sh; y++, outy++ )
     d2c:	0785                	addi	a5,a5,1
     d2e:	bff1                	j	d0a <RenderBSprite+0x3e>
		else if( outy >= SSD1306_H )
     d30:	fef441e3          	blt	s0,a5,d12 <RenderBSprite+0x46>
		uint8_t * bout = &ssd1306_buffer[(outy>>3)*SSD1306_W + outx];
     d34:	4037d713          	srai	a4,a5,0x3
		int boutshift = outy&7;
     d38:	0077f493          	andi	s1,a5,7
		uint8_t * bout = &ssd1306_buffer[(outy>>3)*SSD1306_W + outx];
     d3c:	071e                	slli	a4,a4,0x7
     d3e:	878a0f93          	addi	t6,s4,-1928 # 20001878 <ssd1306_buffer>
		int boutshiftmaskinv = ~(1<<boutshift);
     d42:	009a92b3          	sll	t0,s5,s1
     d46:	fff2c293          	not	t0,t0
		int tx = outx;
     d4a:	8eae                	mv	t4,a1
		for( group = 0; group < sw; group++ )
     d4c:	4e01                	li	t3,0
     d4e:	9fba                	add	t6,t6,a4
     d50:	01df8bb3          	add	s7,t6,t4
     d54:	006e4463          	blt	t3,t1,d5c <RenderBSprite+0x90>
     d58:	9542                	add	a0,a0,a6
     d5a:	bfc9                	j	d2c <RenderBSprite+0x60>
			uint32_t input = *(bin++);
     d5c:	002e1713          	slli	a4,t3,0x2
     d60:	972a                	add	a4,a4,a0
     d62:	00072f03          	lw	t5,0(a4)
			for( x = 0; x < 16; x++, tx++, input >>= 1 )
     d66:	4881                	li	a7,0
				if( tx < 0 || tx >= SSD1306_W ) continue;
     d68:	01d88733          	add	a4,a7,t4
     d6c:	02e46463          	bltu	s0,a4,d94 <RenderBSprite+0xc8>
				if( input & 1 )
     d70:	001f7713          	andi	a4,t5,1
     d74:	c305                	beqz	a4,d94 <RenderBSprite+0xc8>
					bout[x] = ( bout[x] & boutshiftmaskinv ) | (((input>>16)&1)<< ( boutshift));
     d76:	011b86b3          	add	a3,s7,a7
     d7a:	0006c383          	lbu	t2,0(a3)
     d7e:	010f5713          	srli	a4,t5,0x10
     d82:	8b05                	andi	a4,a4,1
     d84:	00971733          	sll	a4,a4,s1
     d88:	0053f3b3          	and	t2,t2,t0
     d8c:	00776733          	or	a4,a4,t2
     d90:	00e68023          	sb	a4,0(a3)
			for( x = 0; x < 16; x++, tx++, input >>= 1 )
     d94:	0885                	addi	a7,a7,1
     d96:	001f5f13          	srli	t5,t5,0x1
     d9a:	fd6897e3          	bne	a7,s6,d68 <RenderBSprite+0x9c>
     d9e:	0ec1                	addi	t4,t4,16
		for( group = 0; group < sw; group++ )
     da0:	0e05                	addi	t3,t3,1
     da2:	b77d                	j	d50 <RenderBSprite+0x84>

00000da4 <_rand_gen_32b>:
uint32_t _rand_gen_32b(void)
{
	uint32_t rand_out = 0;
	
	uint8_t bits = 32;
	while(bits--)
     da4:	c041a703          	lw	a4,-1020(gp) # 200009a8 <_rand_lfsr>
{
     da8:	02000693          	li	a3,32
	uint32_t rand_out = 0;
     dac:	4501                	li	a0,0
	uint32_t msb = bit_31 ^ bit_21 ^ bit_01 ^ bit_00;
     dae:	80000837          	lui	a6,0x80000
	uint32_t bit_01 = (_rand_lfsr << 30) & 0x80000000;
     db2:	01e71593          	slli	a1,a4,0x1e
	uint32_t bit_21 = (_rand_lfsr << 10) & 0x80000000;
     db6:	00a71793          	slli	a5,a4,0xa
	uint32_t msb = bit_31 ^ bit_21 ^ bit_01 ^ bit_00;
     dba:	8fad                	xor	a5,a5,a1
     dbc:	8fb9                	xor	a5,a5,a4
	uint32_t bit_00 = (_rand_lfsr << 31) & 0x80000000;
     dbe:	01f71593          	slli	a1,a4,0x1f
	uint32_t msb = bit_31 ^ bit_21 ^ bit_01 ^ bit_00;
     dc2:	0107f7b3          	and	a5,a5,a6
     dc6:	8fad                	xor	a5,a5,a1
	_rand_lfsr = (_rand_lfsr >> 1) | msb;
     dc8:	8305                	srli	a4,a4,0x1
	while(bits--)
     dca:	16fd                	addi	a3,a3,-1
	{
		// Shift the current rand value for the new LSB
		rand_out = rand_out << 1;
     dcc:	0506                	slli	a0,a0,0x1
	_rand_lfsr = (_rand_lfsr >> 1) | msb;
     dce:	8f5d                	or	a4,a4,a5
	while(bits--)
     dd0:	0ff6f693          	zext.b	a3,a3
	return msb >> 31;
     dd4:	83fd                	srli	a5,a5,0x1f
		// Append the LSB
		rand_out |= _rand_lfsr_update();
     dd6:	8d5d                	or	a0,a0,a5
	while(bits--)
     dd8:	fee9                	bnez	a3,db2 <_rand_gen_32b+0xe>
     dda:	c0e1a223          	sw	a4,-1020(gp) # 200009a8 <_rand_lfsr>
	}
	
	return rand_out;
}
     dde:	8082                	ret

00000de0 <ModePufferWirelessRX>:
void ModePufferWirelessRX( uint8_t * txmac, uint8_t * message, int messageLength, int rssi )
{
	//Note to self, this is bad but it works
	ModePuffer *m = (ModePuffer*) game;
	//Include this in modes to handle incoming traffic from the internet
}
     de0:	8082                	ret

00000de2 <badSin>:
}
int getRandExtraPokes(){
	return (rand() % 7);
}

double badSin(int degrees){
     de2:	1141                	addi	sp,sp,-16
     de4:	c606                	sw	ra,12(sp)
	//0 returns 1
	//90 returns 0
	//180 returns -1
	//270 returns 0
	//We interpolate these values linearly because who has time for real lookup tables
	if(degrees >= 180){
     de6:	0b300793          	li	a5,179
     dea:	05a00713          	li	a4,90
     dee:	00a7da63          	bge	a5,a0,e02 <badSin+0x20>
		return -1 + ((degrees-180)/90);
     df2:	02e54533          	div	a0,a0,a4
     df6:	1575                	addi	a0,a0,-3
	}else{
		return -1 + ((180-degrees)/90);
	}
}
     df8:	5e0030ef          	jal	43d8 <__floatsidf>
     dfc:	40b2                	lw	ra,12(sp)
     dfe:	0141                	addi	sp,sp,16
     e00:	8082                	ret
		return -1 + ((180-degrees)/90);
     e02:	0b400793          	li	a5,180
     e06:	40a78533          	sub	a0,a5,a0
     e0a:	02e54533          	div	a0,a0,a4
     e0e:	157d                	addi	a0,a0,-1
     e10:	b7e5                	j	df8 <badSin+0x16>

00000e12 <funPinMode.part.0>:
	case GPIO_ModeIN_Floating:
		*(&R32_PA_PD_DRV + OFFSET_FOR_GPIOB(pin)) &= ~(pin & ~PB);
     e12:	400017b7          	lui	a5,0x40001
     e16:	0b478793          	addi	a5,a5,180 # 400010b4 <_eusrstack+0x1fffe0b4>
     e1a:	4398                	lw	a4,0(a5)
     e1c:	fff54513          	not	a0,a0
     e20:	8f69                	and	a4,a4,a0
     e22:	c398                	sw	a4,0(a5)
		*(&R32_PA_PU + OFFSET_FOR_GPIOB(pin))     &= ~(pin & ~PB);
     e24:	400017b7          	lui	a5,0x40001
     e28:	0b078793          	addi	a5,a5,176 # 400010b0 <_eusrstack+0x1fffe0b0>
     e2c:	4398                	lw	a4,0(a5)
     e2e:	8f69                	and	a4,a4,a0
     e30:	c398                	sw	a4,0(a5)
		*(&R32_PA_DIR + OFFSET_FOR_GPIOB(pin))    &= ~(pin & ~PB);
     e32:	400017b7          	lui	a5,0x40001
     e36:	0a078793          	addi	a5,a5,160 # 400010a0 <_eusrstack+0x1fffe0a0>
     e3a:	4398                	lw	a4,0(a5)
     e3c:	8d79                	and	a0,a0,a4
     e3e:	c388                	sw	a0,0(a5)
	case GPIO_ModeOut_PP_20mA:
		*(&R32_PA_PD_DRV + OFFSET_FOR_GPIOB(pin)) |= (pin & ~PB);
		*(&R32_PA_DIR + OFFSET_FOR_GPIOB(pin))    |= (pin & ~PB);
		break;
	}
}
     e40:	8082                	ret

00000e42 <ssd1306_drawstr_sz.constprop.0>:
}

/*
 * draw a string to the display buffer, scaled to size
 */
void ssd1306_drawstr_sz(uint8_t x, uint8_t y, char *str, uint8_t color, font_size_t font_size)
     e42:	711d                	addi	sp,sp,-96
     e44:	cca2                	sw	s0,88(sp)
	
	while((c=*str++))
	{
		ssd1306_drawchar_sz(x, y, c, color, font_size);
		x += 8 * font_size;
		if(x>128 - 8 * font_size)
     e46:	4409                	li	s0,2
     e48:	8c15                	sub	s0,s0,a3
void ssd1306_drawstr_sz(uint8_t x, uint8_t y, char *str, uint8_t color, font_size_t font_size)
     e4a:	c0da                	sw	s6,64(sp)
		if(x>128 - 8 * font_size)
     e4c:	00803433          	snez	s0,s0
    uint8_t font_scale = (uint8_t)font_size;
     e50:	0ff6fb13          	zext.b	s6,a3
void ssd1306_drawstr_sz(uint8_t x, uint8_t y, char *str, uint8_t color, font_size_t font_size)
     e54:	c4d2                	sw	s4,72(sp)
		if(x>128 - 8 * font_size)
     e56:	040e                	slli	s0,s0,0x3
		x += 8 * font_size;
     e58:	003b1a13          	slli	s4,s6,0x3
void ssd1306_drawstr_sz(uint8_t x, uint8_t y, char *str, uint8_t color, font_size_t font_size)
     e5c:	c2d6                	sw	s5,68(sp)
     e5e:	d86a                	sw	s10,48(sp)
     e60:	d66e                	sw	s11,44(sp)
     e62:	ce86                	sw	ra,92(sp)
     e64:	caa6                	sw	s1,84(sp)
     e66:	c8ca                	sw	s2,80(sp)
     e68:	c6ce                	sw	s3,76(sp)
     e6a:	de5e                	sw	s7,60(sp)
     e6c:	dc62                	sw	s8,56(sp)
     e6e:	da66                	sw	s9,52(sp)
     e70:	8daa                	mv	s11,a0
     e72:	c82e                	sw	a1,16(sp)
     e74:	8d32                	mv	s10,a2
     e76:	8ab6                	mv	s5,a3
		x += 8 * font_size;
     e78:	0ffa7a13          	zext.b	s4,s4
		if(x>128 - 8 * font_size)
     e7c:	07040413          	addi	s0,s0,112
	while((c=*str++))
     e80:	000d4983          	lbu	s3,0(s10)
     e84:	0d05                	addi	s10,s10,1
     e86:	06098d63          	beqz	s3,f00 <ssd1306_drawstr_sz.constprop.0+0xbe>
     e8a:	4c42                	lw	s8,16(sp)
        d = fontdata[(chr << 3) + i];
     e8c:	00399793          	slli	a5,s3,0x3
	while((c=*str++))
     e90:	4b81                	li	s7,0
        d = fontdata[(chr << 3) + i];
     e92:	ca3e                	sw	a5,20(sp)
     e94:	47d2                	lw	a5,20(sp)
     e96:	6711                	lui	a4,0x4
     e98:	7ac70613          	addi	a2,a4,1964 # 47ac <fontdata>
     e9c:	97de                	add	a5,a5,s7
     e9e:	97b2                	add	a5,a5,a2
     ea0:	0007c903          	lbu	s2,0(a5)
                    ssd1306_drawPixel(x + (j * font_scale) + k, y + (i * font_scale) + l, col);
     ea4:	001c0793          	addi	a5,s8,1
     ea8:	8cee                	mv	s9,s11
        d = fontdata[(chr << 3) + i];
     eaa:	44a1                	li	s1,8
                    ssd1306_drawPixel(x + (j * font_scale) + k, y + (i * font_scale) + l, col);
     eac:	cc3e                	sw	a5,24(sp)
            if (d & 0x80)
     eae:	00795793          	srli	a5,s2,0x7
     eb2:	c63e                	sw	a5,12(sp)
     eb4:	4981                	li	s3,0
                    ssd1306_drawPixel(x + (j * font_scale) + k, y + (i * font_scale) + l, col);
     eb6:	4632                	lw	a2,12(sp)
     eb8:	01998533          	add	a0,s3,s9
     ebc:	85e2                	mv	a1,s8
     ebe:	ce2a                	sw	a0,28(sp)
     ec0:	31cd                	jal	ba2 <ssd1306_drawPixel>
                for (uint8_t l = 0; l < font_scale; l++) {
     ec2:	4789                	li	a5,2
     ec4:	4572                	lw	a0,28(sp)
     ec6:	00fa9563          	bne	s5,a5,ed0 <ssd1306_drawstr_sz.constprop.0+0x8e>
                    ssd1306_drawPixel(x + (j * font_scale) + k, y + (i * font_scale) + l, col);
     eca:	4632                	lw	a2,12(sp)
     ecc:	45e2                	lw	a1,24(sp)
     ece:	39d1                	jal	ba2 <ssd1306_drawPixel>
     ed0:	00198613          	addi	a2,s3,1
     ed4:	4985                	li	s3,1
            for (uint8_t k = 0; k < font_scale; k++) {
     ed6:	ff6660e3          	bltu	a2,s6,eb6 <ssd1306_drawstr_sz.constprop.0+0x74>
        for (j = 0; j < 8; j++)
     eda:	14fd                	addi	s1,s1,-1
     edc:	04c2                	slli	s1,s1,0x10
            d <<= 1;
     ede:	0906                	slli	s2,s2,0x1
        for (j = 0; j < 8; j++)
     ee0:	80c1                	srli	s1,s1,0x10
            d <<= 1;
     ee2:	0ff97913          	zext.b	s2,s2
        for (j = 0; j < 8; j++)
     ee6:	9cd6                	add	s9,s9,s5
     ee8:	f0f9                	bnez	s1,eae <ssd1306_drawstr_sz.constprop.0+0x6c>
    for (i = 0; i < 8; i++)
     eea:	0b85                	addi	s7,s7,1
     eec:	47a1                	li	a5,8
     eee:	9c56                	add	s8,s8,s5
     ef0:	fafb92e3          	bne	s7,a5,e94 <ssd1306_drawstr_sz.constprop.0+0x52>
		x += 8 * font_size;
     ef4:	014d8733          	add	a4,s11,s4
     ef8:	0ff77d93          	zext.b	s11,a4
		if(x>128 - 8 * font_size)
     efc:	f9b472e3          	bgeu	s0,s11,e80 <ssd1306_drawstr_sz.constprop.0+0x3e>
			break;
	}
}
     f00:	40f6                	lw	ra,92(sp)
     f02:	4466                	lw	s0,88(sp)
     f04:	44d6                	lw	s1,84(sp)
     f06:	4946                	lw	s2,80(sp)
     f08:	49b6                	lw	s3,76(sp)
     f0a:	4a26                	lw	s4,72(sp)
     f0c:	4a96                	lw	s5,68(sp)
     f0e:	4b06                	lw	s6,64(sp)
     f10:	5bf2                	lw	s7,60(sp)
     f12:	5c62                	lw	s8,56(sp)
     f14:	5cd2                	lw	s9,52(sp)
     f16:	5d42                	lw	s10,48(sp)
     f18:	5db2                	lw	s11,44(sp)
     f1a:	6125                	addi	sp,sp,96
     f1c:	8082                	ret

00000f1e <internal_handle_input.constprop.0>:
	uint32_t dmd0 = *dmdata0;
     f1e:	e00007b7          	lui	a5,0xe0000
     f22:	3407a783          	lw	a5,832(a5) # e0000340 <_eusrstack+0xbfffd340>
}
     f26:	8082                	ret

00000f28 <_write.constprop.0>:
WEAK int _write(int fd, const char *buf, int size)
     f28:	7139                	addi	sp,sp,-64
     f2a:	dc22                	sw	s0,56(sp)
	if( ( *DMDATA0 & 0xc0 ) == 0xc0 ) return 0;
     f2c:	e0000437          	lui	s0,0xe0000
     f30:	34040413          	addi	s0,s0,832 # e0000340 <_eusrstack+0xbfffd340>
     f34:	401c                	lw	a5,0(s0)
WEAK int _write(int fd, const char *buf, int size)
     f36:	de06                	sw	ra,60(sp)
     f38:	da26                	sw	s1,52(sp)
     f3a:	d84a                	sw	s2,48(sp)
     f3c:	d64e                	sw	s3,44(sp)
     f3e:	d452                	sw	s4,40(sp)
     f40:	d256                	sw	s5,36(sp)
     f42:	d05a                	sw	s6,32(sp)
     f44:	ce5e                	sw	s7,28(sp)
	if( ( *DMDATA0 & 0xc0 ) == 0xc0 ) return 0;
     f46:	0c07f793          	andi	a5,a5,192
     f4a:	0c000713          	li	a4,192
     f4e:	00e78b63          	beq	a5,a4,f64 <_write.constprop.0+0x3c>
	char buffer[4] = { 0 };
     f52:	c602                	sw	zero,12(sp)
     f54:	84ae                	mv	s1,a1
	if( size == 0 )
     f56:	e5d5                	bnez	a1,1002 <_write.constprop.0+0xda>
		lastdmd = (*DMDATA0);
     f58:	401c                	lw	a5,0(s0)
		if( lastdmd && !(lastdmd&0x80) ) internal_handle_input( (uint32_t*)DMDATA0 );
     f5a:	c789                	beqz	a5,f64 <_write.constprop.0+0x3c>
     f5c:	0807f793          	andi	a5,a5,128
     f60:	e391                	bnez	a5,f64 <_write.constprop.0+0x3c>
     f62:	3f75                	jal	f1e <internal_handle_input.constprop.0>
	if( ( *DMDATA0 & 0xc0 ) == 0xc0 ) return 0;
     f64:	4481                	li	s1,0
}
     f66:	50f2                	lw	ra,60(sp)
     f68:	5462                	lw	s0,56(sp)
     f6a:	5942                	lw	s2,48(sp)
     f6c:	59b2                	lw	s3,44(sp)
     f6e:	5a22                	lw	s4,40(sp)
     f70:	5a92                	lw	s5,36(sp)
     f72:	5b02                	lw	s6,32(sp)
     f74:	4bf2                	lw	s7,28(sp)
     f76:	8526                	mv	a0,s1
     f78:	54d2                	lw	s1,52(sp)
     f7a:	6121                	addi	sp,sp,64
     f7c:	8082                	ret
		int tosend = size - place;
     f7e:	412489b3          	sub	s3,s1,s2
		if( tosend > 7 ) tosend = 7;
     f82:	013b5363          	bge	s6,s3,f88 <_write.constprop.0+0x60>
     f86:	499d                	li	s3,7
     f88:	001007b7          	lui	a5,0x100
     f8c:	0785                	addi	a5,a5,1 # 100001 <_data_lma+0xfaed9>
		while( ( lastdmd = (*DMDATA0) ) & 0x80 )
     f8e:	4018                	lw	a4,0(s0)
     f90:	08077693          	andi	a3,a4,128
     f94:	e6b1                	bnez	a3,fe0 <_write.constprop.0+0xb8>
		if( lastdmd ) internal_handle_input( (uint32_t*)DMDATA0 );
     f96:	c311                	beqz	a4,f9a <_write.constprop.0+0x72>
     f98:	3759                	jal	f1e <internal_handle_input.constprop.0>
     f9a:	0078                	addi	a4,sp,12
		if( tosend > 7 ) tosend = 7;
     f9c:	478d                	li	a5,3
     f9e:	863a                	mv	a2,a4
		while( t < tosend )
     fa0:	0537c763          	blt	a5,s3,fee <_write.constprop.0+0xc6>
		*DMDATA1 = *(uint32_t*)&(buffer[0]);
     fa4:	47b2                	lw	a5,12(sp)
     fa6:	012a0733          	add	a4,s4,s2
     faa:	00faa023          	sw	a5,0(s5)
		t = 0;
     fae:	4781                	li	a5,0
			buffer[t+1] = buf[t+place];
     fb0:	00074583          	lbu	a1,0(a4)
     fb4:	0785                	addi	a5,a5,1
     fb6:	00f606b3          	add	a3,a2,a5
     fba:	00b68023          	sb	a1,0(a3)
		while( t < tosend && t < 3 )
     fbe:	00f98563          	beq	s3,a5,fc8 <_write.constprop.0+0xa0>
     fc2:	0705                	addi	a4,a4,1
     fc4:	ff7796e3          	bne	a5,s7,fb0 <_write.constprop.0+0x88>
		buffer[0] = 0x80 | (tosend + 4);
     fc8:	00498793          	addi	a5,s3,4
     fcc:	f807e793          	ori	a5,a5,-128
     fd0:	00f10623          	sb	a5,12(sp)
		*DMDATA0 = *(uint32_t*)&(buffer[0]);
     fd4:	47b2                	lw	a5,12(sp)
		place += tosend;
     fd6:	994e                	add	s2,s2,s3
		*DMDATA0 = *(uint32_t*)&(buffer[0]);
     fd8:	c01c                	sw	a5,0(s0)
	while( place < size )
     fda:	fa9942e3          	blt	s2,s1,f7e <_write.constprop.0+0x56>
     fde:	b761                	j	f66 <_write.constprop.0+0x3e>
			if( timeout-- == 0 )
     fe0:	17fd                	addi	a5,a5,-1
     fe2:	f7d5                	bnez	a5,f8e <_write.constprop.0+0x66>
				*DMDATA0 |= 0xc0;
     fe4:	401c                	lw	a5,0(s0)
     fe6:	0c07e793          	ori	a5,a5,192
     fea:	c01c                	sw	a5,0(s0)
				return 0;
     fec:	bfa5                	j	f64 <_write.constprop.0+0x3c>
			buffer[t-3] = buf[t+place];
     fee:	00f906b3          	add	a3,s2,a5
     ff2:	96d2                	add	a3,a3,s4
     ff4:	0006c683          	lbu	a3,0(a3)
			t++;
     ff8:	0785                	addi	a5,a5,1
     ffa:	0705                	addi	a4,a4,1
			buffer[t-3] = buf[t+place];
     ffc:	fed70fa3          	sb	a3,-1(a4)
    1000:	b745                	j	fa0 <_write.constprop.0+0x78>
		*DMDATA1 = *(uint32_t*)&(buffer[0]);
    1002:	e0000ab7          	lui	s5,0xe0000
    1006:	8a2a                	mv	s4,a0
    1008:	4901                	li	s2,0
		if( tosend > 7 ) tosend = 7;
    100a:	4b1d                	li	s6,7
		*DMDATA1 = *(uint32_t*)&(buffer[0]);
    100c:	344a8a93          	addi	s5,s5,836 # e0000344 <_eusrstack+0xbfffd344>
		while( t < tosend && t < 3 )
    1010:	4b8d                	li	s7,3
    1012:	b7e1                	j	fda <_write.constprop.0+0xb2>

00001014 <__puts_uart>:
{
    1014:	1141                	addi	sp,sp,-16
    1016:	c422                	sw	s0,8(sp)
    1018:	c606                	sw	ra,12(sp)
    101a:	842e                	mv	s0,a1
	_write( 0, s, len );
    101c:	3731                	jal	f28 <_write.constprop.0>
}
    101e:	40b2                	lw	ra,12(sp)
    1020:	8522                	mv	a0,s0
    1022:	4422                	lw	s0,8(sp)
    1024:	0141                	addi	sp,sp,16
    1026:	8082                	ret

00001028 <ssd1306_pkt_send.isra.0>:
}

/*
 * packet send for blocking polled operation via spi
 */
uint8_t ssd1306_pkt_send(const uint8_t *data, int sz, uint8_t cmd)
    1028:	400017b7          	lui	a5,0x40001
    102c:	0ac78793          	addi	a5,a5,172 # 400010ac <_eusrstack+0x1fffe0ac>
    1030:	40000713          	li	a4,1024
{
	if(cmd)
    1034:	ca1d                	beqz	a2,106a <ssd1306_pkt_send.isra.0+0x42>
	{
		funDigitalWrite( SSD1306_DC_PIN, FUN_LOW );
    1036:	c398                	sw	a4,0(a5)
	else
	{
		funDigitalWrite( SSD1306_DC_PIN, FUN_HIGH );
	}

	funDigitalWrite( SSD1306_CS_PIN, FUN_LOW );
    1038:	4741                	li	a4,16
    103a:	c398                	sw	a4,0(a5)
			funDigitalWrite( SSD1306_SCK_PIN, FUN_HIGH );      ADD_N_NOPS(1)
			c<<=1;
		} while( --i );

#elif defined( CH5xx )
		while(! (R8_SPI0_INT_FLAG & RB_SPI_FREE) );
    103c:	400047b7          	lui	a5,0x40004
		R8_SPI0_BUFFER = *data++;
    1040:	40004737          	lui	a4,0x40004
    1044:	95aa                	add	a1,a1,a0
		while(! (R8_SPI0_INT_FLAG & RB_SPI_FREE) );
    1046:	0799                	addi	a5,a5,6 # 40004006 <_eusrstack+0x20001006>
		R8_SPI0_BUFFER = *data++;
    1048:	0711                	addi	a4,a4,4 # 40004004 <_eusrstack+0x20001004>
	while(sz--)
    104a:	02b51563          	bne	a0,a1,1074 <ssd1306_pkt_send.isra.0+0x4c>
	
	// wait for not busy before exiting
#if SSD1306_SOFT_SPI
	// Nothing needed here.
#elif defined( CH5xx )
	while( !(R8_SPI0_INT_FLAG & RB_SPI_FREE)) { }
    104e:	40004737          	lui	a4,0x40004
    1052:	0719                	addi	a4,a4,6 # 40004006 <_eusrstack+0x20001006>
    1054:	00074783          	lbu	a5,0(a4)
    1058:	0407f793          	andi	a5,a5,64
    105c:	dfe5                	beqz	a5,1054 <ssd1306_pkt_send.isra.0+0x2c>
#else
	while(SPI1->STATR & SPI_STATR_BSY) { }
#endif

	funDigitalWrite( SSD1306_CS_PIN, FUN_HIGH );
    105e:	400017b7          	lui	a5,0x40001
    1062:	4741                	li	a4,16
    1064:	0ae7ac23          	sw	a4,184(a5) # 400010b8 <_eusrstack+0x1fffe0b8>
	
	// we're happy
	return 0;
}
    1068:	8082                	ret
		funDigitalWrite( SSD1306_DC_PIN, FUN_HIGH );
    106a:	400016b7          	lui	a3,0x40001
    106e:	0ae6ac23          	sw	a4,184(a3) # 400010b8 <_eusrstack+0x1fffe0b8>
    1072:	b7d9                	j	1038 <ssd1306_pkt_send.isra.0+0x10>
		while(! (R8_SPI0_INT_FLAG & RB_SPI_FREE) );
    1074:	0007c683          	lbu	a3,0(a5)
    1078:	0406f693          	andi	a3,a3,64
    107c:	dee5                	beqz	a3,1074 <ssd1306_pkt_send.isra.0+0x4c>
		R8_SPI0_BUFFER = *data++;
    107e:	00054683          	lbu	a3,0(a0)
    1082:	0505                	addi	a0,a0,1
    1084:	00d70023          	sb	a3,0(a4)
    1088:	b7c9                	j	104a <ssd1306_pkt_send.isra.0+0x22>

0000108a <ssd1306_cmd.isra.0>:
uint8_t ssd1306_cmd(uint8_t cmd)
    108a:	1101                	addi	sp,sp,-32
	return ssd1306_pkt_send(&cmd, 1, 1);
    108c:	4605                	li	a2,1
uint8_t ssd1306_cmd(uint8_t cmd)
    108e:	00a107a3          	sb	a0,15(sp)
	return ssd1306_pkt_send(&cmd, 1, 1);
    1092:	85b2                	mv	a1,a2
    1094:	00f10513          	addi	a0,sp,15
uint8_t ssd1306_cmd(uint8_t cmd)
    1098:	ce06                	sw	ra,28(sp)
	return ssd1306_pkt_send(&cmd, 1, 1);
    109a:	3779                	jal	1028 <ssd1306_pkt_send.isra.0>
}
    109c:	40f2                	lw	ra,28(sp)
    109e:	6105                	addi	sp,sp,32
    10a0:	8082                	ret

000010a2 <ssd1306_refresh>:
{
    10a2:	1141                	addi	sp,sp,-16
    10a4:	c422                	sw	s0,8(sp)
	ssd1306_cmd(SSD1306_MEMORYMODE); // vertical addressing mode.
    10a6:	02000513          	li	a0,32
    10aa:	20002437          	lui	s0,0x20002
{
    10ae:	c226                	sw	s1,4(sp)
    10b0:	c04a                	sw	s2,0(sp)
    10b2:	c606                	sw	ra,12(sp)
    10b4:	87840413          	addi	s0,s0,-1928 # 20001878 <ssd1306_buffer>
	ssd1306_cmd(SSD1306_MEMORYMODE); // vertical addressing mode.
    10b8:	3fc9                	jal	108a <ssd1306_cmd.isra.0>
	for(i=0;i<SSD1306_H/8;i++)
    10ba:	4481                	li	s1,0
		ssd1306_cmd( 0x10 | (0>>4) );
    10bc:	4941                	li	s2,16
		ssd1306_cmd(0xb0 | i);
    10be:	fb04e513          	ori	a0,s1,-80
    10c2:	0ff57513          	zext.b	a0,a0
    10c6:	37d1                	jal	108a <ssd1306_cmd.isra.0>
		ssd1306_cmd( 0x00 | (0&0xf) ); 
    10c8:	4501                	li	a0,0
    10ca:	37c1                	jal	108a <ssd1306_cmd.isra.0>
		ssd1306_cmd( 0x10 | (0>>4) );
    10cc:	4541                	li	a0,16
    10ce:	3f75                	jal	108a <ssd1306_cmd.isra.0>
	return ssd1306_pkt_send(data, sz, 0);
    10d0:	8522                	mv	a0,s0
    10d2:	4601                	li	a2,0
    10d4:	02000593          	li	a1,32
    10d8:	3f81                	jal	1028 <ssd1306_pkt_send.isra.0>
    10da:	02000593          	li	a1,32
    10de:	00b40533          	add	a0,s0,a1
    10e2:	4601                	li	a2,0
    10e4:	3791                	jal	1028 <ssd1306_pkt_send.isra.0>
    10e6:	04040513          	addi	a0,s0,64
    10ea:	4601                	li	a2,0
    10ec:	02000593          	li	a1,32
	for(i=0;i<SSD1306_H/8;i++)
    10f0:	0485                	addi	s1,s1,1
	return ssd1306_pkt_send(data, sz, 0);
    10f2:	3f1d                	jal	1028 <ssd1306_pkt_send.isra.0>
	for(i=0;i<SSD1306_H/8;i++)
    10f4:	04c2                	slli	s1,s1,0x10
	return ssd1306_pkt_send(data, sz, 0);
    10f6:	06040513          	addi	a0,s0,96
    10fa:	4601                	li	a2,0
    10fc:	02000593          	li	a1,32
	for(i=0;i<SSD1306_H/8;i++)
    1100:	80c1                	srli	s1,s1,0x10
	return ssd1306_pkt_send(data, sz, 0);
    1102:	371d                	jal	1028 <ssd1306_pkt_send.isra.0>
	for(i=0;i<SSD1306_H/8;i++)
    1104:	08040413          	addi	s0,s0,128
    1108:	fb249be3          	bne	s1,s2,10be <ssd1306_refresh+0x1c>
}
    110c:	40b2                	lw	ra,12(sp)
    110e:	4422                	lw	s0,8(sp)
    1110:	4492                	lw	s1,4(sp)
    1112:	4902                	lw	s2,0(sp)
    1114:	0141                	addi	sp,sp,16
    1116:	8082                	ret

00001118 <funPinMode.constprop.0>:
		*(&R32_PA_PD_DRV + OFFSET_FOR_GPIOB(pin)) |= (pin & ~PB);
    1118:	400017b7          	lui	a5,0x40001
    111c:	0b478793          	addi	a5,a5,180 # 400010b4 <_eusrstack+0x1fffe0b4>
    1120:	4398                	lw	a4,0(a5)
    1122:	8f49                	or	a4,a4,a0
    1124:	c398                	sw	a4,0(a5)
		*(&R32_PA_DIR + OFFSET_FOR_GPIOB(pin))    |= (pin & ~PB);
    1126:	400017b7          	lui	a5,0x40001
    112a:	0a078793          	addi	a5,a5,160 # 400010a0 <_eusrstack+0x1fffe0a0>
    112e:	4398                	lw	a4,0(a5)
    1130:	8d59                	or	a0,a0,a4
    1132:	c388                	sw	a0,0(a5)
}
    1134:	8082                	ret

00001136 <handle_reset>:
	asm volatile( "\n\
    1136:	20000197          	auipc	gp,0x20000
    113a:	c6e18193          	addi	gp,gp,-914 # 20000da4 <__global_pointer$>
    113e:	20002117          	auipc	sp,0x20002
    1142:	ec210113          	addi	sp,sp,-318 # 20003000 <_eusrstack>
	asm volatile(
    1146:	65c18513          	addi	a0,gp,1628 # 20001400 <frameentropy>
    114a:	20001597          	auipc	a1,0x20001
    114e:	f2e58593          	addi	a1,a1,-210 # 20002078 <_ebss>
    1152:	00b57763          	bgeu	a0,a1,1160 <handle_reset+0x2a>
    1156:	00052023          	sw	zero,0(a0)
    115a:	0511                	addi	a0,a0,4
    115c:	feb56de3          	bltu	a0,a1,1156 <handle_reset+0x20>
    1160:	09000513          	li	a0,144
    1164:	1ffff597          	auipc	a1,0x1ffff
    1168:	e9c58593          	addi	a1,a1,-356 # 20000000 <EventRelease>
    116c:	20000617          	auipc	a2,0x20000
    1170:	83860613          	addi	a2,a2,-1992 # 200009a4 <_data_vma>
    1174:	00c5fa63          	bgeu	a1,a2,1188 <handle_reset+0x52>
    1178:	00052283          	lw	t0,0(a0)
    117c:	0055a023          	sw	t0,0(a1)
    1180:	0511                	addi	a0,a0,4
    1182:	0591                	addi	a1,a1,4
    1184:	fec5eae3          	bltu	a1,a2,1178 <handle_reset+0x42>
    1188:	00004517          	auipc	a0,0x4
    118c:	fa050513          	addi	a0,a0,-96 # 5128 <_data_lma>
    1190:	c0018593          	addi	a1,gp,-1024 # 200009a4 <_data_vma>
    1194:	65818613          	addi	a2,gp,1624 # 200013fc <_edata>
    1198:	00c58a63          	beq	a1,a2,11ac <handle_reset+0x76>
    119c:	00052283          	lw	t0,0(a0)
    11a0:	0055a023          	sw	t0,0(a1)
    11a4:	0511                	addi	a0,a0,4
    11a6:	0591                	addi	a1,a1,4
    11a8:	fec5eae3          	bltu	a1,a2,119c <handle_reset+0x66>
	asm volatile(
    11ac:	00000793          	li	a5,0
    11b0:	42fd                	li	t0,31
    11b2:	bc029073          	csrw	0xbc0,t0
    11b6:	6289                	lui	t0,0x2
    11b8:	88828293          	addi	t0,t0,-1912 # 1888 <ModeMenuLoop+0x74>
    11bc:	3002a073          	csrs	mstatus,t0
    11c0:	fffff297          	auipc	t0,0xfffff
    11c4:	e4028293          	addi	t0,t0,-448 # 0 <InterruptVector>
    11c8:	0032e293          	ori	t0,t0,3
    11cc:	30529073          	csrw	mtvec,t0
	SysTick->CTLR = 5;
    11d0:	e000f7b7          	lui	a5,0xe000f
    11d4:	4715                	li	a4,5
    11d6:	c398                	sw	a4,0(a5)
	asm volatile(
    11d8:	6789                	lui	a5,0x2
    11da:	e3278793          	addi	a5,a5,-462 # 1e32 <main>
    11de:	34179073          	csrw	mepc,a5
    11e2:	30200073          	mret

000011e6 <ADC1_2_IRQHandler>:
	asm volatile( "1: j 1b" );
    11e6:	a001                	j	11e6 <ADC1_2_IRQHandler>

000011e8 <strlen>:
	for (; *s; s++);
    11e8:	87aa                	mv	a5,a0
    11ea:	0007c703          	lbu	a4,0(a5)
    11ee:	e701                	bnez	a4,11f6 <strlen+0xe>
}
    11f0:	40a78533          	sub	a0,a5,a0
    11f4:	8082                	ret
	for (; *s; s++);
    11f6:	0785                	addi	a5,a5,1
    11f8:	bfcd                	j	11ea <strlen+0x2>

000011fa <mini_vpprintf>:
{
    11fa:	7175                	addi	sp,sp,-144
    11fc:	c522                	sw	s0,136(sp)
    11fe:	d2e6                	sw	s9,100(sp)
    1200:	c706                	sw	ra,140(sp)
    1202:	c326                	sw	s1,132(sp)
    1204:	c14a                	sw	s2,128(sp)
    1206:	dece                	sw	s3,124(sp)
    1208:	dcd2                	sw	s4,120(sp)
    120a:	dad6                	sw	s5,116(sp)
    120c:	d8da                	sw	s6,112(sp)
    120e:	d6de                	sw	s7,108(sp)
    1210:	d4e2                	sw	s8,104(sp)
    1212:	d0ea                	sw	s10,96(sp)
    1214:	ceee                	sw	s11,92(sp)
    1216:	8432                	mv	s0,a2
    1218:	8cb6                	mv	s9,a3
	if(puts == (void*)0) {
    121a:	e139                	bnez	a0,1260 <mini_vpprintf+0x66>
		puts = _puts; buf = (void*)0;
    121c:	6485                	lui	s1,0x1
    121e:	4901                	li	s2,0
    1220:	abe48493          	addi	s1,s1,-1346 # abe <_puts>
	int n = 0;
    1224:	4981                	li	s3,0
		if (ch!='%') {
    1226:	02500a93          	li	s5,37
			if (ch == '0') pad_char = '0';
    122a:	03000a13          	li	s4,48
			while (ch >= '0' && ch <= '9') {
    122e:	4b25                	li	s6,9
				pad_to = pad_to * 10 + (ch - '0');
    1230:	4ba9                	li	s7,10
	while ((ch=*(fmt++))) {
    1232:	00044783          	lbu	a5,0(s0)
    1236:	00140d13          	addi	s10,s0,1
    123a:	00f10fa3          	sb	a5,31(sp)
    123e:	e785                	bnez	a5,1266 <mini_vpprintf+0x6c>
}
    1240:	40ba                	lw	ra,140(sp)
    1242:	442a                	lw	s0,136(sp)
    1244:	449a                	lw	s1,132(sp)
    1246:	490a                	lw	s2,128(sp)
    1248:	5a66                	lw	s4,120(sp)
    124a:	5ad6                	lw	s5,116(sp)
    124c:	5b46                	lw	s6,112(sp)
    124e:	5bb6                	lw	s7,108(sp)
    1250:	5c26                	lw	s8,104(sp)
    1252:	5c96                	lw	s9,100(sp)
    1254:	5d06                	lw	s10,96(sp)
    1256:	4df6                	lw	s11,92(sp)
    1258:	854e                	mv	a0,s3
    125a:	59f6                	lw	s3,124(sp)
    125c:	6149                	addi	sp,sp,144
    125e:	8082                	ret
    1260:	84aa                	mv	s1,a0
    1262:	892e                	mv	s2,a1
    1264:	b7c1                	j	1224 <mini_vpprintf+0x2a>
		if (ch!='%') {
    1266:	01578c63          	beq	a5,s5,127e <mini_vpprintf+0x84>
			len = puts(&ch, len, buf);
    126a:	864a                	mv	a2,s2
    126c:	4585                	li	a1,1
    126e:	01f10513          	addi	a0,sp,31
    1272:	9482                	jalr	s1
    1274:	8c66                	mv	s8,s9
	while ((ch=*(fmt++))) {
    1276:	846a                	mv	s0,s10
		n = n + len;
    1278:	99aa                	add	s3,s3,a0
    127a:	8ce2                	mv	s9,s8
    127c:	bf5d                	j	1232 <mini_vpprintf+0x38>
			ch=*(fmt++);
    127e:	00144703          	lbu	a4,1(s0)
    1282:	00240793          	addi	a5,s0,2
			if (ch == '0') pad_char = '0';
    1286:	8d52                	mv	s10,s4
			ch=*(fmt++);
    1288:	00e10fa3          	sb	a4,31(sp)
			if (ch == '0') pad_char = '0';
    128c:	07471e63          	bne	a4,s4,1308 <mini_vpprintf+0x10e>
				ch=*(fmt++);
    1290:	843e                	mv	s0,a5
    1292:	4681                	li	a3,0
    1294:	4781                	li	a5,0
    1296:	a801                	j	12a6 <mini_vpprintf+0xac>
				pad_to = pad_to * 10 + (ch - '0');
    1298:	037787b3          	mul	a5,a5,s7
				ch=*(fmt++);
    129c:	00044703          	lbu	a4,0(s0)
    12a0:	0405                	addi	s0,s0,1
    12a2:	4685                	li	a3,1
				pad_to = pad_to * 10 + (ch - '0');
    12a4:	97b2                	add	a5,a5,a2
			while (ch >= '0' && ch <= '9') {
    12a6:	fd070613          	addi	a2,a4,-48
    12aa:	0ff67593          	zext.b	a1,a2
    12ae:	febb75e3          	bgeu	s6,a1,1298 <mini_vpprintf+0x9e>
    12b2:	c299                	beqz	a3,12b8 <mini_vpprintf+0xbe>
    12b4:	00e10fa3          	sb	a4,31(sp)
			if(pad_to > (signed int) sizeof(bf)) {
    12b8:	46e1                	li	a3,24
    12ba:	8dbe                	mv	s11,a5
    12bc:	00f6d363          	bge	a3,a5,12c2 <mini_vpprintf+0xc8>
    12c0:	8db6                	mv	s11,a3
			if (ch == 'l') {
    12c2:	06c00693          	li	a3,108
			char l = 0;
    12c6:	4601                	li	a2,0
			if (ch == 'l') {
    12c8:	00d71863          	bne	a4,a3,12d8 <mini_vpprintf+0xde>
				ch=*(fmt++);
    12cc:	00044703          	lbu	a4,0(s0)
				l = 1;
    12d0:	4605                	li	a2,1
				ch=*(fmt++);
    12d2:	0405                	addi	s0,s0,1
    12d4:	00e10fa3          	sb	a4,31(sp)
			switch (ch) {
    12d8:	01f14683          	lbu	a3,31(sp)
    12dc:	06400713          	li	a4,100
    12e0:	06e68363          	beq	a3,a4,1346 <mini_vpprintf+0x14c>
    12e4:	02d76563          	bltu	a4,a3,130e <mini_vpprintf+0x114>
    12e8:	05800793          	li	a5,88
    12ec:	0af68063          	beq	a3,a5,138c <mini_vpprintf+0x192>
    12f0:	06300793          	li	a5,99
    12f4:	0af68e63          	beq	a3,a5,13b0 <mini_vpprintf+0x1b6>
    12f8:	d6a1                	beqz	a3,1240 <mini_vpprintf+0x46>
					len = puts(&ch, len, buf);
    12fa:	864a                	mv	a2,s2
    12fc:	4585                	li	a1,1
    12fe:	01f10513          	addi	a0,sp,31
    1302:	9482                	jalr	s1
					break;
    1304:	8c66                	mv	s8,s9
    1306:	bf8d                	j	1278 <mini_vpprintf+0x7e>
			char pad_char = ' ';
    1308:	02000d13          	li	s10,32
    130c:	b751                	j	1290 <mini_vpprintf+0x96>
			switch (ch) {
    130e:	07500713          	li	a4,117
    1312:	02e68a63          	beq	a3,a4,1346 <mini_vpprintf+0x14c>
    1316:	07800713          	li	a4,120
    131a:	06e68963          	beq	a3,a4,138c <mini_vpprintf+0x192>
    131e:	07300713          	li	a4,115
    1322:	fce69ce3          	bne	a3,a4,12fa <mini_vpprintf+0x100>
					ptr = va_arg(va, char*);
    1326:	004c8c13          	addi	s8,s9,4
    132a:	000cac83          	lw	s9,0(s9)
    132e:	c63e                	sw	a5,12(sp)
					len = mini_strlen(ptr);
    1330:	8566                	mv	a0,s9
    1332:	3d5d                	jal	11e8 <strlen>
					if (pad_to > 0) {
    1334:	47b2                	lw	a5,12(sp)
					len = mini_strlen(ptr);
    1336:	85aa                	mv	a1,a0
					if (pad_to > 0) {
    1338:	08f05963          	blez	a5,13ca <mini_vpprintf+0x1d0>
						len = mini_pad(ptr, len, pad_char, pad_to, bf);
    133c:	1838                	addi	a4,sp,56
    133e:	86ee                	mv	a3,s11
    1340:	866a                	mv	a2,s10
    1342:	8566                	mv	a0,s9
    1344:	a025                	j	136c <mini_vpprintf+0x172>
						len = mini_itoa(va_arg(va, unsigned long), 10, 0, (ch=='u'), bf2);
    1346:	004c8c13          	addi	s8,s9,4
					if(l) {
    134a:	ca05                	beqz	a2,137a <mini_vpprintf+0x180>
						len = mini_itoa(va_arg(va, unsigned long), 10, 0, (ch=='u'), bf2);
    134c:	f8b68693          	addi	a3,a3,-117
    1350:	1018                	addi	a4,sp,32
    1352:	0016b693          	seqz	a3,a3
    1356:	000ca503          	lw	a0,0(s9)
    135a:	4601                	li	a2,0
    135c:	45a9                	li	a1,10
    135e:	fb4ff0ef          	jal	b12 <mini_itoa.part.0>
					len = mini_pad(bf2, len, pad_char, pad_to, bf);
    1362:	1838                	addi	a4,sp,56
    1364:	86ee                	mv	a3,s11
    1366:	866a                	mv	a2,s10
    1368:	85aa                	mv	a1,a0
					len = mini_pad(bf2, len, pad_char, pad_to, bf);
    136a:	1008                	addi	a0,sp,32
    136c:	ec8ff0ef          	jal	a34 <mini_pad>
    1370:	85aa                	mv	a1,a0
					len = puts(bf, len, buf);
    1372:	864a                	mv	a2,s2
    1374:	1828                	addi	a0,sp,56
    1376:	9482                	jalr	s1
					break;
    1378:	b701                	j	1278 <mini_vpprintf+0x7e>
						if(ch == 'u') {
    137a:	07500793          	li	a5,117
    137e:	1018                	addi	a4,sp,32
    1380:	00f69463          	bne	a3,a5,1388 <mini_vpprintf+0x18e>
	if (radix > 16)
    1384:	4685                	li	a3,1
    1386:	bfc1                	j	1356 <mini_vpprintf+0x15c>
    1388:	4681                	li	a3,0
    138a:	b7f1                	j	1356 <mini_vpprintf+0x15c>
					if(l) {
    138c:	000ca503          	lw	a0,0(s9)
						len = mini_itoa(va_arg(va, unsigned long), 16, (ch=='X'), 1, bf2);
    1390:	fa868613          	addi	a2,a3,-88
    1394:	1018                	addi	a4,sp,32
    1396:	4685                	li	a3,1
    1398:	00163613          	seqz	a2,a2
    139c:	45c1                	li	a1,16
    139e:	f74ff0ef          	jal	b12 <mini_itoa.part.0>
						len = mini_itoa(va_arg(va, unsigned long), 10, 0, (ch=='u'), bf2);
    13a2:	004c8c13          	addi	s8,s9,4
	if (radix > 16)
    13a6:	85aa                	mv	a1,a0
					len = mini_pad(bf2, len, pad_char, pad_to, bf);
    13a8:	1838                	addi	a4,sp,56
    13aa:	86ee                	mv	a3,s11
    13ac:	866a                	mv	a2,s10
    13ae:	bf75                	j	136a <mini_vpprintf+0x170>
					ch = (char)(va_arg(va, int));
    13b0:	000ca783          	lw	a5,0(s9)
    13b4:	004c8c13          	addi	s8,s9,4
					len = mini_pad(&ch, 1, pad_char, pad_to, bf);
    13b8:	1838                	addi	a4,sp,56
					ch = (char)(va_arg(va, int));
    13ba:	00f10fa3          	sb	a5,31(sp)
					len = mini_pad(&ch, 1, pad_char, pad_to, bf);
    13be:	86ee                	mv	a3,s11
    13c0:	866a                	mv	a2,s10
    13c2:	4585                	li	a1,1
    13c4:	01f10513          	addi	a0,sp,31
    13c8:	b755                	j	136c <mini_vpprintf+0x172>
						len = puts(ptr, len, buf);
    13ca:	864a                	mv	a2,s2
    13cc:	8566                	mv	a0,s9
    13ce:	b765                	j	1376 <mini_vpprintf+0x17c>

000013d0 <printf>:
{
    13d0:	7139                	addi	sp,sp,-64
    13d2:	d432                	sw	a2,40(sp)
	int ret_status = mini_vpprintf(__puts_uart, 0, format, args);
    13d4:	862a                	mv	a2,a0
    13d6:	6505                	lui	a0,0x1
{
    13d8:	d22e                	sw	a1,36(sp)
    13da:	d636                	sw	a3,44(sp)
	int ret_status = mini_vpprintf(__puts_uart, 0, format, args);
    13dc:	4581                	li	a1,0
	va_start( args, format );
    13de:	1054                	addi	a3,sp,36
	int ret_status = mini_vpprintf(__puts_uart, 0, format, args);
    13e0:	01450513          	addi	a0,a0,20 # 1014 <__puts_uart>
{
    13e4:	ce06                	sw	ra,28(sp)
    13e6:	d83a                	sw	a4,48(sp)
    13e8:	da3e                	sw	a5,52(sp)
    13ea:	dc42                	sw	a6,56(sp)
    13ec:	de46                	sw	a7,60(sp)
	va_start( args, format );
    13ee:	c636                	sw	a3,12(sp)
	int ret_status = mini_vpprintf(__puts_uart, 0, format, args);
    13f0:	3529                	jal	11fa <mini_vpprintf>
}
    13f2:	40f2                	lw	ra,28(sp)
    13f4:	6121                	addi	sp,sp,64
    13f6:	8082                	ret

000013f8 <mini_vsnprintf>:
{
    13f8:	1101                	addi	sp,sp,-32
    13fa:	ce06                	sw	ra,28(sp)
    13fc:	cc22                	sw	s0,24(sp)
	b.buffer = buffer;
    13fe:	c22a                	sw	a0,4(sp)
	b.pbuffer = buffer;
    1400:	c42a                	sw	a0,8(sp)
	b.buffer_len = buffer_len;
    1402:	c62e                	sw	a1,12(sp)
	if(buffer_len == 0) buffer = (void*) 0;
    1404:	c585                	beqz	a1,142c <mini_vsnprintf+0x34>
	int n = mini_vpprintf(_puts, (buffer != (void*)0)?&b:(void*)0, fmt, va);
    1406:	00a037b3          	snez	a5,a0
    140a:	004c                	addi	a1,sp,4
    140c:	40f007b3          	neg	a5,a5
    1410:	842a                	mv	s0,a0
    1412:	8dfd                	and	a1,a1,a5
    1414:	6505                	lui	a0,0x1
    1416:	abe50513          	addi	a0,a0,-1346 # abe <_puts>
    141a:	33c5                	jal	11fa <mini_vpprintf>
	if(buffer == (void*) 0) {
    141c:	c401                	beqz	s0,1424 <mini_vsnprintf+0x2c>
	return b.pbuffer - b.buffer;
    141e:	4522                	lw	a0,8(sp)
    1420:	4792                	lw	a5,4(sp)
    1422:	8d1d                	sub	a0,a0,a5
}
    1424:	40f2                	lw	ra,28(sp)
    1426:	4462                	lw	s0,24(sp)
    1428:	6105                	addi	sp,sp,32
    142a:	8082                	ret
    142c:	4401                	li	s0,0
	int n = mini_vpprintf(_puts, (buffer != (void*)0)?&b:(void*)0, fmt, va);
    142e:	4581                	li	a1,0
    1430:	b7d5                	j	1414 <mini_vsnprintf+0x1c>

00001432 <sprintf>:
{
    1432:	7139                	addi	sp,sp,-64
    1434:	d432                	sw	a2,40(sp)
	int ret = mini_vsnprintf( buffer, INT_MAX, format, args );
    1436:	862e                	mv	a2,a1
    1438:	800005b7          	lui	a1,0x80000
{
    143c:	d636                	sw	a3,44(sp)
	int ret = mini_vsnprintf( buffer, INT_MAX, format, args );
    143e:	15fd                	addi	a1,a1,-1 # 7fffffff <_eusrstack+0x5fffcfff>
	va_start( args, format );
    1440:	1034                	addi	a3,sp,40
{
    1442:	ce06                	sw	ra,28(sp)
    1444:	d83a                	sw	a4,48(sp)
    1446:	da3e                	sw	a5,52(sp)
    1448:	dc42                	sw	a6,56(sp)
    144a:	de46                	sw	a7,60(sp)
	va_start( args, format );
    144c:	c636                	sw	a3,12(sp)
	int ret = mini_vsnprintf( buffer, INT_MAX, format, args );
    144e:	376d                	jal	13f8 <mini_vsnprintf>
}
    1450:	40f2                	lw	ra,28(sp)
    1452:	6121                	addi	sp,sp,64
    1454:	8082                	ret

00001456 <memset>:
WEAK void *memset(void *dest, int c, size_t n) { unsigned char *s = dest; for (; n; n--, s++) *s = c; return dest; }
    1456:	962a                	add	a2,a2,a0
    1458:	87aa                	mv	a5,a0
    145a:	00c79363          	bne	a5,a2,1460 <memset+0xa>
    145e:	8082                	ret
    1460:	00b78023          	sb	a1,0(a5)
    1464:	0785                	addi	a5,a5,1
    1466:	bfd5                	j	145a <memset+0x4>

00001468 <ssd1306_setbuf.constprop.0>:
	memset(ssd1306_buffer, color ? 0xFF : 0x00, sizeof(ssd1306_buffer));
    1468:	6605                	lui	a2,0x1
    146a:	20002537          	lui	a0,0x20002
    146e:	80060613          	addi	a2,a2,-2048 # 800 <_einit+0x770>
    1472:	4581                	li	a1,0
    1474:	87850513          	addi	a0,a0,-1928 # 20001878 <ssd1306_buffer>
    1478:	bff9                	j	1456 <memset>

0000147a <ModePufferLoop>:

void ModePufferLoop( void * mode, uint32_t deltaTime, uint32_t * pressures, uint32_t clickedMask, uint32_t lastClickMask )
{
    147a:	7155                	addi	sp,sp,-208
    147c:	d366                	sw	s9,164(sp)
	ModePuffer * m = (ModePuffer *)mode;
	uint32_t newClickedMask = (clickedMask & ( clickedMask ^ lastClickMask ) );
    147e:	fff74c93          	not	s9,a4
{
    1482:	c5a2                	sw	s0,200(sp)
    1484:	c3a6                	sw	s1,196(sp)
    1486:	842a                	mv	s0,a0
    1488:	d562                	sw	s8,168(sp)
    148a:	c786                	sw	ra,204(sp)
    148c:	c1ca                	sw	s2,192(sp)
    148e:	df4e                	sw	s3,188(sp)
    1490:	dd52                	sw	s4,184(sp)
    1492:	db56                	sw	s5,180(sp)
    1494:	d95a                	sw	s6,176(sp)
    1496:	d75e                	sw	s7,172(sp)
    1498:	d16a                	sw	s10,160(sp)
    149a:	cf6e                	sw	s11,156(sp)
    149c:	84ae                	mv	s1,a1
	uint32_t newClickedMask = (clickedMask & ( clickedMask ^ lastClickMask ) );
    149e:	00dcfcb3          	and	s9,s9,a3
    ssd1306_setbuf(0x00); // Clear screen
    14a2:	37d9                	jal	1468 <ssd1306_setbuf.constprop.0>

	if(m->curPoke < m->popNum){
    14a4:	01a41703          	lh	a4,26(s0)
    14a8:	01841c03          	lh	s8,24(s0)
    14ac:	c63a                	sw	a4,12(sp)
    14ae:	07875363          	bge	a4,s8,1514 <ModePufferLoop+0x9a>
		//Only update frame information if the game is still playing
		m->curTime += deltaTime;
    14b2:	01042d83          	lw	s11,16(s0)
    14b6:	485c                	lw	a5,20(s0)
		m->frameNum += (int)(m->curTime / TimePerTick);
    14b8:	6615                	lui	a2,0x5
		m->curTime += deltaTime;
    14ba:	9da6                	add	s11,s11,s1
    14bc:	009db4b3          	sltu	s1,s11,s1
    14c0:	94be                	add	s1,s1,a5
		m->frameNum += (int)(m->curTime / TimePerTick);
    14c2:	e2060613          	addi	a2,a2,-480 # 4e20 <fontdata+0x674>
    14c6:	4681                	li	a3,0
    14c8:	856e                	mv	a0,s11
    14ca:	85a6                	mv	a1,s1
    14cc:	034010ef          	jal	2500 <__divdi3>
    14d0:	00845d03          	lhu	s10,8(s0)
		m->curTime = m->curTime % TimePerTick;
    14d4:	6615                	lui	a2,0x5
    14d6:	e2060613          	addi	a2,a2,-480 # 4e20 <fontdata+0x674>
		m->frameNum += (int)(m->curTime / TimePerTick);
    14da:	9d2a                	add	s10,s10,a0
		m->curTime = m->curTime % TimePerTick;
    14dc:	4681                	li	a3,0
    14de:	856e                	mv	a0,s11
    14e0:	85a6                	mv	a1,s1
    14e2:	400010ef          	jal	28e2 <__moddi3>
		m->frameNum += (int)(m->curTime / TimePerTick);
    14e6:	0d42                	slli	s10,s10,0x10
    14e8:	410d5d13          	srai	s10,s10,0x10
		m->curPoke += (int)(m->frameNum / TicksPerLoop);
    14ec:	02000793          	li	a5,32
    14f0:	02fd47b3          	div	a5,s10,a5
    14f4:	4732                	lw	a4,12(sp)
		m->curTime = m->curTime % TimePerTick;
    14f6:	c808                	sw	a0,16(s0)
    14f8:	c84c                	sw	a1,20(s0)
		m->curPoke += (int)(m->frameNum / TicksPerLoop);
    14fa:	97ba                	add	a5,a5,a4
    14fc:	00f41d23          	sh	a5,26(s0)
		m->frameNum = m->frameNum % TicksPerLoop;
    1500:	01fd7793          	andi	a5,s10,31
    1504:	000d5663          	bgez	s10,1510 <ModePufferLoop+0x96>
    1508:	17fd                	addi	a5,a5,-1
    150a:	fe07e793          	ori	a5,a5,-32
    150e:	0785                	addi	a5,a5,1
    1510:	00f41423          	sh	a5,8(s0)
	}
    

	if(newClickedMask & 2){
    1514:	002cf793          	andi	a5,s9,2
    1518:	c791                	beqz	a5,1524 <ModePufferLoop+0xaa>
		//Pressed the button
		m->curPoke++;
    151a:	01a45783          	lhu	a5,26(s0)
    151e:	0785                	addi	a5,a5,1
    1520:	00f41d23          	sh	a5,26(s0)
	}
	if(newClickedMask & 4 && m->curPoke >= m->popNum){
    1524:	004cfc93          	andi	s9,s9,4
    1528:	060c8463          	beqz	s9,1590 <ModePufferLoop+0x116>
    152c:	01a41783          	lh	a5,26(s0)
    1530:	0787c063          	blt	a5,s8,1590 <ModePufferLoop+0x116>
		//Reset the game
		m->curPoke = 0;
		m->frameNum = 0;
		m->curTime = 0;
    1534:	4781                	li	a5,0
    1536:	4801                	li	a6,0
    1538:	c81c                	sw	a5,16(s0)
		m->curPoke = 0;
    153a:	00041d23          	sh	zero,26(s0)
		m->frameNum = 0;
    153e:	00041423          	sh	zero,8(s0)
		m->curTime = 0;
    1542:	01042a23          	sw	a6,20(s0)
	#endif

	// If RANDOM_STRENGTH is level 2, generate a 32-bit output, using 32 random
	// bits from the LFSR
	#if RANDOM_STRENGTH == 2
	rand_out = _rand_gen_32b();
    1546:	85fff0ef          	jal	da4 <_rand_gen_32b>
	return ((rand() % 35) + 4);
    154a:	02300793          	li	a5,35
    154e:	02f57c33          	remu	s8,a0,a5
		m->popNum = getNewPufferPokes();
    1552:	0c11                	addi	s8,s8,4
    1554:	01841c23          	sh	s8,24(s0)
		ssd1306_drawstr_sz(0,20,Instructions1,1,1);
		ssd1306_drawstr_sz(0,32,Instructions2,1,1);
		ssd1306_drawstr_sz(0,44,Instructions3,1,1);
		ssd1306_drawstr_sz(0,73,NewGameText1,1,1);
		ssd1306_drawstr_sz(0,85,NewGameText2,1,1);
	}else if(m->curPoke >= m->popNum){
    1558:	01a41d03          	lh	s10,26(s0)
    155c:	0b8d4f63          	blt	s10,s8,161a <ModePufferLoop+0x1a0>
		ssd1306_drawstr_sz(25,40,GameOverText,1,1);
    1560:	6611                	lui	a2,0x4
    1562:	4685                	li	a3,1
    1564:	69860613          	addi	a2,a2,1688 # 4698 <__clzsi2+0xd6>
    1568:	02800593          	li	a1,40
    156c:	4565                	li	a0,25
    156e:	38d1                	jal	e42 <ssd1306_drawstr_sz.constprop.0>
		ssd1306_drawstr_sz(0,60,NewGameText1,1,1);
    1570:	6611                	lui	a2,0x4
    1572:	4685                	li	a3,1
    1574:	67c60613          	addi	a2,a2,1660 # 467c <__clzsi2+0xba>
    1578:	03c00593          	li	a1,60
    157c:	4501                	li	a0,0
    157e:	8c5ff0ef          	jal	e42 <ssd1306_drawstr_sz.constprop.0>
		ssd1306_drawstr_sz(0,72,NewGameText2,1,1);
    1582:	6611                	lui	a2,0x4
    1584:	4685                	li	a3,1
    1586:	68860613          	addi	a2,a2,1672 # 4688 <__clzsi2+0xc6>
    158a:	04800593          	li	a1,72
    158e:	a0a5                	j	15f6 <ModePufferLoop+0x17c>
    if(m->popNum == 0){
    1590:	fc0c14e3          	bnez	s8,1558 <ModePufferLoop+0xde>
		ssd1306_drawstr_sz(5,0,TitleText,1,1);
    1594:	6611                	lui	a2,0x4
    1596:	4685                	li	a3,1
    1598:	63060613          	addi	a2,a2,1584 # 4630 <__clzsi2+0x6e>
    159c:	4581                	li	a1,0
    159e:	4515                	li	a0,5
    15a0:	8a3ff0ef          	jal	e42 <ssd1306_drawstr_sz.constprop.0>
		ssd1306_drawstr_sz(0,20,Instructions1,1,1);
    15a4:	6611                	lui	a2,0x4
    15a6:	4685                	li	a3,1
    15a8:	64460613          	addi	a2,a2,1604 # 4644 <__clzsi2+0x82>
    15ac:	45d1                	li	a1,20
    15ae:	4501                	li	a0,0
    15b0:	893ff0ef          	jal	e42 <ssd1306_drawstr_sz.constprop.0>
		ssd1306_drawstr_sz(0,32,Instructions2,1,1);
    15b4:	6611                	lui	a2,0x4
    15b6:	4685                	li	a3,1
    15b8:	65860613          	addi	a2,a2,1624 # 4658 <__clzsi2+0x96>
    15bc:	02000593          	li	a1,32
    15c0:	4501                	li	a0,0
    15c2:	881ff0ef          	jal	e42 <ssd1306_drawstr_sz.constprop.0>
		ssd1306_drawstr_sz(0,44,Instructions3,1,1);
    15c6:	6611                	lui	a2,0x4
    15c8:	4685                	li	a3,1
    15ca:	66860613          	addi	a2,a2,1640 # 4668 <__clzsi2+0xa6>
    15ce:	02c00593          	li	a1,44
    15d2:	4501                	li	a0,0
    15d4:	86fff0ef          	jal	e42 <ssd1306_drawstr_sz.constprop.0>
		ssd1306_drawstr_sz(0,73,NewGameText1,1,1);
    15d8:	6611                	lui	a2,0x4
    15da:	4685                	li	a3,1
    15dc:	67c60613          	addi	a2,a2,1660 # 467c <__clzsi2+0xba>
    15e0:	04900593          	li	a1,73
    15e4:	4501                	li	a0,0
    15e6:	85dff0ef          	jal	e42 <ssd1306_drawstr_sz.constprop.0>
		ssd1306_drawstr_sz(0,85,NewGameText2,1,1);
    15ea:	6611                	lui	a2,0x4
    15ec:	4685                	li	a3,1
    15ee:	68860613          	addi	a2,a2,1672 # 4688 <__clzsi2+0xc6>
    15f2:	05500593          	li	a1,85
		//sprintf( st, "%d", m->frameNum );
		//ssd1306_drawstr_sz(0, 60, st, 1, 2 );
		sprintf( st, "%d", m->curPoke );
		ssd1306_drawstr_sz(0, 80, st, 1, 2 );
		sprintf( st, "%d", m->popNum );
		ssd1306_drawstr_sz(0, 100, st, 1, 2 );
    15f6:	4501                	li	a0,0
    15f8:	84bff0ef          	jal	e42 <ssd1306_drawstr_sz.constprop.0>
	}
    
	
	
	ssd1306_refresh();
}
    15fc:	442e                	lw	s0,200(sp)
    15fe:	40be                	lw	ra,204(sp)
    1600:	449e                	lw	s1,196(sp)
    1602:	490e                	lw	s2,192(sp)
    1604:	59fa                	lw	s3,188(sp)
    1606:	5a6a                	lw	s4,184(sp)
    1608:	5ada                	lw	s5,180(sp)
    160a:	5b4a                	lw	s6,176(sp)
    160c:	5bba                	lw	s7,172(sp)
    160e:	5c2a                	lw	s8,168(sp)
    1610:	5c9a                	lw	s9,164(sp)
    1612:	5d0a                	lw	s10,160(sp)
    1614:	4dfa                	lw	s11,156(sp)
    1616:	6169                	addi	sp,sp,208
	ssd1306_refresh();
    1618:	b469                	j	10a2 <ssd1306_refresh>
		int radialSteps = (m->frameNum * SinStepsPerFrame) % TicksPerLoop;
    161a:	00841703          	lh	a4,8(s0)
    161e:	4795                	li	a5,5
    1620:	02f70733          	mul	a4,a4,a5
    1624:	01f77793          	andi	a5,a4,31
    1628:	00075663          	bgez	a4,1634 <ModePufferLoop+0x1ba>
    162c:	17fd                	addi	a5,a5,-1
    162e:	fe07e793          	ori	a5,a5,-32
    1632:	0785                	addi	a5,a5,1
		int sinDegrees = radialSteps * 360 / TicksPerLoop;
    1634:	16800713          	li	a4,360
    1638:	02e787b3          	mul	a5,a5,a4
    163c:	02000693          	li	a3,32
    1640:	02d7c4b3          	div	s1,a5,a3
		int cosDegrees = (sinDegrees + 90) % 360;
    1644:	05a48c93          	addi	s9,s1,90
    1648:	02ececb3          	rem	s9,s9,a4
    164c:	f58ff0ef          	jal	da4 <_rand_gen_32b>
	return (rand() % 7);
    1650:	479d                	li	a5,7
    1652:	02f57533          	remu	a0,a0,a5
		float displayedPokes = (m->curPoke + getRandExtraPokes())/m->popNum;
    1656:	956a                	add	a0,a0,s10
    1658:	03854533          	div	a0,a0,s8
    165c:	68d020ef          	jal	44e8 <__floatsisf>
		if(  displayedPokes  >  0.9f  ){
    1660:	c341a583          	lw	a1,-972(gp) # 200009d8 <_rand_lfsr+0x30>
		float displayedPokes = (m->curPoke + getRandExtraPokes())/m->popNum;
    1664:	8c2a                	mv	s8,a0
		if(  displayedPokes  >  0.9f  ){
    1666:	5e9020ef          	jal	444e <__gesf2>
    166a:	0aa05463          	blez	a0,1712 <ModePufferLoop+0x298>
			RenderBSprite(&fish2, 34+29*badSin(sinDegrees)-imageOffset,34+29*badSin(cosDegrees)-imageOffset);
    166e:	8526                	mv	a0,s1
    1670:	f72ff0ef          	jal	de2 <badSin>
    1674:	89aa                	mv	s3,a0
    1676:	8566                	mv	a0,s9
    1678:	892e                	mv	s2,a1
    167a:	f68ff0ef          	jal	de2 <badSin>
    167e:	c0c1a603          	lw	a2,-1012(gp) # 200009b0 <_rand_lfsr+0x8>
    1682:	c101a683          	lw	a3,-1008(gp) # 200009b4 <_rand_lfsr+0xc>
    1686:	6e1010ef          	jal	3566 <__muldf3>
    168a:	c141a603          	lw	a2,-1004(gp) # 200009b8 <_rand_lfsr+0x10>
    168e:	c181a683          	lw	a3,-1000(gp) # 200009bc <_rand_lfsr+0x14>
    1692:	60e010ef          	jal	2ca0 <__adddf3>
    1696:	c1c1a603          	lw	a2,-996(gp) # 200009c0 <_rand_lfsr+0x18>
    169a:	c201a683          	lw	a3,-992(gp) # 200009c4 <_rand_lfsr+0x1c>
    169e:	41e020ef          	jal	3abc <__subdf3>
    16a2:	4d1020ef          	jal	4372 <__fixdfsi>
    16a6:	c0c1a603          	lw	a2,-1012(gp) # 200009b0 <_rand_lfsr+0x8>
    16aa:	c101a683          	lw	a3,-1008(gp) # 200009b4 <_rand_lfsr+0xc>
    16ae:	84aa                	mv	s1,a0
    16b0:	85ca                	mv	a1,s2
    16b2:	854e                	mv	a0,s3
    16b4:	6b3010ef          	jal	3566 <__muldf3>
    16b8:	c141a603          	lw	a2,-1004(gp) # 200009b8 <_rand_lfsr+0x10>
    16bc:	c181a683          	lw	a3,-1000(gp) # 200009bc <_rand_lfsr+0x14>
    16c0:	5e0010ef          	jal	2ca0 <__adddf3>
    16c4:	c1c1a603          	lw	a2,-996(gp) # 200009c0 <_rand_lfsr+0x18>
    16c8:	c201a683          	lw	a3,-992(gp) # 200009c4 <_rand_lfsr+0x1c>
    16cc:	3f0020ef          	jal	3abc <__subdf3>
    16d0:	4a3020ef          	jal	4372 <__fixdfsi>
    16d4:	85aa                	mv	a1,a0
    16d6:	8626                	mv	a2,s1
    16d8:	0ec18513          	addi	a0,gp,236 # 20000e90 <fish2>
			RenderBSprite(&fish0, 34-imageOffset,34-imageOffset);
    16dc:	df0ff0ef          	jal	ccc <RenderBSprite>
		sprintf( st, "%d", m->curPoke );
    16e0:	01a41603          	lh	a2,26(s0)
    16e4:	6491                	lui	s1,0x4
    16e6:	6e848593          	addi	a1,s1,1768 # 46e8 <__clzsi2+0x126>
    16ea:	0808                	addi	a0,sp,16
    16ec:	3399                	jal	1432 <sprintf>
		ssd1306_drawstr_sz(0, 80, st, 1, 2 );
    16ee:	4689                	li	a3,2
    16f0:	0810                	addi	a2,sp,16
    16f2:	05000593          	li	a1,80
    16f6:	4501                	li	a0,0
    16f8:	f4aff0ef          	jal	e42 <ssd1306_drawstr_sz.constprop.0>
		sprintf( st, "%d", m->popNum );
    16fc:	01841603          	lh	a2,24(s0)
    1700:	6e848593          	addi	a1,s1,1768
    1704:	0808                	addi	a0,sp,16
    1706:	3335                	jal	1432 <sprintf>
		ssd1306_drawstr_sz(0, 100, st, 1, 2 );
    1708:	4689                	li	a3,2
    170a:	0810                	addi	a2,sp,16
    170c:	06400593          	li	a1,100
    1710:	b5dd                	j	15f6 <ModePufferLoop+0x17c>
		}else if(  displayedPokes  >  0.65f  ){
    1712:	c381a583          	lw	a1,-968(gp) # 200009dc <_rand_lfsr+0x34>
    1716:	8562                	mv	a0,s8
    1718:	537020ef          	jal	444e <__gesf2>
    171c:	06a05a63          	blez	a0,1790 <ModePufferLoop+0x316>
			RenderBSprite(&fish1, 34+17*badSin(sinDegrees)-imageOffset,34+17*badSin(cosDegrees)-imageOffset);
    1720:	8526                	mv	a0,s1
    1722:	ec0ff0ef          	jal	de2 <badSin>
    1726:	89aa                	mv	s3,a0
    1728:	8566                	mv	a0,s9
    172a:	892e                	mv	s2,a1
    172c:	eb6ff0ef          	jal	de2 <badSin>
    1730:	c241a603          	lw	a2,-988(gp) # 200009c8 <_rand_lfsr+0x20>
    1734:	c281a683          	lw	a3,-984(gp) # 200009cc <_rand_lfsr+0x24>
    1738:	62f010ef          	jal	3566 <__muldf3>
    173c:	c141a603          	lw	a2,-1004(gp) # 200009b8 <_rand_lfsr+0x10>
    1740:	c181a683          	lw	a3,-1000(gp) # 200009bc <_rand_lfsr+0x14>
    1744:	55c010ef          	jal	2ca0 <__adddf3>
    1748:	c1c1a603          	lw	a2,-996(gp) # 200009c0 <_rand_lfsr+0x18>
    174c:	c201a683          	lw	a3,-992(gp) # 200009c4 <_rand_lfsr+0x1c>
    1750:	36c020ef          	jal	3abc <__subdf3>
    1754:	41f020ef          	jal	4372 <__fixdfsi>
    1758:	c241a603          	lw	a2,-988(gp) # 200009c8 <_rand_lfsr+0x20>
    175c:	c281a683          	lw	a3,-984(gp) # 200009cc <_rand_lfsr+0x24>
    1760:	84aa                	mv	s1,a0
    1762:	85ca                	mv	a1,s2
    1764:	854e                	mv	a0,s3
    1766:	601010ef          	jal	3566 <__muldf3>
    176a:	c141a603          	lw	a2,-1004(gp) # 200009b8 <_rand_lfsr+0x10>
    176e:	c181a683          	lw	a3,-1000(gp) # 200009bc <_rand_lfsr+0x14>
    1772:	52e010ef          	jal	2ca0 <__adddf3>
    1776:	c1c1a603          	lw	a2,-996(gp) # 200009c0 <_rand_lfsr+0x18>
    177a:	c201a683          	lw	a3,-992(gp) # 200009c4 <_rand_lfsr+0x1c>
    177e:	33e020ef          	jal	3abc <__subdf3>
    1782:	3f1020ef          	jal	4372 <__fixdfsi>
    1786:	85aa                	mv	a1,a0
    1788:	8626                	mv	a2,s1
    178a:	e2818513          	addi	a0,gp,-472 # 20000bcc <fish1>
    178e:	b7b9                	j	16dc <ModePufferLoop+0x262>
		}else if(  displayedPokes  >  0.3f  ){
    1790:	c3c1a583          	lw	a1,-964(gp) # 200009e0 <_rand_lfsr+0x38>
    1794:	8562                	mv	a0,s8
    1796:	4b9020ef          	jal	444e <__gesf2>
    179a:	06a05a63          	blez	a0,180e <ModePufferLoop+0x394>
			RenderBSprite(&fish0, 34+5*badSin(sinDegrees)-imageOffset,34+5*badSin(cosDegrees)-imageOffset);
    179e:	8526                	mv	a0,s1
    17a0:	e42ff0ef          	jal	de2 <badSin>
    17a4:	8aaa                	mv	s5,a0
    17a6:	8566                	mv	a0,s9
    17a8:	8a2e                	mv	s4,a1
    17aa:	e38ff0ef          	jal	de2 <badSin>
    17ae:	c2c1a603          	lw	a2,-980(gp) # 200009d0 <_rand_lfsr+0x28>
    17b2:	c301a683          	lw	a3,-976(gp) # 200009d4 <_rand_lfsr+0x2c>
    17b6:	5b1010ef          	jal	3566 <__muldf3>
    17ba:	c141a603          	lw	a2,-1004(gp) # 200009b8 <_rand_lfsr+0x10>
    17be:	c181a683          	lw	a3,-1000(gp) # 200009bc <_rand_lfsr+0x14>
    17c2:	4de010ef          	jal	2ca0 <__adddf3>
    17c6:	c1c1a603          	lw	a2,-996(gp) # 200009c0 <_rand_lfsr+0x18>
    17ca:	c201a683          	lw	a3,-992(gp) # 200009c4 <_rand_lfsr+0x1c>
    17ce:	2ee020ef          	jal	3abc <__subdf3>
    17d2:	3a1020ef          	jal	4372 <__fixdfsi>
    17d6:	c2c1a603          	lw	a2,-980(gp) # 200009d0 <_rand_lfsr+0x28>
    17da:	c301a683          	lw	a3,-976(gp) # 200009d4 <_rand_lfsr+0x2c>
    17de:	84aa                	mv	s1,a0
    17e0:	85d2                	mv	a1,s4
    17e2:	8556                	mv	a0,s5
    17e4:	583010ef          	jal	3566 <__muldf3>
    17e8:	c141a603          	lw	a2,-1004(gp) # 200009b8 <_rand_lfsr+0x10>
    17ec:	c181a683          	lw	a3,-1000(gp) # 200009bc <_rand_lfsr+0x14>
    17f0:	4b0010ef          	jal	2ca0 <__adddf3>
    17f4:	c1c1a603          	lw	a2,-996(gp) # 200009c0 <_rand_lfsr+0x18>
    17f8:	c201a683          	lw	a3,-992(gp) # 200009c4 <_rand_lfsr+0x1c>
    17fc:	2c0020ef          	jal	3abc <__subdf3>
    1800:	373020ef          	jal	4372 <__fixdfsi>
    1804:	85aa                	mv	a1,a0
    1806:	8626                	mv	a2,s1
			RenderBSprite(&fish0, 34-imageOffset,34-imageOffset);
    1808:	c4418513          	addi	a0,gp,-956 # 200009e8 <fish0>
    180c:	bdc1                	j	16dc <ModePufferLoop+0x262>
    180e:	4659                	li	a2,22
    1810:	85b2                	mv	a1,a2
    1812:	bfdd                	j	1808 <ModePufferLoop+0x38e>

00001814 <ModeMenuLoop>:

	int selectedEntry;
} ModeMenu;

void ModeMenuLoop( void * mode, uint32_t deltaTime, uint32_t * pressures, uint32_t clickedMask, uint32_t lastClickMask )
{
    1814:	7135                	addi	sp,sp,-160
    1816:	cd22                	sw	s0,152(sp)
    1818:	843a                	mv	s0,a4
    181a:	c94a                	sw	s2,144(sp)
    181c:	c74e                	sw	s3,140(sp)
    181e:	8936                	mv	s2,a3
	ModeMenu *m  = (ModeMenu*)mode;
	ssd1306_setbuf(0x00); // Clear screen

	uint32_t newClickedMask = (clickedMask & ( clickedMask ^ lastClickMask ) );
    1820:	fff44413          	not	s0,s0
    1824:	6995                	lui	s3,0x5
{
    1826:	cb26                	sw	s1,148(sp)
    1828:	c552                	sw	s4,136(sp)
    182a:	c356                	sw	s5,132(sp)
    182c:	c15a                	sw	s6,128(sp)
    182e:	cf06                	sw	ra,156(sp)
    1830:	84aa                	mv	s1,a0
	uint32_t newClickedMask = (clickedMask & ( clickedMask ^ lastClickMask ) );
    1832:	01247433          	and	s0,s0,s2
	ssd1306_setbuf(0x00); // Clear screen
    1836:	390d                	jal	1468 <ssd1306_setbuf.constprop.0>

	int i;
	for( i = 1; i < sizeof(gameModes)/sizeof(gameModes[0]); i++ )
    1838:	ff098993          	addi	s3,s3,-16 # 4ff0 <gameModes>
    183c:	4905                	li	s2,1
	{
		// Draw stuff to screen
		char st[128];
		sprintf( st, "%c%s", m->selectedEntry == i ? '>':' ', gameModes[i] );
    183e:	6b11                	lui	s6,0x4
		ssd1306_drawstr_sz(0, 20*(i-1), st, 1, 2 );
    1840:	4ad1                	li	s5,20
	for( i = 1; i < sizeof(gameModes)/sizeof(gameModes[0]); i++ )
    1842:	4a11                	li	s4,4
		sprintf( st, "%c%s", m->selectedEntry == i ? '>':' ', gameModes[i] );
    1844:	449c                	lw	a5,8(s1)
    1846:	02000613          	li	a2,32
    184a:	01279463          	bne	a5,s2,1852 <ModeMenuLoop+0x3e>
    184e:	03e00613          	li	a2,62
    1852:	0049a683          	lw	a3,4(s3)
    1856:	6a4b0593          	addi	a1,s6,1700 # 46a4 <__clzsi2+0xe2>
    185a:	850a                	mv	a0,sp
    185c:	3ed9                	jal	1432 <sprintf>
		ssd1306_drawstr_sz(0, 20*(i-1), st, 1, 2 );
    185e:	035905b3          	mul	a1,s2,s5
    1862:	4689                	li	a3,2
    1864:	860a                	mv	a2,sp
    1866:	4501                	li	a0,0
	for( i = 1; i < sizeof(gameModes)/sizeof(gameModes[0]); i++ )
    1868:	0905                	addi	s2,s2,1
    186a:	0991                	addi	s3,s3,4
		ssd1306_drawstr_sz(0, 20*(i-1), st, 1, 2 );
    186c:	15b1                	addi	a1,a1,-20
    186e:	0fc5f593          	andi	a1,a1,252
    1872:	dd0ff0ef          	jal	e42 <ssd1306_drawstr_sz.constprop.0>
	for( i = 1; i < sizeof(gameModes)/sizeof(gameModes[0]); i++ )
    1876:	fd4917e3          	bne	s2,s4,1844 <ModeMenuLoop+0x30>
	}

	int ent = m->selectedEntry;
	if( newClickedMask & 1 )
    187a:	00147713          	andi	a4,s0,1
	int ent = m->selectedEntry;
    187e:	449c                	lw	a5,8(s1)
	if( newClickedMask & 1 )
    1880:	c709                	beqz	a4,188a <ModeMenuLoop+0x76>
	{
		ent--;
    1882:	17fd                	addi	a5,a5,-1
		if( ent < 1 ) ent = 1;
    1884:	00f04363          	bgtz	a5,188a <ModeMenuLoop+0x76>
    1888:	4785                	li	a5,1
	}
	if( newClickedMask & 4 )
    188a:	00447713          	andi	a4,s0,4
    188e:	c711                	beqz	a4,189a <ModeMenuLoop+0x86>
	{
		ent++;
    1890:	0785                	addi	a5,a5,1
		if( ent >= sizeof(gameModes)/sizeof(gameModes[0]) ) ent = sizeof(gameModes)/sizeof(gameModes[0])-1;
    1892:	470d                	li	a4,3
    1894:	00f77363          	bgeu	a4,a5,189a <ModeMenuLoop+0x86>
    1898:	87ba                	mv	a5,a4
	}
	m->selectedEntry = ent;
    189a:	c49c                	sw	a5,8(s1)

	if( newClickedMask & 2 )
    189c:	8809                	andi	s0,s0,2
    189e:	c01d                	beqz	s0,18c4 <ModeMenuLoop+0xb0>
} gameUnion;

// Add it to this list.
void SelectMode( int modeNumber )
{
	switch(modeNumber)
    18a0:	4709                	li	a4,2
    18a2:	67418413          	addi	s0,gp,1652 # 20001418 <gameUnion>
    18a6:	04e78963          	beq	a5,a4,18f8 <ModeMenuLoop+0xe4>
    18aa:	470d                	li	a4,3
    18ac:	0ce78d63          	beq	a5,a4,1986 <ModeMenuLoop+0x172>
    18b0:	4705                	li	a4,1
    18b2:	02e78463          	beq	a5,a4,18da <ModeMenuLoop+0xc6>
	ssd1306_refresh();
}

void EnterMenuMode( ModeMenu * m )
{
	memset( m, 0, sizeof( *m ) );
    18b6:	6601ac23          	sw	zero,1656(gp) # 2000141c <gameUnion+0x4>
	m->Update = ModeMenuLoop;
    18ba:	6789                	lui	a5,0x2
    18bc:	81478793          	addi	a5,a5,-2028 # 1814 <ModeMenuLoop>
    18c0:	c01c                	sw	a5,0(s0)
	m->selectedEntry = 1;
    18c2:	c418                	sw	a4,8(s0)
}
    18c4:	446a                	lw	s0,152(sp)
    18c6:	40fa                	lw	ra,156(sp)
    18c8:	44da                	lw	s1,148(sp)
    18ca:	494a                	lw	s2,144(sp)
    18cc:	49ba                	lw	s3,140(sp)
    18ce:	4a2a                	lw	s4,136(sp)
    18d0:	4a9a                	lw	s5,132(sp)
    18d2:	4b0a                	lw	s6,128(sp)
    18d4:	610d                	addi	sp,sp,160
	ssd1306_refresh();
    18d6:	fccff06f          	j	10a2 <ssd1306_refresh>
}


void EnterExampleMode( ModeExample * m )
{
	memset( m, 0, sizeof(*m) );
    18da:	67c18793          	addi	a5,gp,1660 # 20001420 <gameUnion+0x8>
    18de:	0007a023          	sw	zero,0(a5)
    18e2:	0007a223          	sw	zero,4(a5)
	m->Update = ModeExampleLoop;
    18e6:	6789                	lui	a5,0x2
    18e8:	bde78793          	addi	a5,a5,-1058 # 1bde <ModeExampleLoop>
    18ec:	c01c                	sw	a5,0(s0)
	m->WirelessRX = ModeExampleWirelessRX;
    18ee:	6789                	lui	a5,0x2
    18f0:	a8278793          	addi	a5,a5,-1406 # 1a82 <ModeExampleWirelessRX>

void EnterPufferMode( ModePuffer * m )
{
	memset( m, 0, sizeof(*m) );
	m->Update = ModePufferLoop;
	m->WirelessRX = ModePufferWirelessRX;
    18f4:	c05c                	sw	a5,4(s0)

    m->popNum = 0;
    m->curPoke = 0;
	m->curTime = 0;
	m->frameNum = 0;
}
    18f6:	b7f9                	j	18c4 <ModeMenuLoop+0xb0>


void EnterTestMode( ModeTest * m )
{
	memset( m, 0, sizeof(*m) );
	m->Update = ModeTestLoop;
    18f8:	6789                	lui	a5,0x2
    18fa:	4f478793          	addi	a5,a5,1268 # 24f4 <ModeTestLoop>
    18fe:	c01c                	sw	a5,0(s0)
	m->WirelessRX = ModeTestWirelessRX;
    1900:	6789                	lui	a5,0x2
    1902:	a2078793          	addi	a5,a5,-1504 # 1a20 <ModeTestWirelessRX>
    1906:	c05c                	sw	a5,4(s0)
	for( i = 0; i < 128; i++ )
    1908:	08000493          	li	s1,128
	ssd1306_setbuf(0x00); // Clear screen
    190c:	3eb1                	jal	1468 <ssd1306_setbuf.constprop.0>
	for( i = 0; i < 128; i++ )
    190e:	4401                	li	s0,0
		ssd1306_drawPixel(i, i, 1);
    1910:	85a2                	mv	a1,s0
    1912:	8522                	mv	a0,s0
    1914:	4605                	li	a2,1
	for( i = 0; i < 128; i++ )
    1916:	0405                	addi	s0,s0,1
		ssd1306_drawPixel(i, i, 1);
    1918:	a8aff0ef          	jal	ba2 <ssd1306_drawPixel>
	for( i = 0; i < 128; i++ )
    191c:	fe941ae3          	bne	s0,s1,1910 <ModeMenuLoop+0xfc>
	ssd1306_refresh();
    1920:	f82ff0ef          	jal	10a2 <ssd1306_refresh>
	ssd1306_cmd(0xa8);
    1924:	0a800513          	li	a0,168
    1928:	f62ff0ef          	jal	108a <ssd1306_cmd.isra.0>
	ssd1306_cmd(0x0 );
    192c:	4501                	li	a0,0
    192e:	f5cff0ef          	jal	108a <ssd1306_cmd.isra.0>
	ssd1306_cmd(0xD5);
    1932:	0d500513          	li	a0,213
    1936:	f54ff0ef          	jal	108a <ssd1306_cmd.isra.0>
	ssd1306_cmd(0xf0);
    193a:	0f000513          	li	a0,240
    193e:	f4cff0ef          	jal	108a <ssd1306_cmd.isra.0>
	ssd1306_cmd(0xc8);
    1942:	0c800513          	li	a0,200
    1946:	f44ff0ef          	jal	108a <ssd1306_cmd.isra.0>
	ssd1306_cmd(0xa1);
    194a:	0a100513          	li	a0,161
    194e:	f3cff0ef          	jal	108a <ssd1306_cmd.isra.0>
	ssd1306_cmd(0xD9);
    1952:	0d900513          	li	a0,217
    1956:	f34ff0ef          	jal	108a <ssd1306_cmd.isra.0>
	ssd1306_cmd(0x11);
    195a:	4545                	li	a0,17
    195c:	f2eff0ef          	jal	108a <ssd1306_cmd.isra.0>
	R8_SPI0_CLOCK_DIV = 3; 
    1960:	40004737          	lui	a4,0x40004
    1964:	468d                	li	a3,3
    1966:	00d701a3          	sb	a3,3(a4) # 40004003 <_eusrstack+0x20001003>
	R8_SPI0_CTRL_MOD &= ~RB_SPI_FIFO_DIR;
    196a:	00074783          	lbu	a5,0(a4)
    196e:	0ef7f793          	andi	a5,a5,239
    1972:	00f70023          	sb	a5,0(a4)
	R8_SPI0_CTRL_CFG |= RB_SPI_AUTO_IF | RB_SPI_DMA_ENABLE;
    1976:	87ba                	mv	a5,a4
    1978:	00174703          	lbu	a4,1(a4)
    197c:	01176713          	ori	a4,a4,17
    1980:	00e780a3          	sb	a4,1(a5)
}
    1984:	b781                	j	18c4 <ModeMenuLoop+0xb0>
	memset( m, 0, sizeof(*m) );
    1986:	4661                	li	a2,24
    1988:	4581                	li	a1,0
    198a:	67c18513          	addi	a0,gp,1660 # 20001420 <gameUnion+0x8>
    198e:	34e1                	jal	1456 <memset>
	m->Update = ModePufferLoop;
    1990:	6785                	lui	a5,0x1
    1992:	47a78793          	addi	a5,a5,1146 # 147a <ModePufferLoop>
    1996:	c01c                	sw	a5,0(s0)
	m->WirelessRX = ModePufferWirelessRX;
    1998:	6785                	lui	a5,0x1
    199a:	de078793          	addi	a5,a5,-544 # de0 <ModePufferWirelessRX>
    199e:	bf99                	j	18f4 <ModeMenuLoop+0xe0>

000019a0 <memcpy>:
	for (; n; n--) *d++ = *s++;
    19a0:	4781                	li	a5,0
    19a2:	00f61363          	bne	a2,a5,19a8 <memcpy+0x8>
}
    19a6:	8082                	ret
	for (; n; n--) *d++ = *s++;
    19a8:	00f58733          	add	a4,a1,a5
    19ac:	00074683          	lbu	a3,0(a4)
    19b0:	00f50733          	add	a4,a0,a5
    19b4:	0785                	addi	a5,a5,1
    19b6:	00d70023          	sb	a3,0(a4)
    19ba:	b7e5                	j	19a2 <memcpy+0x2>

000019bc <putchar>:
	if( ( *DMDATA0 & 0xc0 ) == 0xc0 ) return 0;
    19bc:	e00007b7          	lui	a5,0xe0000
    19c0:	34078793          	addi	a5,a5,832 # e0000340 <_eusrstack+0xbfffd340>
    19c4:	4398                	lw	a4,0(a5)
    19c6:	0c000693          	li	a3,192
    19ca:	0c077713          	andi	a4,a4,192
    19ce:	04d70763          	beq	a4,a3,1a1c <putchar+0x60>
{
    19d2:	1141                	addi	sp,sp,-16
    19d4:	00100737          	lui	a4,0x100
    19d8:	c422                	sw	s0,8(sp)
    19da:	c606                	sw	ra,12(sp)
    19dc:	842a                	mv	s0,a0
    19de:	0705                	addi	a4,a4,1 # 100001 <_data_lma+0xfaed9>
	while( ( lastdmd = (*DMDATA0) ) & 0x80 )
    19e0:	4394                	lw	a3,0(a5)
    19e2:	0806f613          	andi	a2,a3,128
    19e6:	e205                	bnez	a2,1a06 <putchar+0x4a>
	if( lastdmd ) internal_handle_input( (uint32_t*)DMDATA0 );
    19e8:	c299                	beqz	a3,19ee <putchar+0x32>
    19ea:	d34ff0ef          	jal	f1e <internal_handle_input.constprop.0>
	*DMDATA0 = 0x85 | ((const char)c<<8);
    19ee:	00841793          	slli	a5,s0,0x8
    19f2:	07c2                	slli	a5,a5,0x10
    19f4:	83c1                	srli	a5,a5,0x10
    19f6:	0857e793          	ori	a5,a5,133
    19fa:	e0000737          	lui	a4,0xe0000
    19fe:	34f72023          	sw	a5,832(a4) # e0000340 <_eusrstack+0xbfffd340>
    1a02:	4505                	li	a0,1
    1a04:	a801                	j	1a14 <putchar+0x58>
		if( timeout-- == 0 )
    1a06:	177d                	addi	a4,a4,-1
    1a08:	ff61                	bnez	a4,19e0 <putchar+0x24>
			*DMDATA0 |= 0xc0;
    1a0a:	4398                	lw	a4,0(a5)
	if( ( *DMDATA0 & 0xc0 ) == 0xc0 ) return 0;
    1a0c:	4501                	li	a0,0
			*DMDATA0 |= 0xc0;
    1a0e:	0c076713          	ori	a4,a4,192
    1a12:	c398                	sw	a4,0(a5)
}
    1a14:	40b2                	lw	ra,12(sp)
    1a16:	4422                	lw	s0,8(sp)
    1a18:	0141                	addi	sp,sp,16
    1a1a:	8082                	ret
	if( ( *DMDATA0 & 0xc0 ) == 0xc0 ) return 0;
    1a1c:	4501                	li	a0,0
}
    1a1e:	8082                	ret

00001a20 <ModeTestWirelessRX>:
{
    1a20:	7179                	addi	sp,sp,-48
    1a22:	d422                	sw	s0,40(sp)
    1a24:	d226                	sw	s1,36(sp)
    1a26:	d04a                	sw	s2,32(sp)
    1a28:	ce4e                	sw	s3,28(sp)
    1a2a:	d606                	sw	ra,44(sp)
	printf( "%02x:%02x:%02x:%02x:%02x:%02x:%3d %d:", txmac[0], txmac[1], txmac[2], txmac[3], txmac[4], txmac[5], rssi, messageLength );
    1a2c:	c032                	sw	a2,0(sp)
    1a2e:	00554803          	lbu	a6,5(a0)
    1a32:	00454783          	lbu	a5,4(a0)
    1a36:	00354703          	lbu	a4,3(a0)
    1a3a:	88b6                	mv	a7,a3
{
    1a3c:	892e                	mv	s2,a1
	printf( "%02x:%02x:%02x:%02x:%02x:%02x:%3d %d:", txmac[0], txmac[1], txmac[2], txmac[3], txmac[4], txmac[5], rssi, messageLength );
    1a3e:	00254683          	lbu	a3,2(a0)
    1a42:	00054583          	lbu	a1,0(a0)
{
    1a46:	8432                	mv	s0,a2
	printf( "%02x:%02x:%02x:%02x:%02x:%02x:%3d %d:", txmac[0], txmac[1], txmac[2], txmac[3], txmac[4], txmac[5], rssi, messageLength );
    1a48:	00154603          	lbu	a2,1(a0)
    1a4c:	6511                	lui	a0,0x4
    1a4e:	6ac50513          	addi	a0,a0,1708 # 46ac <__clzsi2+0xea>
    1a52:	97fff0ef          	jal	13d0 <printf>
	for( i = 0; i < messageLength; i++ )
    1a56:	4481                	li	s1,0
		printf( "%02x ", message[i] );
    1a58:	6991                	lui	s3,0x4
	for( i = 0; i < messageLength; i++ )
    1a5a:	0084ca63          	blt	s1,s0,1a6e <ModeTestWirelessRX+0x4e>
}
    1a5e:	5422                	lw	s0,40(sp)
    1a60:	50b2                	lw	ra,44(sp)
    1a62:	5492                	lw	s1,36(sp)
    1a64:	5902                	lw	s2,32(sp)
    1a66:	49f2                	lw	s3,28(sp)
	printf( "\n" );
    1a68:	4529                	li	a0,10
}
    1a6a:	6145                	addi	sp,sp,48
	printf( "\n" );
    1a6c:	bf81                	j	19bc <putchar>
		printf( "%02x ", message[i] );
    1a6e:	009907b3          	add	a5,s2,s1
    1a72:	0007c583          	lbu	a1,0(a5)
    1a76:	6d498513          	addi	a0,s3,1748 # 46d4 <__clzsi2+0x112>
	for( i = 0; i < messageLength; i++ )
    1a7a:	0485                	addi	s1,s1,1
		printf( "%02x ", message[i] );
    1a7c:	955ff0ef          	jal	13d0 <printf>
	for( i = 0; i < messageLength; i++ )
    1a80:	bfe9                	j	1a5a <ModeTestWirelessRX+0x3a>

00001a82 <ModeExampleWirelessRX>:
void ModeExampleWirelessRX( uint8_t * txmac, uint8_t * message, int messageLength, int rssi )
    1a82:	bf79                	j	1a20 <ModeTestWirelessRX>

00001a84 <SystemInit>:
	}
	else
	{
		if((sc & RB_CLK_SYS_MOD) == 0x40) // PLL div
		{
			SYS_SAFE_ACCESS(
    1a84:	400017b7          	lui	a5,0x40001
    1a88:	04078793          	addi	a5,a5,64 # 40001040 <_eusrstack+0x1fffe040>
    1a8c:	05700593          	li	a1,87
    1a90:	00b78023          	sb	a1,0(a5)
    1a94:	fa800613          	li	a2,-88
    1a98:	00c78023          	sb	a2,0(a5)
    1a9c:	0001                	nop
    1a9e:	0001                	nop
    1aa0:	40001737          	lui	a4,0x40001
    1aa4:	00a74683          	lbu	a3,10(a4) # 4000100a <_eusrstack+0x1fffe00a>
    1aa8:	0106e693          	ori	a3,a3,16
    1aac:	00d70523          	sb	a3,10(a4)
    1ab0:	40002737          	lui	a4,0x40002
    1ab4:	4685                	li	a3,1
    1ab6:	80d703a3          	sb	a3,-2041(a4) # 40001807 <_eusrstack+0x1fffe807>
    1aba:	80574683          	lbu	a3,-2043(a4)
    1abe:	0106e693          	ori	a3,a3,16
    1ac2:	80d702a3          	sb	a3,-2043(a4)
    1ac6:	00078023          	sb	zero,0(a5)
    1aca:	0001                	nop
    1acc:	0001                	nop
		{
			SYS_SAFE_ACCESS(
				R8_FLASH_CFG = (sc & 0x1F) ? 0x02 : 0x07;
			);
		}
		SYS_SAFE_ACCESS(
    1ace:	00b78023          	sb	a1,0(a5)
    1ad2:	00c78023          	sb	a2,0(a5)
    1ad6:	0001                	nop
    1ad8:	0001                	nop
    1ada:	40001737          	lui	a4,0x40001
    1ade:	04a00693          	li	a3,74
    1ae2:	00d70423          	sb	a3,8(a4) # 40001008 <_eusrstack+0x1fffe008>
    1ae6:	00078023          	sb	zero,0(a5)
    1aea:	0001                	nop
    1aec:	0001                	nop
	*DMDATA1 = 0x00;
    1aee:	e00007b7          	lui	a5,0xe0000
    1af2:	3407a223          	sw	zero,836(a5) # e0000344 <_eusrstack+0xbfffd344>
	*DMDATA0 = 0x80;
    1af6:	08000713          	li	a4,128
    1afa:	34e7a023          	sw	a4,832(a5)
	SetupDebugPrintf();
#endif
#if defined(FUNCONF_SUPPORT_CONSTRUCTORS) && FUNCONF_SUPPORT_CONSTRUCTORS
	CallConstructors();
#endif
}
    1afe:	8082                	ret

00001b00 <ISLER_BEANBOY_INTERNAL_CALLBACK>:
{
    1b00:	1141                	addi	sp,sp,-16
    1b02:	c606                	sw	ra,12(sp)
    1b04:	c422                	sw	s0,8(sp)
	if( !iSLERCRCOK() ) return;
    1b06:	1fffe097          	auipc	ra,0x1fffe
    1b0a:	52e080e7          	jalr	1326(ra) # 20000034 <iSLERCRCOK>
    1b0e:	cd05                	beqz	a0,1b46 <ISLER_BEANBOY_INTERNAL_CALLBACK+0x46>



void ISLERCallback( uint8_t * txmac, uint8_t * message, int messageLength, int rssi )
{
	if( gameUnion.template.WirelessRX )
    1b10:	67418793          	addi	a5,gp,1652 # 20001418 <gameUnion>
    1b14:	43c0                	lw	s0,4(a5)
    1b16:	c805                	beqz	s0,1b46 <ISLER_BEANBOY_INTERNAL_CALLBACK+0x46>
	int rssi = ReadRSSI();
    1b18:	1fffe097          	auipc	ra,0x1fffe
    1b1c:	504080e7          	jalr	1284(ra) # 2000001c <iSLERRSSI>
	int len = frame[0];
    1b20:	200017b7          	lui	a5,0x20001
    1b24:	4387c603          	lbu	a2,1080(a5) # 20001438 <LLE_BUF>
		gameUnion.template.WirelessRX( txmac, message, messageLength, rssi );
    1b28:	87a2                	mv	a5,s0
}
    1b2a:	4422                	lw	s0,8(sp)
    1b2c:	40b2                	lw	ra,12(sp)
	int rssi = ReadRSSI();
    1b2e:	86aa                	mv	a3,a0
    1b30:	200015b7          	lui	a1,0x20001
    1b34:	20001537          	lui	a0,0x20001
    1b38:	0611                	addi	a2,a2,4
    1b3a:	44258593          	addi	a1,a1,1090 # 20001442 <LLE_BUF+0xa>
    1b3e:	43a50513          	addi	a0,a0,1082 # 2000143a <LLE_BUF+0x2>
}
    1b42:	0141                	addi	sp,sp,16
    1b44:	8782                	jr	a5
    1b46:	40b2                	lw	ra,12(sp)
    1b48:	4422                	lw	s0,8(sp)
    1b4a:	0141                	addi	sp,sp,16
    1b4c:	8082                	ret

00001b4e <LLE_IRQHandler>:
void LLE_IRQHandler() {
    1b4e:	715d                	addi	sp,sp,-80
    1b50:	de22                	sw	s0,60(sp)
		rx_flag = LL->STATUS & 1;
    1b52:	4000c437          	lui	s0,0x4000c
    1b56:	20040413          	addi	s0,s0,512 # 4000c200 <_eusrstack+0x20009200>
void LLE_IRQHandler() {
    1b5a:	dc26                	sw	s1,56(sp)
    1b5c:	d23a                	sw	a4,36(sp)
		rx_flag = LL->STATUS & 1;
    1b5e:	4404                	lw	s1,8(s0)
void LLE_IRQHandler() {
    1b60:	d03e                	sw	a5,32(sp)
		LL->STATUS &= LL->INT_EN;
    1b62:	4458                	lw	a4,12(s0)
    1b64:	441c                	lw	a5,8(s0)
void LLE_IRQHandler() {
    1b66:	da2a                	sw	a0,52(sp)
    1b68:	c686                	sw	ra,76(sp)
    1b6a:	c496                	sw	t0,72(sp)
    1b6c:	c29a                	sw	t1,68(sp)
    1b6e:	c09e                	sw	t2,64(sp)
    1b70:	d82e                	sw	a1,48(sp)
    1b72:	d632                	sw	a2,44(sp)
    1b74:	d436                	sw	a3,40(sp)
    1b76:	ce42                	sw	a6,28(sp)
    1b78:	cc46                	sw	a7,24(sp)
    1b7a:	ca72                	sw	t3,20(sp)
    1b7c:	c876                	sw	t4,16(sp)
    1b7e:	c67a                	sw	t5,12(sp)
    1b80:	c47e                	sw	t6,8(sp)
		LL->STATUS &= LL->INT_EN;
    1b82:	8ff9                	and	a5,a5,a4
		BB->CTRL_TX = (BB->CTRL_TX & 0xfffffffc) | 1;
    1b84:	4000c737          	lui	a4,0x4000c
		LL->STATUS &= LL->INT_EN;
    1b88:	c41c                	sw	a5,8(s0)
		BB->CTRL_TX = (BB->CTRL_TX & 0xfffffffc) | 1;
    1b8a:	10070713          	addi	a4,a4,256 # 4000c100 <_eusrstack+0x20009100>
    1b8e:	5b5c                	lw	a5,52(a4)
	DevSetMode(0);
    1b90:	4501                	li	a0,0
	if( rx_flag )
    1b92:	8885                	andi	s1,s1,1
		BB->CTRL_TX = (BB->CTRL_TX & 0xfffffffc) | 1;
    1b94:	9bf1                	andi	a5,a5,-4
    1b96:	0017e793          	ori	a5,a5,1
    1b9a:	db5c                	sw	a5,52(a4)
	DevSetMode(0);
    1b9c:	842ff0ef          	jal	bde <DevSetMode>
	LL->CTRL_MOD &= CTRL_MOD_RFSTOP;
    1ba0:	483c                	lw	a5,80(s0)
    1ba2:	8ff7f793          	andi	a5,a5,-1793
    1ba6:	c83c                	sw	a5,80(s0)
	LL->LL0 |= 0x08;
    1ba8:	401c                	lw	a5,0(s0)
    1baa:	0087e793          	ori	a5,a5,8
    1bae:	c01c                	sw	a5,0(s0)
	if( rx_flag )
    1bb0:	c091                	beqz	s1,1bb4 <LLE_IRQHandler+0x66>
		ISLER_CALLBACK();
    1bb2:	37b9                	jal	1b00 <ISLER_BEANBOY_INTERNAL_CALLBACK>
}
    1bb4:	5472                	lw	s0,60(sp)
    1bb6:	40b6                	lw	ra,76(sp)
    1bb8:	42a6                	lw	t0,72(sp)
    1bba:	4316                	lw	t1,68(sp)
    1bbc:	4386                	lw	t2,64(sp)
    1bbe:	54e2                	lw	s1,56(sp)
    1bc0:	5552                	lw	a0,52(sp)
    1bc2:	55c2                	lw	a1,48(sp)
    1bc4:	5632                	lw	a2,44(sp)
    1bc6:	56a2                	lw	a3,40(sp)
    1bc8:	5712                	lw	a4,36(sp)
    1bca:	5782                	lw	a5,32(sp)
    1bcc:	4872                	lw	a6,28(sp)
    1bce:	48e2                	lw	a7,24(sp)
    1bd0:	4e52                	lw	t3,20(sp)
    1bd2:	4ec2                	lw	t4,16(sp)
    1bd4:	4f32                	lw	t5,12(sp)
    1bd6:	4fa2                	lw	t6,8(sp)
    1bd8:	6161                	addi	sp,sp,80
    1bda:	30200073          	mret

00001bde <ModeExampleLoop>:
{
    1bde:	7155                	addi	sp,sp,-208
    1be0:	c786                	sw	ra,204(sp)
    1be2:	c1ca                	sw	s2,192(sp)
    1be4:	df4e                	sw	s3,188(sp)
    1be6:	8932                	mv	s2,a2
    1be8:	89aa                	mv	s3,a0
    1bea:	dd52                	sw	s4,184(sp)
    1bec:	db56                	sw	s5,180(sp)
    1bee:	d75e                	sw	s7,172(sp)
    1bf0:	d366                	sw	s9,164(sp)
    1bf2:	d16a                	sw	s10,160(sp)
    1bf4:	8a2e                	mv	s4,a1
    1bf6:	c5a2                	sw	s0,200(sp)
    1bf8:	c3a6                	sw	s1,196(sp)
    1bfa:	d95a                	sw	s6,176(sp)
    1bfc:	d562                	sw	s8,168(sp)
	ssd1306_setbuf(0x00); // Clear screen
    1bfe:	86bff0ef          	jal	1468 <ssd1306_setbuf.constprop.0>
	sprintf( st, "%08x", (int)SysTick->CNT );
    1c02:	e000f7b7          	lui	a5,0xe000f
    1c06:	4790                	lw	a2,8(a5)
    1c08:	6591                	lui	a1,0x4
    1c0a:	6dc58593          	addi	a1,a1,1756 # 46dc <__clzsi2+0x11a>
    1c0e:	1008                	addi	a0,sp,32
    1c10:	823ff0ef          	jal	1432 <sprintf>
	ssd1306_drawstr_sz(0, 0, st, 1, 2 );
    1c14:	4689                	li	a3,2
    1c16:	1010                	addi	a2,sp,32
    1c18:	4581                	li	a1,0
    1c1a:	4501                	li	a0,0
    1c1c:	a26ff0ef          	jal	e42 <ssd1306_drawstr_sz.constprop.0>
	sprintf( st, "%3d %d", (int)m->frameNumber, (int)pressures[3] );
    1c20:	00c92683          	lw	a3,12(s2)
    1c24:	0089a603          	lw	a2,8(s3)
    1c28:	6591                	lui	a1,0x4
    1c2a:	6e458593          	addi	a1,a1,1764 # 46e4 <__clzsi2+0x122>
    1c2e:	1008                	addi	a0,sp,32
    1c30:	803ff0ef          	jal	1432 <sprintf>
	ssd1306_drawstr_sz(0, 24, st, 1, 2 );
    1c34:	4689                	li	a3,2
    1c36:	1010                	addi	a2,sp,32
    1c38:	45e1                	li	a1,24
    1c3a:	4501                	li	a0,0
    1c3c:	a06ff0ef          	jal	e42 <ssd1306_drawstr_sz.constprop.0>
    1c40:	02000b93          	li	s7,32
    int err = 2 - 2 * radius;
    1c44:	4c85                	li	s9,1
        ssd1306_drawPixel(x + x_pos, y - y_pos, color);
    1c46:	05a00a93          	li	s5,90
	for( btn = 0; btn < 3; btn++ )
    1c4a:	08000d13          	li	s10,128
		int p = pressures[btn]>>9;
    1c4e:	00092403          	lw	s0,0(s2)
    int y_pos = 0;
    1c52:	4b01                	li	s6,0
    1c54:	8025                	srli	s0,s0,0x9
    int x_pos = -radius;
    1c56:	408004b3          	neg	s1,s0
    int err = 2 - 2 * radius;
    1c5a:	408c8433          	sub	s0,s9,s0
    1c5e:	0406                	slli	s0,s0,0x1
        ssd1306_drawPixel(x - x_pos, y + y_pos, color);
    1c60:	409b8c33          	sub	s8,s7,s1
    1c64:	05ab0593          	addi	a1,s6,90
    1c68:	4605                	li	a2,1
    1c6a:	8562                	mv	a0,s8
    1c6c:	c42e                	sw	a1,8(sp)
    1c6e:	f35fe0ef          	jal	ba2 <ssd1306_drawPixel>
        ssd1306_drawPixel(x + x_pos, y + y_pos, color);
    1c72:	45a2                	lw	a1,8(sp)
    1c74:	009b8533          	add	a0,s7,s1
    1c78:	4605                	li	a2,1
    1c7a:	c62a                	sw	a0,12(sp)
    1c7c:	f27fe0ef          	jal	ba2 <ssd1306_drawPixel>
        ssd1306_drawPixel(x + x_pos, y - y_pos, color);
    1c80:	4532                	lw	a0,12(sp)
    1c82:	416a85b3          	sub	a1,s5,s6
    1c86:	4605                	li	a2,1
    1c88:	c42e                	sw	a1,8(sp)
    1c8a:	f19fe0ef          	jal	ba2 <ssd1306_drawPixel>
        ssd1306_drawPixel(x - x_pos, y - y_pos, color);
    1c8e:	45a2                	lw	a1,8(sp)
    1c90:	4605                	li	a2,1
    1c92:	8562                	mv	a0,s8
    1c94:	f0ffe0ef          	jal	ba2 <ssd1306_drawPixel>
        if (e2 <= y_pos) {
    1c98:	028b4963          	blt	s6,s0,1cca <ModeExampleLoop+0xec>
            err += ++y_pos * 2 + 1;
    1c9c:	0b05                	addi	s6,s6,1
    1c9e:	001b1793          	slli	a5,s6,0x1
    1ca2:	0785                	addi	a5,a5,1 # e000f001 <_eusrstack+0xc000c001>
            if(-x_pos == y_pos && e2 <= x_pos) {
    1ca4:	40900733          	neg	a4,s1
            err += ++y_pos * 2 + 1;
    1ca8:	97a2                	add	a5,a5,s0
            if(-x_pos == y_pos && e2 <= x_pos) {
    1caa:	00eb1563          	bne	s6,a4,1cb4 <ModeExampleLoop+0xd6>
    1cae:	0084c563          	blt	s1,s0,1cb8 <ModeExampleLoop+0xda>
              e2 = 0;
    1cb2:	4401                	li	s0,0
        if (e2 > x_pos) {
    1cb4:	0084d963          	bge	s1,s0,1cc6 <ModeExampleLoop+0xe8>
            err += ++x_pos * 2 + 1;
    1cb8:	0485                	addi	s1,s1,1
    1cba:	00149713          	slli	a4,s1,0x1
    1cbe:	0705                	addi	a4,a4,1
    1cc0:	97ba                	add	a5,a5,a4
    } while (x_pos <= 0);
    1cc2:	01948663          	beq	s1,s9,1cce <ModeExampleLoop+0xf0>
    int y_pos = 0;
    1cc6:	843e                	mv	s0,a5
    1cc8:	bf61                	j	1c60 <ModeExampleLoop+0x82>
    1cca:	87a2                	mv	a5,s0
    1ccc:	b7e5                	j	1cb4 <ModeExampleLoop+0xd6>
	for( btn = 0; btn < 3; btn++ )
    1cce:	020b8b93          	addi	s7,s7,32
    1cd2:	0911                	addi	s2,s2,4
    1cd4:	f7ab9de3          	bne	s7,s10,1c4e <ModeExampleLoop+0x70>
	for( i = 0; i < 10; i++ )
    1cd8:	4401                	li	s0,0
		int x = (rand() % (128+80))-40;
    1cda:	0d000493          	li	s1,208
	for( i = 0; i < 10; i++ )
    1cde:	4929                	li	s2,10
    1ce0:	8c4ff0ef          	jal	da4 <_rand_gen_32b>
		int x = (rand() % (128+80))-40;
    1ce4:	029575b3          	remu	a1,a0,s1
    1ce8:	fd858593          	addi	a1,a1,-40
    1cec:	c42e                	sw	a1,8(sp)
    1cee:	8b6ff0ef          	jal	da4 <_rand_gen_32b>
		int y = (rand() % (128+80))-40;
    1cf2:	02957633          	remu	a2,a0,s1
		RenderBSprite( (i&1)?&bubble:&bubblemirror, x, y );
    1cf6:	00147793          	andi	a5,s0,1
    1cfa:	45a2                	lw	a1,8(sp)
    1cfc:	45018513          	addi	a0,gp,1104 # 200011f4 <bubblemirror>
		int y = (rand() % (128+80))-40;
    1d00:	fd860613          	addi	a2,a2,-40
		RenderBSprite( (i&1)?&bubble:&bubblemirror, x, y );
    1d04:	c399                	beqz	a5,1d0a <ModeExampleLoop+0x12c>
    1d06:	55418513          	addi	a0,gp,1364 # 200012f8 <bubble>
	for( i = 0; i < 10; i++ )
    1d0a:	0405                	addi	s0,s0,1
		RenderBSprite( (i&1)?&bubble:&bubblemirror, x, y );
    1d0c:	fc1fe0ef          	jal	ccc <RenderBSprite>
	for( i = 0; i < 10; i++ )
    1d10:	fd2418e3          	bne	s0,s2,1ce0 <ModeExampleLoop+0x102>
	ssd1306_refresh();
    1d14:	b8eff0ef          	jal	10a2 <ssd1306_refresh>
	int32_t us = m->usTilNextSend -= deltaTime;
    1d18:	00c9a783          	lw	a5,12(s3)
    1d1c:	414787b3          	sub	a5,a5,s4
	if( us < 0 )
    1d20:	0207c263          	bltz	a5,1d44 <ModeExampleLoop+0x166>
	int32_t us = m->usTilNextSend -= deltaTime;
    1d24:	00f9a623          	sw	a5,12(s3)
}
    1d28:	40be                	lw	ra,204(sp)
    1d2a:	442e                	lw	s0,200(sp)
    1d2c:	449e                	lw	s1,196(sp)
    1d2e:	490e                	lw	s2,192(sp)
    1d30:	59fa                	lw	s3,188(sp)
    1d32:	5a6a                	lw	s4,184(sp)
    1d34:	5ada                	lw	s5,180(sp)
    1d36:	5b4a                	lw	s6,176(sp)
    1d38:	5bba                	lw	s7,172(sp)
    1d3a:	5c2a                	lw	s8,168(sp)
    1d3c:	5c9a                	lw	s9,164(sp)
    1d3e:	5d0a                	lw	s10,160(sp)
    1d40:	6169                	addi	sp,sp,208
    1d42:	8082                	ret
		m->usTilNextSend = 400000;
    1d44:	000627b7          	lui	a5,0x62
    1d48:	a8078793          	addi	a5,a5,-1408 # 61a80 <_data_lma+0x5c958>
    1d4c:	00f9a623          	sw	a5,12(s3)
	memcpy( pkt_tx+2, (uint32_t*)ROM_CFG_MAC_ADDR, 6 );
    1d50:	0003f5b7          	lui	a1,0x3f
	pkt_tx[0] = 0x02;
    1d54:	6785                	lui	a5,0x1
    1d56:	0789                	addi	a5,a5,2 # 1002 <_write.constprop.0+0xda>
	memcpy( pkt_tx+2, (uint32_t*)ROM_CFG_MAC_ADDR, 6 );
    1d58:	4619                	li	a2,6
    1d5a:	05e1                	addi	a1,a1,24 # 3f018 <_data_lma+0x39ef0>
    1d5c:	01210513          	addi	a0,sp,18
	pkt_tx[0] = 0x02;
    1d60:	00f11823          	sh	a5,16(sp)
	memcpy( pkt_tx+2, (uint32_t*)ROM_CFG_MAC_ADDR, 6 );
    1d64:	3935                	jal	19a0 <memcpy>
	memcpy( pkt_tx+10, message, messageLength );
    1d66:	6591                	lui	a1,0x4
	pkt_tx[8] = 0xff; // Normally should be 0x03, 0x19, 0x00, 0x00 for BLE
    1d68:	57fd                	li	a5,-1
	memcpy( pkt_tx+10, message, messageLength );
    1d6a:	4619                	li	a2,6
    1d6c:	6ec58593          	addi	a1,a1,1772 # 46ec <__clzsi2+0x12a>
    1d70:	01a10513          	addi	a0,sp,26
	pkt_tx[8] = 0xff; // Normally should be 0x03, 0x19, 0x00, 0x00 for BLE
    1d74:	00f11c23          	sh	a5,24(sp)
	memcpy( pkt_tx+10, message, messageLength );
    1d78:	3125                	jal	19a0 <memcpy>
	Frame_TX(ACCESS_ADDRESS, pkt_tx, messageLength+10, iSLERChannel, PHY_MODE);
    1d7a:	6601c403          	lbu	s0,1632(gp) # 20001404 <iSLERChannel>
    1d7e:	4641                	li	a2,16
    1d80:	8e89c537          	lui	a0,0x8e89c
    1d84:	00c105b3          	add	a1,sp,a2
    1d88:	4705                	li	a4,1
    1d8a:	86a2                	mv	a3,s0
    1d8c:	ed650513          	addi	a0,a0,-298 # 8e89bed6 <_eusrstack+0x6e898ed6>
    1d90:	1fffe097          	auipc	ra,0x1fffe
    1d94:	2c4080e7          	jalr	708(ra) # 20000054 <iSLERTX>
	Frame_RX(ACCESS_ADDRESS, iSLERChannel, PHY_MODE);
    1d98:	8e89c537          	lui	a0,0x8e89c
    1d9c:	4605                	li	a2,1
    1d9e:	85a2                	mv	a1,s0
    1da0:	ed650513          	addi	a0,a0,-298 # 8e89bed6 <_eusrstack+0x6e898ed6>
    1da4:	1fffe097          	auipc	ra,0x1fffe
    1da8:	3e8080e7          	jalr	1000(ra) # 2000018c <iSLERRX>
}
    1dac:	bfb5                	j	1d28 <ModeExampleLoop+0x14a>

00001dae <SetupRegisterMap.isra.0>:
int SetupRegisterMap( int address, const uint8_t * regptr, int regs, const char * name )
    1dae:	1101                	addi	sp,sp,-32
		int b = SendByte( address<<1 );
    1db0:	0506                	slli	a0,a0,0x1
int SetupRegisterMap( int address, const uint8_t * regptr, int regs, const char * name )
    1db2:	cc22                	sw	s0,24(sp)
    1db4:	ca26                	sw	s1,20(sp)
    1db6:	c84a                	sw	s2,16(sp)
    1db8:	c64e                	sw	s3,12(sp)
    1dba:	c452                	sw	s4,8(sp)
    1dbc:	c256                	sw	s5,4(sp)
    1dbe:	ce06                	sw	ra,28(sp)
    1dc0:	c05a                	sw	s6,0(sp)
    1dc2:	842e                	mv	s0,a1
    1dc4:	89b2                	mv	s3,a2
    1dc6:	8a36                	mv	s4,a3
	for( i = 0; i < regs; i++ )
    1dc8:	4901                	li	s2,0
		int b = SendByte( address<<1 );
    1dca:	0ff57493          	zext.b	s1,a0
			printf( "%s Cannot Configure @ %d\n", name, i );
    1dce:	6a91                	lui	s5,0x4
		SendStart();
    1dd0:	1fffe097          	auipc	ra,0x1fffe
    1dd4:	57e080e7          	jalr	1406(ra) # 2000034e <SendStart>
		int b = SendByte( address<<1 );
    1dd8:	8526                	mv	a0,s1
    1dda:	1fffe097          	auipc	ra,0x1fffe
    1dde:	660080e7          	jalr	1632(ra) # 2000043a <SendByte>
		if( b )
    1de2:	c505                	beqz	a0,1e0a <SetupRegisterMap.isra.0+0x5c>
			printf( "%s Cannot Configure @ %d\n", name, i );
    1de4:	864a                	mv	a2,s2
    1de6:	85d2                	mv	a1,s4
    1de8:	6f4a8513          	addi	a0,s5,1780 # 46f4 <__clzsi2+0x132>
    1dec:	de4ff0ef          	jal	13d0 <printf>
	for( i = 0; i < regs; i++ )
    1df0:	0905                	addi	s2,s2,1
    1df2:	fd391fe3          	bne	s2,s3,1dd0 <SetupRegisterMap.isra.0+0x22>
}
    1df6:	40f2                	lw	ra,28(sp)
    1df8:	4462                	lw	s0,24(sp)
    1dfa:	44d2                	lw	s1,20(sp)
    1dfc:	4942                	lw	s2,16(sp)
    1dfe:	49b2                	lw	s3,12(sp)
    1e00:	4a22                	lw	s4,8(sp)
    1e02:	4a92                	lw	s5,4(sp)
    1e04:	4b02                	lw	s6,0(sp)
    1e06:	6105                	addi	sp,sp,32
    1e08:	8082                	ret
		SendByte( a );
    1e0a:	00044503          	lbu	a0,0(s0)
		int v = *(regptr++);
    1e0e:	00240b13          	addi	s6,s0,2
		SendByte( a );
    1e12:	1fffe097          	auipc	ra,0x1fffe
    1e16:	628080e7          	jalr	1576(ra) # 2000043a <SendByte>
		b = SendByte( v );
    1e1a:	00144503          	lbu	a0,1(s0)
		int v = *(regptr++);
    1e1e:	845a                	mv	s0,s6
		b = SendByte( v );
    1e20:	1fffe097          	auipc	ra,0x1fffe
    1e24:	61a080e7          	jalr	1562(ra) # 2000043a <SendByte>
		SendStop();
    1e28:	1fffe097          	auipc	ra,0x1fffe
    1e2c:	592080e7          	jalr	1426(ra) # 200003ba <SendStop>
    1e30:	b7c1                	j	1df0 <SetupRegisterMap.isra.0+0x42>

00001e32 <main>:
}


int main()
{
    1e32:	7175                	addi	sp,sp,-144
    1e34:	c706                	sw	ra,140(sp)
    1e36:	c522                	sw	s0,136(sp)
    1e38:	c326                	sw	s1,132(sp)
    1e3a:	c14a                	sw	s2,128(sp)
    1e3c:	dece                	sw	s3,124(sp)
    1e3e:	dcd2                	sw	s4,120(sp)
    1e40:	dad6                	sw	s5,116(sp)
    1e42:	d8da                	sw	s6,112(sp)
    1e44:	d6de                	sw	s7,108(sp)
    1e46:	d4e2                	sw	s8,104(sp)
    1e48:	d2e6                	sw	s9,100(sp)
    1e4a:	d0ea                	sw	s10,96(sp)
    1e4c:	ceee                	sw	s11,92(sp)

/////////////////////////////////////////////////////////////////////////////////////////////////

static void BeanboySetup()
{
	SystemInit();
    1e4e:	391d                	jal	1a84 <SystemInit>

	funGpioInitAll(); // no-op on ch5xx

	funPinMode( PA11, GPIO_CFGLR_OUT_10Mhz_PP );
    1e50:	6505                	lui	a0,0x1
    1e52:	80050513          	addi	a0,a0,-2048 # 800 <_einit+0x770>
//	funDigitalWrite( PA11, 1 ); // BS1 = 1 for I2C
	funDigitalWrite( PA11, 0 ); // BS1 = 0 for SPI
    1e56:	400014b7          	lui	s1,0x40001
    1e5a:	6b05                	lui	s6,0x1
    1e5c:	0ac48493          	addi	s1,s1,172 # 400010ac <_eusrstack+0x1fffe0ac>
	funPinMode( PA11, GPIO_CFGLR_OUT_10Mhz_PP );
    1e60:	ab8ff0ef          	jal	1118 <funPinMode.constprop.0>
	funDigitalWrite( PA11, 0 ); // BS1 = 0 for SPI
    1e64:	800b0b13          	addi	s6,s6,-2048 # 800 <_einit+0x770>
    1e68:	0164a023          	sw	s6,0(s1)

	funPinMode( PA6, GPIO_CFGLR_OUT_10Mhz_PP );
    1e6c:	04000513          	li	a0,64
    1e70:	aa8ff0ef          	jal	1118 <funPinMode.constprop.0>
	funDigitalWrite( PA6, 1 ); // RES
    1e74:	04000a13          	li	s4,64
    1e78:	40001937          	lui	s2,0x40001
    1e7c:	0b492c23          	sw	s4,184(s2) # 400010b8 <_eusrstack+0x1fffe0b8>
	funPinMode( PA4, GPIO_CFGLR_OUT_10Mhz_PP );
    1e80:	4541                	li	a0,16
    1e82:	a96ff0ef          	jal	1118 <funPinMode.constprop.0>
	funDigitalWrite( PA4, 0 ); // SCS
    1e86:	4bc1                	li	s7,16
	funPinMode( PA10, GPIO_CFGLR_OUT_10Mhz_PP );
	funDigitalWrite( PA10, 0 ); // D/C
    1e88:	40000a93          	li	s5,1024
	funPinMode( PA10, GPIO_CFGLR_OUT_10Mhz_PP );
    1e8c:	40000513          	li	a0,1024
	funDigitalWrite( PA4, 0 ); // SCS
    1e90:	0174a023          	sw	s7,0(s1)
	funPinMode( PA10, GPIO_CFGLR_OUT_10Mhz_PP );
    1e94:	a84ff0ef          	jal	1118 <funPinMode.constprop.0>
	funDigitalWrite( PA10, 0 ); // D/C
    1e98:	0154a023          	sw	s5,0(s1)
	ConfigI2C();
    1e9c:	1fffe097          	auipc	ra,0x1fffe
    1ea0:	49a080e7          	jalr	1178(ra) # 20000336 <ConfigI2C>
	SetupRegisterMap( QMC6309_ADDRESS, (const uint8_t[]){ 0x12, 0x81 }, 1, "LSM6DS3 RESET" );
    1ea4:	77e1                	lui	a5,0xffff8
    1ea6:	01c10993          	addi	s3,sp,28
    1eaa:	6691                	lui	a3,0x4
    1eac:	11278793          	addi	a5,a5,274 # ffff8112 <_eusrstack+0xdfff5112>
    1eb0:	71068693          	addi	a3,a3,1808 # 4710 <__clzsi2+0x14e>
    1eb4:	4605                	li	a2,1
    1eb6:	85ce                	mv	a1,s3
    1eb8:	07c00513          	li	a0,124
    1ebc:	00f11e23          	sh	a5,28(sp)
    1ec0:	35fd                	jal	1dae <SetupRegisterMap.isra.0>
	SetupRegisterMap( QMC6309_ADDRESS, (const uint8_t[]){ 0x0b, 0x80, 0x0b, 0x00 }, 2, "QMC6309 RESET" );
    1ec2:	000b87b7          	lui	a5,0xb8
    1ec6:	1020                	addi	s0,sp,40
    1ec8:	6691                	lui	a3,0x4
    1eca:	07ad                	addi	a5,a5,11 # b800b <_data_lma+0xb2ee3>
    1ecc:	72068693          	addi	a3,a3,1824 # 4720 <__clzsi2+0x15e>
    1ed0:	4609                	li	a2,2
    1ed2:	85a2                	mv	a1,s0
    1ed4:	07c00513          	li	a0,124
    1ed8:	d43e                	sw	a5,40(sp)
    1eda:	3dd1                	jal	1dae <SetupRegisterMap.isra.0>
	SetupRegisterMap( LSM6DS3_ADDRESS, LSM6DS3Regmap, sizeof(LSM6DS3Regmap)/2, "LSM6DS3" );
    1edc:	6691                	lui	a3,0x4
    1ede:	6595                	lui	a1,0x5
    1ee0:	73068693          	addi	a3,a3,1840 # 4730 <__clzsi2+0x16e>
    1ee4:	463d                	li	a2,15
    1ee6:	fac58593          	addi	a1,a1,-84 # 4fac <LSM6DS3Regmap.1>
    1eea:	06a00513          	li	a0,106
    1eee:	35c1                	jal	1dae <SetupRegisterMap.isra.0>
	SetupRegisterMap( QMC6309_ADDRESS, QMC6309Regmap, sizeof(QMC6309Regmap)/2, "QMC6309" );
    1ef0:	6691                	lui	a3,0x4
    1ef2:	4609                	li	a2,2
    1ef4:	c4018593          	addi	a1,gp,-960 # 200009e4 <QMC6309Regmap.0>
    1ef8:	73868693          	addi	a3,a3,1848 # 4738 <__clzsi2+0x176>
    1efc:	07c00513          	li	a0,124
    1f00:	357d                	jal	1dae <SetupRegisterMap.isra.0>
	DSCL_OUTPUT;
    1f02:	0164a023          	sw	s6,0(s1)
	DSDA_OUTPUT;
    1f06:	0154a023          	sw	s5,0(s1)
	Delay_Ms(10);
    1f0a:	00092537          	lui	a0,0x92
	funDigitalWrite( SSD1306_RST_PIN, FUN_LOW );
    1f0e:	0144a023          	sw	s4,0(s1)
	Delay_Ms(10);
    1f12:	7c050513          	addi	a0,a0,1984 # 927c0 <_data_lma+0x8d698>
    1f16:	bebfe0ef          	jal	b00 <DelaySysTick>
	funPinMode( SSD1306_RST_PIN, GPIO_CFGLR_OUT_50Mhz_PP );
    1f1a:	8552                	mv	a0,s4
	funDigitalWrite( SSD1306_RST_PIN, FUN_HIGH );
    1f1c:	0b492c23          	sw	s4,184(s2)
	funPinMode( SSD1306_RST_PIN, GPIO_CFGLR_OUT_50Mhz_PP );
    1f20:	9f8ff0ef          	jal	1118 <funPinMode.constprop.0>
	funPinMode( SSD1306_CS_PIN, GPIO_CFGLR_OUT_50Mhz_PP );
    1f24:	855e                	mv	a0,s7
    1f26:	9f2ff0ef          	jal	1118 <funPinMode.constprop.0>
	funPinMode( SSD1306_DC_PIN, GPIO_CFGLR_OUT_50Mhz_PP );
    1f2a:	8556                	mv	a0,s5
    1f2c:	9ecff0ef          	jal	1118 <funPinMode.constprop.0>
	funPinMode( SSD1306_MOSI_PIN, GPIO_CFGLR_OUT_50Mhz_PP );
    1f30:	08000513          	li	a0,128
    1f34:	9e4ff0ef          	jal	1118 <funPinMode.constprop.0>
	funPinMode( SSD1306_SCK_PIN, GPIO_CFGLR_OUT_50Mhz_PP );
    1f38:	02000513          	li	a0,32
    1f3c:	9dcff0ef          	jal	1118 <funPinMode.constprop.0>
	funDigitalWrite( SSD1306_RST_PIN, FUN_HIGH );
    1f40:	0b492c23          	sw	s4,184(s2)
	funDigitalWrite( SSD1306_CS_PIN, FUN_HIGH );
    1f44:	0b792c23          	sw	s7,184(s2)
	funDigitalWrite( SSD1306_DC_PIN, FUN_LOW );
    1f48:	0154a023          	sw	s5,0(s1)
	R8_SPI0_CLOCK_DIV = FUNCONF_SYSTEM_CORE_CLOCK / 12000000; // 16MHz is the fastest I want to go - though it does seem to work up to ~60MHz. 
    1f4c:	400047b7          	lui	a5,0x40004
    1f50:	4695                	li	a3,5
    1f52:	00d781a3          	sb	a3,3(a5) # 40004003 <_eusrstack+0x20001003>
	R8_SPI0_CTRL_MOD  = RB_SPI_ALL_CLEAR;
    1f56:	4689                	li	a3,2
    1f58:	00d78023          	sb	a3,0(a5)
	R8_SPI0_CTRL_MOD  = RB_SPI_MOSI_OE | RB_SPI_2WIRE_MOD | RB_SPI_SCK_OE;
    1f5c:	06400713          	li	a4,100
    1f60:	00e78023          	sb	a4,0(a5)
	R8_SPI0_CTRL_MOD |= RB_SPI_MST_SCK_MOD;
    1f64:	0007c703          	lbu	a4,0(a5)
	Delay_Ms(10);
    1f68:	00092537          	lui	a0,0x92
    1f6c:	7c050513          	addi	a0,a0,1984 # 927c0 <_data_lma+0x8d698>
	R8_SPI0_CTRL_MOD |= RB_SPI_MST_SCK_MOD;
    1f70:	00876713          	ori	a4,a4,8
    1f74:	00e78023          	sb	a4,0(a5)
	R8_SPI0_CTRL_CFG = RB_MST_CLK_SEL;
    1f78:	00d780a3          	sb	a3,1(a5)
	funDigitalWrite( SSD1306_RST_PIN, FUN_LOW );
    1f7c:	0144a023          	sw	s4,0(s1)
	Delay_Ms(10);
    1f80:	b81fe0ef          	jal	b00 <DelaySysTick>

	ssd1306_setbuf(0);
	
	// initialize OLED
#if !defined(SSD1306_CUSTOM_INIT_ARRAY) || !SSD1306_CUSTOM_INIT_ARRAY
	uint8_t *cmd_list = (uint8_t *)ssd1306_init_array;
    1f84:	6495                	lui	s1,0x5
	funDigitalWrite( SSD1306_RST_PIN, FUN_HIGH );
    1f86:	0b492c23          	sw	s4,184(s2)
	ssd1306_setbuf(0);
    1f8a:	cdeff0ef          	jal	1468 <ssd1306_setbuf.constprop.0>
	uint8_t *cmd_list = (uint8_t *)ssd1306_init_array;
    1f8e:	fcc48493          	addi	s1,s1,-52 # 4fcc <ssd1306_init_array>
	while(*cmd_list != SSD1306_TERMINATE_CMDS)
    1f92:	0ff00913          	li	s2,255
    1f96:	0004c503          	lbu	a0,0(s1)
    1f9a:	4f251963          	bne	a0,s2,248c <main+0x65a>
	{
		if(ssd1306_cmd(*cmd_list++))
			return 1;
	}
	
	ssd1306_refresh();	
    1f9e:	904ff0ef          	jal	10a2 <ssd1306_refresh>

	ssd1306_rst();

	ssd1306_spi_init();
	ssd1306_init();
	ssd1306_setbuf(0x00);
    1fa2:	cc6ff0ef          	jal	1468 <ssd1306_setbuf.constprop.0>

	// Turbo-time
	ssd1306_cmd(0xD5);
    1fa6:	0d500513          	li	a0,213
    1faa:	8e0ff0ef          	jal	108a <ssd1306_cmd.isra.0>
	ssd1306_cmd(0xe0);
    1fae:	0e000513          	li	a0,224
    1fb2:	8d8ff0ef          	jal	108a <ssd1306_cmd.isra.0>

	ssd1306_cmd(0xc8);
    1fb6:	0c800513          	li	a0,200
    1fba:	8d0ff0ef          	jal	108a <ssd1306_cmd.isra.0>
	ssd1306_cmd(0xa1);
    1fbe:	0a100513          	li	a0,161
    1fc2:	8c8ff0ef          	jal	108a <ssd1306_cmd.isra.0>
	R8_TMR_CTRL_MOD = 0b00000010; // All clear
    1fc6:	400027b7          	lui	a5,0x40002
    1fca:	4689                	li	a3,2
	R32_TMR_CNT_END = 0x03FFFFFF; // Maximum possible counter size.
    1fcc:	04000737          	lui	a4,0x4000
	R8_TMR_CTRL_MOD = 0b00000010; // All clear
    1fd0:	40d78023          	sb	a3,1024(a5) # 40002400 <_eusrstack+0x1ffff400>
	R32_TMR_CNT_END = 0x03FFFFFF; // Maximum possible counter size.
    1fd4:	177d                	addi	a4,a4,-1 # 3ffffff <_data_lma+0x3ffaed7>
    1fd6:	40e7a623          	sw	a4,1036(a5)
	R8_TMR_CTRL_MOD = 0b11000101; // Capture mode rising edge
    1fda:	fc500713          	li	a4,-59
    1fde:	40e78023          	sb	a4,1024(a5)
	R8_TMR_INTER_EN = 0b10; // Capture event.
    1fe2:	40d78123          	sb	a3,1026(a5)
	R16_PIN_ALTERNATE_H |= 1<<6; // Map PA2 to CAP1 (could be PA7, PA4, or PA9) (see RB_TMR_PIN)
    1fe6:	400017b7          	lui	a5,0x40001
    1fea:	01a7d703          	lhu	a4,26(a5) # 4000101a <_eusrstack+0x1fffe01a>
	NVIC->IENR[((uint32_t)(IRQn) >> 5)] = (1 << ((uint32_t)(IRQn) & 0x1F));
    1fee:	e000e937          	lui	s2,0xe000e
    1ff2:	04076713          	ori	a4,a4,64
    1ff6:	00e79d23          	sh	a4,26(a5)
    1ffa:	010007b7          	lui	a5,0x1000
    1ffe:	10f92023          	sw	a5,256(s2) # e000e100 <_eusrstack+0xc000b100>
	uint32_t result; __ASM volatile( ADD_ARCH_ZICSR "csrr %0," "mstatus": "=r"(result) );
    2002:	300027f3          	csrr	a5,mstatus
	result |= 0x88;  __ASM volatile( ADD_ARCH_ZICSR "csrw mstatus, %0" : : "r" (result) );
    2006:	0887e793          	ori	a5,a5,136
    200a:	30079073          	csrw	mstatus,a5
	funPinMode( PA2, GPIO_ModeOut_PP_20mA );
    200e:	4511                	li	a0,4
    2010:	908ff0ef          	jal	1118 <funPinMode.constprop.0>
	iSLERChannel = channel;
    2014:	4739                	li	a4,14
    2016:	66e18023          	sb	a4,1632(gp) # 20001404 <iSLERChannel>
	LL->LL5 = 0x8c;
    201a:	4000c7b7          	lui	a5,0x4000c
    201e:	20078793          	addi	a5,a5,512 # 4000c200 <_eusrstack+0x20009200>
    2022:	08c00713          	li	a4,140
    2026:	cbd8                	sw	a4,20(a5)
	LL->LL7 = 0x76;
    2028:	07600693          	li	a3,118
    202c:	cfd4                	sw	a3,28(a5)
	LL->LL9 = 0x8c;
    202e:	d3d8                	sw	a4,36(a5)
	LL->LL13 = 0x8c;
    2030:	dbd8                	sw	a4,52(a5)
	LL->LL17 = 0x8c;
    2032:	c3f8                	sw	a4,68(a5)
	LL->LL19 = 0x76;
    2034:	c7f4                	sw	a3,76(a5)
	LL->LL11 = 0x6c;
    2036:	06c00713          	li	a4,108
    203a:	d7d8                	sw	a4,44(a5)
	LL->LL15 = 0x6c;
    203c:	dfd8                	sw	a4,60(a5)
	LL->LL1 = 0x78;
    203e:	07800713          	li	a4,120
    2042:	c3d8                	sw	a4,4(a5)
	LL->INT_EN = 0x16000f;
    2044:	00160737          	lui	a4,0x160
	LL->LL21 = 0;
    2048:	0407aa23          	sw	zero,84(a5)
	LL->INT_EN = 0x16000f;
    204c:	073d                	addi	a4,a4,15 # 16000f <_data_lma+0x15aee7>
    204e:	c7d8                	sw	a4,12(a5)
	LL->RXBUF = (uint32_t)LLE_BUF;
    2050:	20001737          	lui	a4,0x20001
    2054:	43870713          	addi	a4,a4,1080 # 20001438 <LLE_BUF>
    2058:	dff8                	sw	a4,124(a5)
	LL->STATUS = 0xffffffff;
    205a:	577d                	li	a4,-1
	RF->RF10 = 0x480;
    205c:	4000d4b7          	lui	s1,0x4000d
	LL->STATUS = 0xffffffff;
    2060:	c798                	sw	a4,8(a5)
	RF->RF10 = 0x480;
    2062:	48000793          	li	a5,1152
    2066:	d49c                	sw	a5,40(s1)
	RF->RF12 &= 0xfff9ffff;
    2068:	589c                	lw	a5,48(s1)
    206a:	fffa0737          	lui	a4,0xfffa0
    206e:	177d                	addi	a4,a4,-1 # fff9ffff <_eusrstack+0xdff9cfff>
    2070:	8ff9                	and	a5,a5,a4
    2072:	d89c                	sw	a5,48(s1)
	RF->RF12 |= 0x70000000;
    2074:	589c                	lw	a5,48(s1)
    2076:	70000737          	lui	a4,0x70000
	RF->RF15 = (RF->RF15 & 0xf8ffffff) | 0x2000000;
    207a:	020006b7          	lui	a3,0x2000
	RF->RF12 |= 0x70000000;
    207e:	8fd9                	or	a5,a5,a4
    2080:	d89c                	sw	a5,48(s1)
	RF->RF15 = (RF->RF15 & 0xf8ffffff) | 0x2000000;
    2082:	5cdc                	lw	a5,60(s1)
    2084:	f9000737          	lui	a4,0xf9000
    2088:	177d                	addi	a4,a4,-1 # f8ffffff <_eusrstack+0xd8ffcfff>
    208a:	8ff9                	and	a5,a5,a4
    208c:	8fd5                	or	a5,a5,a3
    208e:	dcdc                	sw	a5,60(s1)
	RF->RF15 = (RF->RF15 & 0x1fffffff) | 0x40000000;
    2090:	5cdc                	lw	a5,60(s1)
    2092:	40000737          	lui	a4,0x40000
	BB->CTRL_TX = (BB->CTRL_TX & 0x1ffffff) | (TxPower | 0x40) << 0x19;
    2096:	16fd                	addi	a3,a3,-1 # 1ffffff <_data_lma+0x1ffaed7>
	RF->RF15 = (RF->RF15 & 0x1fffffff) | 0x40000000;
    2098:	078e                	slli	a5,a5,0x3
    209a:	838d                	srli	a5,a5,0x3
    209c:	8fd9                	or	a5,a5,a4
    209e:	dcdc                	sw	a5,60(s1)
	RF->RF18 &= 0xfff8ffff;
    20a0:	44bc                	lw	a5,72(s1)
    20a2:	fff90737          	lui	a4,0xfff90
    20a6:	177d                	addi	a4,a4,-1 # fff8ffff <_eusrstack+0xdff8cfff>
    20a8:	8ff9                	and	a5,a5,a4
    20aa:	c4bc                	sw	a5,72(s1)
	RF->RF20 = (RF->RF20 & 0xfffff8ff) | 0x300;
    20ac:	48bc                	lw	a5,80(s1)
	RF->RF23 |= 0x70000;
    20ae:	00070737          	lui	a4,0x70
	NVIC->VTFIDR[3] = 0x14;
    20b2:	4bd1                	li	s7,20
	RF->RF20 = (RF->RF20 & 0xfffff8ff) | 0x300;
    20b4:	8ff7f793          	andi	a5,a5,-1793
    20b8:	3007e793          	ori	a5,a5,768
    20bc:	c8bc                	sw	a5,80(s1)
	RF->RF23 |= 0x70000;
    20be:	4cfc                	lw	a5,92(s1)
	DevSetMode(DEVSETMODE_TUNE);
    20c0:	55800513          	li	a0,1368
	RF->RF23 |= 0x70000;
    20c4:	8fd9                	or	a5,a5,a4
    20c6:	ccfc                	sw	a5,92(s1)
	RF->RF23 |= 0x700000;
    20c8:	4cfc                	lw	a5,92(s1)
    20ca:	00700737          	lui	a4,0x700
    20ce:	8fd9                	or	a5,a5,a4
    20d0:	ccfc                	sw	a5,92(s1)
	BB->BB14 = 0x2020c;
    20d2:	00020737          	lui	a4,0x20
    20d6:	4000c7b7          	lui	a5,0x4000c
    20da:	10078793          	addi	a5,a5,256 # 4000c100 <_eusrstack+0x20009100>
    20de:	20c70713          	addi	a4,a4,524 # 2020c <_data_lma+0x1b0e4>
    20e2:	df98                	sw	a4,56(a5)
	BB->BB15 = 0x50;
    20e4:	05000713          	li	a4,80
    20e8:	dfd8                	sw	a4,60(a5)
	BB->CTRL_TX = (BB->CTRL_TX & 0x1ffffff) | (TxPower | 0x40) << 0x19;
    20ea:	5bd8                	lw	a4,52(a5)
    20ec:	8f75                	and	a4,a4,a3
    20ee:	da0006b7          	lui	a3,0xda000
    20f2:	8f55                	or	a4,a4,a3
    20f4:	dbd8                	sw	a4,52(a5)
	BB->CTRL_CFG &= 0xfffffcff;
    20f6:	4398                	lw	a4,0(a5)
    20f8:	cff77713          	andi	a4,a4,-769
    20fc:	c398                	sw	a4,0(a5)
	NVIC->VTFIDR[3] = 0x14;
    20fe:	057909a3          	sb	s7,83(s2)
	DevSetMode(DEVSETMODE_TUNE);
    2102:	addfe0ef          	jal	bde <DevSetMode>
	RF->RF1 &= 0xfffffeff;
    2106:	40dc                	lw	a5,4(s1)
	RF->RF10 &= 0xffffefff;
    2108:	777d                	lui	a4,0xfffff
    210a:	177d                	addi	a4,a4,-1 # ffffefff <_eusrstack+0xdfffbfff>
	RF->RF1 &= 0xfffffeff;
    210c:	eff7f793          	andi	a5,a5,-257
    2110:	c0dc                	sw	a5,4(s1)
	RF->RF10 &= 0xffffefff;
    2112:	549c                	lw	a5,40(s1)
	uint32_t tune2401 = RFEND_TXCTune(37);
    2114:	02500513          	li	a0,37
	RF->RF10 &= 0xffffefff;
    2118:	8ff9                	and	a5,a5,a4
    211a:	d49c                	sw	a5,40(s1)
	RF->RF11 &= 0xffffffef;
    211c:	54dc                	lw	a5,44(s1)
	RF->RF2 |= 0x20000;
    211e:	00020737          	lui	a4,0x20
	RF->RF11 &= 0xffffffef;
    2122:	9bbd                	andi	a5,a5,-17
    2124:	d4dc                	sw	a5,44(s1)
	RF->RF2 |= 0x20000;
    2126:	449c                	lw	a5,8(s1)
    2128:	8fd9                	or	a5,a5,a4
    212a:	c49c                	sw	a5,8(s1)
	RF->RF1 |= 0x10;
    212c:	40dc                	lw	a5,4(s1)
    212e:	0107e793          	ori	a5,a5,16
    2132:	c0dc                	sw	a5,4(s1)
	uint32_t tune2401 = RFEND_TXCTune(37);
    2134:	af9fe0ef          	jal	c2c <RFEND_TXCTune>
    2138:	84aa                	mv	s1,a0
	uint8_t nGA2401 = (uint8_t)(tune2401 >> 24) & 0x7f;
    213a:	01855b13          	srli	s6,a0,0x18
	uint32_t tune2480 = RFEND_TXCTune(39);
    213e:	02700513          	li	a0,39
    2142:	aebfe0ef          	jal	c2c <RFEND_TXCTune>
    2146:	8a2a                	mv	s4,a0
	uint8_t nGA2480 = (uint8_t)(tune2480 >> 24) & 0x7f;
    2148:	01855c13          	srli	s8,a0,0x18
	uint32_t tune2440 = RFEND_TXCTune(18);
    214c:	4549                	li	a0,18
    214e:	adffe0ef          	jal	c2c <RFEND_TXCTune>
	uint32_t dCO0140 = nCO2401 - nCO2440;
    2152:	0ff57793          	zext.b	a5,a0
	uint8_t txctune_co[sizeof(RF->TXCTUNE_CO)] = {0};
    2156:	02800613          	li	a2,40
	uint32_t tune2440 = RFEND_TXCTune(18);
    215a:	892a                	mv	s2,a0
	uint8_t nGA2440 = (uint8_t)(tune2440 >> 24) & 0x7f;
    215c:	01855a93          	srli	s5,a0,0x18
	uint32_t dCO0140 = nCO2401 - nCO2440;
    2160:	0ff4f493          	zext.b	s1,s1
	uint32_t dCO4080 = nCO2440 - nCO2480;
    2164:	0ffa7a13          	zext.b	s4,s4
	uint8_t txctune_co[sizeof(RF->TXCTUNE_CO)] = {0};
    2168:	4581                	li	a1,0
    216a:	8522                	mv	a0,s0
	uint32_t dCO0140 = nCO2401 - nCO2440;
    216c:	8c9d                	sub	s1,s1,a5
	uint32_t dCO4080 = nCO2440 - nCO2480;
    216e:	41478a33          	sub	s4,a5,s4
	uint8_t txctune_co[sizeof(RF->TXCTUNE_CO)] = {0};
    2172:	ae4ff0ef          	jal	1456 <memset>
	for(int f = 0; f < int_points; f++) {
    2176:	037486b3          	mul	a3,s1,s7
    217a:	4781                	li	a5,0
		tune = (dCO0140 * (int_points -f)) / int_points;
    217c:	865e                	mv	a2,s7
		txctune_co[f] = tune | (tune << 4);
    217e:	00f405b3          	add	a1,s0,a5
	for(int f = 0; f < int_points; f++) {
    2182:	0785                	addi	a5,a5,1
		tune = (dCO0140 * (int_points -f)) / int_points;
    2184:	0376d733          	divu	a4,a3,s7
	for(int f = 0; f < int_points; f++) {
    2188:	8e85                	sub	a3,a3,s1
		txctune_co[f] = tune | (tune << 4);
    218a:	0762                	slli	a4,a4,0x18
    218c:	8761                	srai	a4,a4,0x18
    218e:	00471513          	slli	a0,a4,0x4
    2192:	8f49                	or	a4,a4,a0
    2194:	00e58023          	sb	a4,0(a1)
	for(int f = 0; f < int_points; f++) {
    2198:	fec793e3          	bne	a5,a2,217e <main+0x34c>
    219c:	4681                	li	a3,0
		tune = (dCO4080 * (f -int_points)) / int_points;
    219e:	4851                	li	a6,20
	for(int f = int_points; f < sizeof(RF->TXCTUNE_CO); f++) {
    21a0:	02800613          	li	a2,40
		tune = (dCO4080 * (f -int_points)) / int_points;
    21a4:	0306d733          	divu	a4,a3,a6
		txctune_co[f] = tune | (tune << 4);
    21a8:	00f405b3          	add	a1,s0,a5
	for(int f = int_points; f < sizeof(RF->TXCTUNE_CO); f++) {
    21ac:	0785                	addi	a5,a5,1
    21ae:	96d2                	add	a3,a3,s4
		txctune_co[f] = tune | (tune << 4);
    21b0:	0762                	slli	a4,a4,0x18
    21b2:	8761                	srai	a4,a4,0x18
    21b4:	00471513          	slli	a0,a4,0x4
    21b8:	8f49                	or	a4,a4,a0
    21ba:	00e58023          	sb	a4,0(a1)
	for(int f = int_points; f < sizeof(RF->TXCTUNE_CO); f++) {
    21be:	fec793e3          	bne	a5,a2,21a4 <main+0x372>
    21c2:	86a2                	mv	a3,s0
	for(int i = 0; i < sizeof(txctune_co) /4; i++) {
    21c4:	4701                	li	a4,0
		RF->TXCTUNE_CO[i] = ((uint32_t*)txctune_co)[i];
    21c6:	4000d537          	lui	a0,0x4000d
	for(int i = 0; i < sizeof(txctune_co) /4; i++) {
    21ca:	4629                	li	a2,10
		RF->TXCTUNE_CO[i] = ((uint32_t*)txctune_co)[i];
    21cc:	428c                	lw	a1,0(a3)
    21ce:	02870793          	addi	a5,a4,40 # 20028 <_data_lma+0x1af00>
    21d2:	078a                	slli	a5,a5,0x2
    21d4:	97aa                	add	a5,a5,a0
    21d6:	c38c                	sw	a1,0(a5)
	for(int i = 0; i < sizeof(txctune_co) /4; i++) {
    21d8:	0705                	addi	a4,a4,1
    21da:	0691                	addi	a3,a3,4 # da000004 <_eusrstack+0xb9ffd004>
    21dc:	fec718e3          	bne	a4,a2,21cc <main+0x39a>
	uint32_t dGA0140 = nGA2401 - nGA2440;
    21e0:	415b0633          	sub	a2,s6,s5
	uint32_t dGA4080 = nGA2440 - nGA2480;
    21e4:	4695                	li	a3,5
    21e6:	02d606b3          	mul	a3,a2,a3
    21ea:	418a8ab3          	sub	s5,s5,s8
	uint8_t txctune_ga[sizeof(RF->TXCTUNE_GA)] = {0};
    21ee:	ce02                	sw	zero,28(sp)
    21f0:	d002                	sw	zero,32(sp)
    21f2:	d202                	sw	zero,36(sp)
	for(int f = 1; f < int_points; f++) {
    21f4:	4785                	li	a5,1
		tune = (dGA0140 * (int_points -f)) / int_points;
    21f6:	4599                	li	a1,6
		txctune_ga[f] = tune | (tune << 4);
    21f8:	00f98533          	add	a0,s3,a5
	for(int f = 1; f < int_points; f++) {
    21fc:	0785                	addi	a5,a5,1
		tune = (dGA0140 * (int_points -f)) / int_points;
    21fe:	02b6d733          	divu	a4,a3,a1
	for(int f = 1; f < int_points; f++) {
    2202:	8e91                	sub	a3,a3,a2
		txctune_ga[f] = tune | (tune << 4);
    2204:	0762                	slli	a4,a4,0x18
    2206:	8761                	srai	a4,a4,0x18
    2208:	00471813          	slli	a6,a4,0x4
    220c:	01076733          	or	a4,a4,a6
    2210:	00e50023          	sb	a4,0(a0) # 4000d000 <_eusrstack+0x2000a000>
	for(int f = 1; f < int_points; f++) {
    2214:	feb792e3          	bne	a5,a1,21f8 <main+0x3c6>
    2218:	4681                	li	a3,0
		tune = (dGA4080 * (f -int_points)) / int_points;
    221a:	4819                	li	a6,6
	for(int f = int_points; f < sizeof(RF->TXCTUNE_GA) -1; f++) {
    221c:	462d                	li	a2,11
		tune = (dGA4080 * (f -int_points)) / int_points;
    221e:	0306d733          	divu	a4,a3,a6
		txctune_ga[f] = tune | (tune << 4);
    2222:	00f985b3          	add	a1,s3,a5
	for(int f = int_points; f < sizeof(RF->TXCTUNE_GA) -1; f++) {
    2226:	0785                	addi	a5,a5,1
    2228:	96d6                	add	a3,a3,s5
		txctune_ga[f] = tune | (tune << 4);
    222a:	0762                	slli	a4,a4,0x18
    222c:	8761                	srai	a4,a4,0x18
    222e:	00471513          	slli	a0,a4,0x4
    2232:	8f49                	or	a4,a4,a0
    2234:	00e58023          	sb	a4,0(a1)
	for(int f = int_points; f < sizeof(RF->TXCTUNE_GA) -1; f++) {
    2238:	fec793e3          	bne	a5,a2,221e <main+0x3ec>
		RF->TXCTUNE_GA[i] = ((uint32_t*)txctune_ga)[i];
    223c:	46f2                	lw	a3,28(sp)
    223e:	4000d7b7          	lui	a5,0x4000d
    2242:	08078713          	addi	a4,a5,128 # 4000d080 <_eusrstack+0x2000a080>
    2246:	c734                	sw	a3,72(a4)
    2248:	5682                	lw	a3,32(sp)
	RF->RF10 |= 0x1000;
    224a:	6605                	lui	a2,0x1
		RF->TXCTUNE_GA[i] = ((uint32_t*)txctune_ga)[i];
    224c:	c774                	sw	a3,76(a4)
    224e:	5692                	lw	a3,36(sp)
    2250:	cb34                	sw	a3,80(a4)
	RF->RF1 &= 0xffffffef;
    2252:	43d8                	lw	a4,4(a5)
	RF->TXTUNE_CTRL = (RF->TXTUNE_CTRL & 0xffffffc0) | (tune2440 & 0x3f);
    2254:	03f97693          	andi	a3,s2,63
	RF->RF1 &= 0xffffffef;
    2258:	9b3d                	andi	a4,a4,-17
    225a:	c3d8                	sw	a4,4(a5)
	RF->RF1 &= 0xfffffffe;
    225c:	43d8                	lw	a4,4(a5)
    225e:	9b79                	andi	a4,a4,-2
    2260:	c3d8                	sw	a4,4(a5)
	RF->RF10 |= 0x1000;
    2262:	5798                	lw	a4,40(a5)
    2264:	8f51                	or	a4,a4,a2
    2266:	d798                	sw	a4,40(a5)
	RF->RF11 |= 0x10;
    2268:	57d8                	lw	a4,44(a5)
    226a:	01076713          	ori	a4,a4,16
    226e:	d7d8                	sw	a4,44(a5)
	RF->TXTUNE_CTRL = (RF->TXTUNE_CTRL & 0xffffffc0) | (tune2440 & 0x3f);
    2270:	5f98                	lw	a4,56(a5)
    2272:	fc077713          	andi	a4,a4,-64
    2276:	8f55                	or	a4,a4,a3
    2278:	df98                	sw	a4,56(a5)
	RF->TXTUNE_CTRL = (RF->TXTUNE_CTRL & 0x80ffffff) | (tune2440 & 0x7f000000);
    227a:	5f98                	lw	a4,56(a5)
    227c:	810006b7          	lui	a3,0x81000
    2280:	16fd                	addi	a3,a3,-1 # 80ffffff <_eusrstack+0x60ffcfff>
    2282:	8f75                	and	a4,a4,a3
    2284:	7f0006b7          	lui	a3,0x7f000
    2288:	00d97933          	and	s2,s2,a3
    228c:	01276733          	or	a4,a4,s2
    2290:	df98                	sw	a4,56(a5)
	RF->RF1 |= 0x100;
    2292:	43d8                	lw	a4,4(a5)
	RF->RF20 &= 0xfffeffff;
    2294:	76c1                	lui	a3,0xffff0
    2296:	16fd                	addi	a3,a3,-1 # fffeffff <_eusrstack+0xdffecfff>
	RF->RF1 |= 0x100;
    2298:	10076713          	ori	a4,a4,256
    229c:	c3d8                	sw	a4,4(a5)
	RF->RF20 &= 0xfffeffff;
    229e:	4bb8                	lw	a4,80(a5)
    22a0:	8f75                	and	a4,a4,a3
    22a2:	cbb8                	sw	a4,80(a5)
	RF->RF2 |= 0x200000;
    22a4:	4798                	lw	a4,8(a5)
    22a6:	002006b7          	lui	a3,0x200
    22aa:	8f55                	or	a4,a4,a3
    22ac:	c798                	sw	a4,8(a5)
	RF->RF3 = (RF->RF3 & 0xffffffef) | 0x10;
    22ae:	47d8                	lw	a4,12(a5)
	LL->TMR = 100;
    22b0:	06400693          	li	a3,100
	RF->RF3 = (RF->RF3 & 0xffffffef) | 0x10;
    22b4:	01076713          	ori	a4,a4,16
    22b8:	c7d8                	sw	a4,12(a5)
	RF->RF1 |= 0x1000;
    22ba:	43d8                	lw	a4,4(a5)
    22bc:	8f51                	or	a4,a4,a2
    22be:	c3d8                	sw	a4,4(a5)
	LL->TMR = 100;
    22c0:	4000c737          	lui	a4,0x4000c
    22c4:	20070713          	addi	a4,a4,512 # 4000c200 <_eusrstack+0x20009200>
    22c8:	d374                	sw	a3,100(a4)
	while(LL->TMR && ((RF->RXTUNE >> 8) & 1));
    22ca:	5374                	lw	a3,100(a4)
    22cc:	c691                	beqz	a3,22d8 <main+0x4a6>
    22ce:	09c7a683          	lw	a3,156(a5)
    22d2:	1006f693          	andi	a3,a3,256
    22d6:	faf5                	bnez	a3,22ca <main+0x498>
	tuneFilter = RF->RXTUNE & 0x1f;
    22d8:	4000d7b7          	lui	a5,0x4000d
    22dc:	08078713          	addi	a4,a5,128 # 4000d080 <_eusrstack+0x2000a080>
    22e0:	4f58                	lw	a4,28(a4)
	RF->RF20 |= 0x10000;
    22e2:	6641                	lui	a2,0x10
	tuneFilter = RF->RXTUNE & 0x1f;
    22e4:	8b7d                	andi	a4,a4,31
    22e6:	66e1a423          	sw	a4,1640(gp) # 2000140c <tuneFilter>
	RF->RF20 |= 0x10000;
    22ea:	4bb8                	lw	a4,80(a5)
    22ec:	8f51                	or	a4,a4,a2
    22ee:	cbb8                	sw	a4,80(a5)
	RF->RF20 = (RF->RF20 & 0xffffffe0) | tuneFilter;
    22f0:	4bb8                	lw	a4,80(a5)
    22f2:	6681a603          	lw	a2,1640(gp) # 2000140c <tuneFilter>
    22f6:	9b01                	andi	a4,a4,-32
    22f8:	8f51                	or	a4,a4,a2
    22fa:	cbb8                	sw	a4,80(a5)
	RF->RF2 &= 0xffdfffff;
    22fc:	4798                	lw	a4,8(a5)
    22fe:	ffe00637          	lui	a2,0xffe00
    2302:	167d                	addi	a2,a2,-1 # ffdfffff <_eusrstack+0xdfdfcfff>
    2304:	8f71                	and	a4,a4,a2
    2306:	c798                	sw	a4,8(a5)
	tuneFilter2M = (tuneFilter +2 < 0x1f) ? (tuneFilter +2) : 0x1f;
    2308:	6681a703          	lw	a4,1640(gp) # 2000140c <tuneFilter>
    230c:	4679                	li	a2,30
    230e:	47fd                	li	a5,31
    2310:	0709                	addi	a4,a4,2
    2312:	00e66563          	bltu	a2,a4,231c <main+0x4ea>
    2316:	6681a783          	lw	a5,1640(gp) # 2000140c <tuneFilter>
    231a:	0789                	addi	a5,a5,2
    231c:	66f1a623          	sw	a5,1644(gp) # 20001410 <tuneFilter2M>
	RF->RF22 &= 0xfffeffff;
    2320:	4000d7b7          	lui	a5,0x4000d
    2324:	4fb8                	lw	a4,88(a5)
    2326:	76c1                	lui	a3,0xffff0
    2328:	16fd                	addi	a3,a3,-1 # fffeffff <_eusrstack+0xdffecfff>
    232a:	8f75                	and	a4,a4,a3
    232c:	cfb8                	sw	a4,88(a5)
	RF->RF2 |= 0x10000;
    232e:	4798                	lw	a4,8(a5)
    2330:	66c1                	lui	a3,0x10
	DevSetMode(0);
    2332:	4501                	li	a0,0
	RF->RF2 |= 0x10000;
    2334:	8f55                	or	a4,a4,a3
    2336:	c798                	sw	a4,8(a5)
	RF->RF3 = (RF->RF3 & 0xfffffeff) | 0x100;
    2338:	47d8                	lw	a4,12(a5)
	RF->RF1 = (RF->RF1 & 0xfffeffff) | 0x100000;
    233a:	ffef06b7          	lui	a3,0xffef0
    233e:	16fd                	addi	a3,a3,-1 # ffeeffff <_eusrstack+0xdfeecfff>
	RF->RF3 = (RF->RF3 & 0xfffffeff) | 0x100;
    2340:	10076713          	ori	a4,a4,256
    2344:	c7d8                	sw	a4,12(a5)
	RF->RF1 = (RF->RF1 & 0xfffeffff) | 0x100000;
    2346:	43d8                	lw	a4,4(a5)
	BeanboySetup();

	int frameno = 0;

	unsigned lastStart = 0;
    2348:	4901                	li	s2,0
    234a:	8f75                	and	a4,a4,a3
    234c:	001006b7          	lui	a3,0x100
    2350:	8f55                	or	a4,a4,a3
    2352:	c3d8                	sw	a4,4(a5)
	DevSetMode(0);
    2354:	88bfe0ef          	jal	bde <DevSetMode>
	NVIC->IPRIOR[0x15] |= 0x80;
    2358:	e000e7b7          	lui	a5,0xe000e
    235c:	4157c703          	lbu	a4,1045(a5) # e000e415 <_eusrstack+0xc000b415>
	Frame_RX(ACCESS_ADDRESS, channel, PHY_MODE);
    2360:	8e89c537          	lui	a0,0x8e89c
    2364:	4605                	li	a2,1
    2366:	08076713          	ori	a4,a4,128
    236a:	40e78aa3          	sb	a4,1045(a5)
	NVIC->IENR[((uint32_t)(IRQn) >> 5)] = (1 << ((uint32_t)(IRQn) & 0x1F));
    236e:	00200737          	lui	a4,0x200
    2372:	10e7a023          	sw	a4,256(a5)
    2376:	45b9                	li	a1,14
    2378:	ed650513          	addi	a0,a0,-298 # 8e89bed6 <_eusrstack+0x6e898ed6>
    237c:	1fffe097          	auipc	ra,0x1fffe
    2380:	e10080e7          	jalr	-496(ra) # 2000018c <iSLERRX>
	memset( m, 0, sizeof( *m ) );
    2384:	6601ac23          	sw	zero,1656(gp) # 2000141c <gameUnion+0x4>
	m->Update = ModeMenuLoop;
    2388:	6789                	lui	a5,0x2
    238a:	67418713          	addi	a4,gp,1652 # 20001418 <gameUnion>
    238e:	81478793          	addi	a5,a5,-2028 # 1814 <ModeMenuLoop>
    2392:	c31c                	sw	a5,0(a4)
	m->selectedEntry = 1;
    2394:	4785                	li	a5,1
    2396:	c71c                	sw	a5,8(a4)

	game = &gameUnion.template;

	SelectMode( 0 ); // Menu mode

	uint32_t lastClickedMask = 0;
    2398:	c402                	sw	zero,8(sp)
    239a:	67418b93          	addi	s7,gp,1652 # 20001418 <gameUnion>
    239e:	4c21                	li	s8,8
    23a0:	10000c93          	li	s9,256
    23a4:	20000d13          	li	s10,512
		switch( btn )
    23a8:	c63e                	sw	a5,12(sp)
    23aa:	4d89                	li	s11,2
		if( *((uint32_t*)0x4fff0000) == 0xaaaaaaaa )
    23ac:	4fff0b37          	lui	s6,0x4fff0
    23b0:	aaaabab7          	lui	s5,0xaaaab
    23b4:	8a22                	mv	s4,s0
	for( btn = 0; btn < 4; btn++ )
    23b6:	4481                	li	s1,0
		if( *((uint32_t*)0x4fff0000) == 0xaaaaaaaa )
    23b8:	aaaa8a93          	addi	s5,s5,-1366 # aaaaaaaa <_eusrstack+0x8aaa7aaa>
	switch(mode) {
    23bc:	4521                	li	a0,8
    23be:	a55fe0ef          	jal	e12 <funPinMode.part.0>
    23c2:	10000513          	li	a0,256
    23c6:	a4dfe0ef          	jal	e12 <funPinMode.part.0>
    23ca:	20000513          	li	a0,512
    23ce:	a45fe0ef          	jal	e12 <funPinMode.part.0>
		switch( btn )
    23d2:	47b2                	lw	a5,12(sp)
    23d4:	0cf48063          	beq	s1,a5,2494 <main+0x662>
    23d8:	0db48763          	beq	s1,s11,24a6 <main+0x674>
    23dc:	e889                	bnez	s1,23ee <main+0x5bc>
			funPinMode( PA8, GPIO_CFGLR_OUT_10Mhz_PP );
    23de:	10000513          	li	a0,256
    23e2:	d37fe0ef          	jal	1118 <funPinMode.constprop.0>
			funDigitalWrite( PA3, 1 );
    23e6:	400017b7          	lui	a5,0x40001
    23ea:	0b87ac23          	sw	s8,184(a5) # 400010b8 <_eusrstack+0x1fffe0b8>
		if( *((uint32_t*)0x4fff0000) == 0xaaaaaaaa )
    23ee:	000b2783          	lw	a5,0(s6) # 4fff0000 <_eusrstack+0x2ffed000>
    23f2:	0d579263          	bne	a5,s5,24b6 <main+0x684>
			p = *((uint32_t*)(0x4fff0004+4*btn));
    23f6:	00249793          	slli	a5,s1,0x2
    23fa:	97da                	add	a5,a5,s6
    23fc:	43dc                	lw	a5,4(a5)
		uint32_t fe = frameentropy;
    23fe:	65c1a683          	lw	a3,1628(gp) # 20001400 <frameentropy>
		pressures[btn] = p;
    2402:	00fa2023          	sw	a5,0(s4)
	for( btn = 0; btn < 4; btn++ )
    2406:	0485                	addi	s1,s1,1 # 4000d001 <_eusrstack+0x2000a001>
		fe += p;
    2408:	97b6                	add	a5,a5,a3
		fe ^= fe << 10;
    240a:	00a79693          	slli	a3,a5,0xa
    240e:	8fb5                	xor	a5,a5,a3
		fe ^= fe << 21;
    2410:	01579693          	slli	a3,a5,0x15
    2414:	8fb5                	xor	a5,a5,a3
		frameentropy = fe;
    2416:	64f1ae23          	sw	a5,1628(gp) # 20001400 <frameentropy>
	for( btn = 0; btn < 4; btn++ )
    241a:	4791                	li	a5,4
    241c:	0a11                	addi	s4,s4,4
    241e:	f8f49fe3          	bne	s1,a5,23bc <main+0x58a>
		// TODO: Make this debounce.
		int i;
		uint32_t clickedMask = 0;
		for( i = 0; i < 3; i++ )
		{
			if( pressures[i] > 5000 ) clickedMask |= 1<<i;
    2422:	54a2                	lw	s1,40(sp)
    2424:	6785                	lui	a5,0x1
    2426:	38878793          	addi	a5,a5,904 # 1388 <mini_vpprintf+0x18e>
    242a:	5732                	lw	a4,44(sp)
    242c:	0097b4b3          	sltu	s1,a5,s1
    2430:	6785                	lui	a5,0x1
    2432:	38878793          	addi	a5,a5,904 # 1388 <mini_vpprintf+0x18e>
    2436:	00e7f463          	bgeu	a5,a4,243e <main+0x60c>
    243a:	0024e493          	ori	s1,s1,2
    243e:	5742                	lw	a4,48(sp)
    2440:	00e7f463          	bgeu	a5,a4,2448 <main+0x616>
    2444:	0044e493          	ori	s1,s1,4
		}

		unsigned now = SysTick->CNT;
    2448:	e000f7b7          	lui	a5,0xe000f
    244c:	0087aa03          	lw	s4,8(a5) # e000f008 <_eusrstack+0xc000c008>
		unsigned deltaUS = (now - lastStart)/48; // Wacky math to make sure we don't lose microseconds.
    2450:	03000793          	li	a5,48
    2454:	412a0a33          	sub	s4,s4,s2
    2458:	02fa5a33          	divu	s4,s4,a5
		if( gameUnion.template.Update )
    245c:	000ba783          	lw	a5,0(s7)
    2460:	cb81                	beqz	a5,2470 <main+0x63e>
		{
			gameUnion.template.Update( &gameUnion, deltaUS, pressures, clickedMask, lastClickedMask );
    2462:	4722                	lw	a4,8(sp)
    2464:	86a6                	mv	a3,s1
    2466:	8622                	mv	a2,s0
    2468:	85d2                	mv	a1,s4
    246a:	67418513          	addi	a0,gp,1652 # 20001418 <gameUnion>
    246e:	9782                	jalr	a5
		}
		lastStart += deltaUS * 48;
    2470:	03000793          	li	a5,48
    2474:	02fa0a33          	mul	s4,s4,a5
    2478:	9952                	add	s2,s2,s4
		frameno++;

		// EMULATOR ONLY! BB19 contains a pointer to an incoming packet.
		while( BB->BB19 )
    247a:	4000ca37          	lui	s4,0x4000c
    247e:	100a0a13          	addi	s4,s4,256 # 4000c100 <_eusrstack+0x20009100>
    2482:	04ca2783          	lw	a5,76(s4)
    2486:	e3b5                	bnez	a5,24ea <main+0x6b8>

	int rssi = ReadRSSI();
	int len = frame[0];
	ISLERCallback( frame+2, frame+10, len+4, rssi );
}*/
		lastClickedMask = clickedMask;
    2488:	c426                	sw	s1,8(sp)
	{
    248a:	b71d                	j	23b0 <main+0x57e>
		if(ssd1306_cmd(*cmd_list++))
    248c:	0485                	addi	s1,s1,1
    248e:	bfdfe0ef          	jal	108a <ssd1306_cmd.isra.0>
    2492:	b611                	j	1f96 <main+0x164>
			funPinMode( PA9, GPIO_CFGLR_OUT_10Mhz_PP );
    2494:	20000513          	li	a0,512
    2498:	c81fe0ef          	jal	1118 <funPinMode.constprop.0>
			funDigitalWrite( PA8, 1 );
    249c:	400017b7          	lui	a5,0x40001
    24a0:	0b97ac23          	sw	s9,184(a5) # 400010b8 <_eusrstack+0x1fffe0b8>
			break;
    24a4:	b7a9                	j	23ee <main+0x5bc>
			funPinMode( PA3, GPIO_CFGLR_OUT_10Mhz_PP );
    24a6:	4521                	li	a0,8
    24a8:	c71fe0ef          	jal	1118 <funPinMode.constprop.0>
			funDigitalWrite( PA9, 1 );
    24ac:	400017b7          	lui	a5,0x40001
    24b0:	0ba7ac23          	sw	s10,184(a5) # 400010b8 <_eusrstack+0x1fffe0b8>
			break;
    24b4:	bf2d                	j	23ee <main+0x5bc>
			lastfifo = 0;
    24b6:	6601a223          	sw	zero,1636(gp) # 20001408 <lastfifo>
			EventRelease();
    24ba:	1fffe097          	auipc	ra,0x1fffe
    24be:	b46080e7          	jalr	-1210(ra) # 20000000 <EventRelease>
			while( !lastfifo && --to );
    24c2:	6785                	lui	a5,0x1
    24c4:	fa078793          	addi	a5,a5,-96 # fa0 <_write.constprop.0+0x78>
    24c8:	6641a683          	lw	a3,1636(gp) # 20001408 <lastfifo>
    24cc:	e299                	bnez	a3,24d2 <main+0x6a0>
    24ce:	17fd                	addi	a5,a5,-1
    24d0:	ffe5                	bnez	a5,24c8 <main+0x696>
			int r = lastfifo - 2; // 2 cycles back.
    24d2:	6641a703          	lw	a4,1636(gp) # 20001408 <lastfifo>
			int vtot = COEFFICIENT/r + ((const uint32_t)(VREF*FIXEDPOINT_SCALE));
    24d6:	0034e7b7          	lui	a5,0x34e
    24da:	f2878793          	addi	a5,a5,-216 # 34df28 <_data_lma+0x348e00>
			int r = lastfifo - 2; // 2 cycles back.
    24de:	1779                	addi	a4,a4,-2 # 1ffffe <_data_lma+0x1faed6>
			int vtot = COEFFICIENT/r + ((const uint32_t)(VREF*FIXEDPOINT_SCALE));
    24e0:	02e7d7b3          	divu	a5,a5,a4
    24e4:	06978793          	addi	a5,a5,105
    24e8:	bf19                	j	23fe <main+0x5cc>
			ISLER_BEANBOY_INTERNAL_CALLBACK();
    24ea:	e16ff0ef          	jal	1b00 <ISLER_BEANBOY_INTERNAL_CALLBACK>
			BB->BB19 = 0;
    24ee:	040a2623          	sw	zero,76(s4)
    24f2:	bf41                	j	2482 <main+0x650>

000024f4 <ModeTestLoop>:
{
    24f4:	1141                	addi	sp,sp,-16
    24f6:	c606                	sw	ra,12(sp)
	CoreLoop();
    24f8:	1fffe097          	auipc	ra,0x1fffe
    24fc:	30e080e7          	jalr	782(ra) # 20000806 <CoreLoop>

00002500 <__divdi3>:
    2500:	4801                	li	a6,0
    2502:	0e05c863          	bltz	a1,25f2 <__divdi3+0xf2>
    2506:	0006db63          	bgez	a3,251c <__divdi3+0x1c>
    250a:	00c037b3          	snez	a5,a2
    250e:	40d006b3          	neg	a3,a3
    2512:	fff84813          	not	a6,a6
    2516:	8e9d                	sub	a3,a3,a5
    2518:	40c00633          	neg	a2,a2
    251c:	88b2                	mv	a7,a2
    251e:	87aa                	mv	a5,a0
    2520:	832e                	mv	t1,a1
    2522:	e2f9                	bnez	a3,25e8 <__divdi3+0xe8>
    2524:	12c5f163          	bgeu	a1,a2,2646 <__divdi3+0x146>
    2528:	6741                	lui	a4,0x10
    252a:	1ae66c63          	bltu	a2,a4,26e2 <__divdi3+0x1e2>
    252e:	01000737          	lui	a4,0x1000
    2532:	46e1                	li	a3,24
    2534:	00e67363          	bgeu	a2,a4,253a <__divdi3+0x3a>
    2538:	46c1                	li	a3,16
    253a:	00d65e33          	srl	t3,a2,a3
    253e:	00003717          	auipc	a4,0x3
    2542:	aea70713          	addi	a4,a4,-1302 # 5028 <__clz_tab>
    2546:	9772                	add	a4,a4,t3
    2548:	00074703          	lbu	a4,0(a4)
    254c:	02000e13          	li	t3,32
    2550:	9736                	add	a4,a4,a3
    2552:	40ee06b3          	sub	a3,t3,a4
    2556:	00ee0c63          	beq	t3,a4,256e <__divdi3+0x6e>
    255a:	00d59333          	sll	t1,a1,a3
    255e:	00e55733          	srl	a4,a0,a4
    2562:	00676333          	or	t1,a4,t1
    2566:	00d618b3          	sll	a7,a2,a3
    256a:	00d517b3          	sll	a5,a0,a3
    256e:	0108d613          	srli	a2,a7,0x10
    2572:	02c35533          	divu	a0,t1,a2
    2576:	01089693          	slli	a3,a7,0x10
    257a:	82c1                	srli	a3,a3,0x10
    257c:	0107d713          	srli	a4,a5,0x10
    2580:	02c37333          	remu	t1,t1,a2
    2584:	02a685b3          	mul	a1,a3,a0
    2588:	0342                	slli	t1,t1,0x10
    258a:	00676733          	or	a4,a4,t1
    258e:	00b77a63          	bgeu	a4,a1,25a2 <__divdi3+0xa2>
    2592:	9746                	add	a4,a4,a7
    2594:	fff50313          	addi	t1,a0,-1
    2598:	01176463          	bltu	a4,a7,25a0 <__divdi3+0xa0>
    259c:	32b76c63          	bltu	a4,a1,28d4 <__divdi3+0x3d4>
    25a0:	851a                	mv	a0,t1
    25a2:	8f0d                	sub	a4,a4,a1
    25a4:	02c755b3          	divu	a1,a4,a2
    25a8:	07c2                	slli	a5,a5,0x10
    25aa:	83c1                	srli	a5,a5,0x10
    25ac:	02c77733          	remu	a4,a4,a2
    25b0:	02b686b3          	mul	a3,a3,a1
    25b4:	0742                	slli	a4,a4,0x10
    25b6:	8fd9                	or	a5,a5,a4
    25b8:	00d7fb63          	bgeu	a5,a3,25ce <__divdi3+0xce>
    25bc:	97c6                	add	a5,a5,a7
    25be:	fff58713          	addi	a4,a1,-1
    25c2:	0117e563          	bltu	a5,a7,25cc <__divdi3+0xcc>
    25c6:	15f9                	addi	a1,a1,-2
    25c8:	00d7e363          	bltu	a5,a3,25ce <__divdi3+0xce>
    25cc:	85ba                	mv	a1,a4
    25ce:	0542                	slli	a0,a0,0x10
    25d0:	8d4d                	or	a0,a0,a1
    25d2:	4581                	li	a1,0
    25d4:	00080963          	beqz	a6,25e6 <__divdi3+0xe6>
    25d8:	00a037b3          	snez	a5,a0
    25dc:	40b005b3          	neg	a1,a1
    25e0:	8d9d                	sub	a1,a1,a5
    25e2:	40a00533          	neg	a0,a0
    25e6:	8082                	ret
    25e8:	00d5fe63          	bgeu	a1,a3,2604 <__divdi3+0x104>
    25ec:	4581                	li	a1,0
    25ee:	4501                	li	a0,0
    25f0:	b7d5                	j	25d4 <__divdi3+0xd4>
    25f2:	00a037b3          	snez	a5,a0
    25f6:	40b005b3          	neg	a1,a1
    25fa:	8d9d                	sub	a1,a1,a5
    25fc:	40a00533          	neg	a0,a0
    2600:	587d                	li	a6,-1
    2602:	b711                	j	2506 <__divdi3+0x6>
    2604:	67c1                	lui	a5,0x10
    2606:	18f6e663          	bltu	a3,a5,2792 <__divdi3+0x292>
    260a:	01000737          	lui	a4,0x1000
    260e:	47e1                	li	a5,24
    2610:	00e6f363          	bgeu	a3,a4,2616 <__divdi3+0x116>
    2614:	47c1                	li	a5,16
    2616:	00f6d8b3          	srl	a7,a3,a5
    261a:	00003717          	auipc	a4,0x3
    261e:	a0e70713          	addi	a4,a4,-1522 # 5028 <__clz_tab>
    2622:	9746                	add	a4,a4,a7
    2624:	00074703          	lbu	a4,0(a4)
    2628:	02000313          	li	t1,32
    262c:	973e                	add	a4,a4,a5
    262e:	40e308b3          	sub	a7,t1,a4
    2632:	18e31563          	bne	t1,a4,27bc <__divdi3+0x2bc>
    2636:	28b6e163          	bltu	a3,a1,28b8 <__divdi3+0x3b8>
    263a:	00c53533          	sltu	a0,a0,a2
    263e:	00153513          	seqz	a0,a0
    2642:	4581                	li	a1,0
    2644:	bf41                	j	25d4 <__divdi3+0xd4>
    2646:	c645                	beqz	a2,26ee <__divdi3+0x1ee>
    2648:	6741                	lui	a4,0x10
    264a:	24e67f63          	bgeu	a2,a4,28a8 <__divdi3+0x3a8>
    264e:	10063693          	sltiu	a3,a2,256
    2652:	0016b693          	seqz	a3,a3
    2656:	068e                	slli	a3,a3,0x3
    2658:	00d65333          	srl	t1,a2,a3
    265c:	00003717          	auipc	a4,0x3
    2660:	9cc70713          	addi	a4,a4,-1588 # 5028 <__clz_tab>
    2664:	971a                	add	a4,a4,t1
    2666:	00074703          	lbu	a4,0(a4)
    266a:	02000313          	li	t1,32
    266e:	9736                	add	a4,a4,a3
    2670:	40e30f33          	sub	t5,t1,a4
    2674:	08e31d63          	bne	t1,a4,270e <__divdi3+0x20e>
    2678:	40c58733          	sub	a4,a1,a2
    267c:	01065313          	srli	t1,a2,0x10
    2680:	0642                	slli	a2,a2,0x10
    2682:	8241                	srli	a2,a2,0x10
    2684:	4585                	li	a1,1
    2686:	02675533          	divu	a0,a4,t1
    268a:	0107d693          	srli	a3,a5,0x10
    268e:	02677733          	remu	a4,a4,t1
    2692:	02c50e33          	mul	t3,a0,a2
    2696:	0742                	slli	a4,a4,0x10
    2698:	8f55                	or	a4,a4,a3
    269a:	01c77a63          	bgeu	a4,t3,26ae <__divdi3+0x1ae>
    269e:	9746                	add	a4,a4,a7
    26a0:	fff50693          	addi	a3,a0,-1
    26a4:	01176463          	bltu	a4,a7,26ac <__divdi3+0x1ac>
    26a8:	23c76363          	bltu	a4,t3,28ce <__divdi3+0x3ce>
    26ac:	8536                	mv	a0,a3
    26ae:	41c70733          	sub	a4,a4,t3
    26b2:	026756b3          	divu	a3,a4,t1
    26b6:	07c2                	slli	a5,a5,0x10
    26b8:	83c1                	srli	a5,a5,0x10
    26ba:	02677733          	remu	a4,a4,t1
    26be:	02c68633          	mul	a2,a3,a2
    26c2:	0742                	slli	a4,a4,0x10
    26c4:	8fd9                	or	a5,a5,a4
    26c6:	00c7fb63          	bgeu	a5,a2,26dc <__divdi3+0x1dc>
    26ca:	97c6                	add	a5,a5,a7
    26cc:	fff68713          	addi	a4,a3,-1 # fffff <_data_lma+0xfaed7>
    26d0:	0117e563          	bltu	a5,a7,26da <__divdi3+0x1da>
    26d4:	16f9                	addi	a3,a3,-2
    26d6:	00c7e363          	bltu	a5,a2,26dc <__divdi3+0x1dc>
    26da:	86ba                	mv	a3,a4
    26dc:	0542                	slli	a0,a0,0x10
    26de:	8d55                	or	a0,a0,a3
    26e0:	bdd5                	j	25d4 <__divdi3+0xd4>
    26e2:	10063693          	sltiu	a3,a2,256
    26e6:	0016b693          	seqz	a3,a3
    26ea:	068e                	slli	a3,a3,0x3
    26ec:	b5b9                	j	253a <__divdi3+0x3a>
    26ee:	4301                	li	t1,0
    26f0:	00003717          	auipc	a4,0x3
    26f4:	93870713          	addi	a4,a4,-1736 # 5028 <__clz_tab>
    26f8:	971a                	add	a4,a4,t1
    26fa:	00074703          	lbu	a4,0(a4)
    26fe:	4681                	li	a3,0
    2700:	02000313          	li	t1,32
    2704:	9736                	add	a4,a4,a3
    2706:	40e30f33          	sub	t5,t1,a4
    270a:	f6e307e3          	beq	t1,a4,2678 <__divdi3+0x178>
    270e:	01e618b3          	sll	a7,a2,t5
    2712:	00e5de33          	srl	t3,a1,a4
    2716:	0108d313          	srli	t1,a7,0x10
    271a:	026e5eb3          	divu	t4,t3,t1
    271e:	01089613          	slli	a2,a7,0x10
    2722:	01e595b3          	sll	a1,a1,t5
    2726:	8241                	srli	a2,a2,0x10
    2728:	00e55733          	srl	a4,a0,a4
    272c:	8f4d                	or	a4,a4,a1
    272e:	01075693          	srli	a3,a4,0x10
    2732:	01e517b3          	sll	a5,a0,t5
    2736:	026e7e33          	remu	t3,t3,t1
    273a:	03d605b3          	mul	a1,a2,t4
    273e:	0e42                	slli	t3,t3,0x10
    2740:	01c6e6b3          	or	a3,a3,t3
    2744:	00b6fb63          	bgeu	a3,a1,275a <__divdi3+0x25a>
    2748:	96c6                	add	a3,a3,a7
    274a:	fffe8513          	addi	a0,t4,-1
    274e:	1716ec63          	bltu	a3,a7,28c6 <__divdi3+0x3c6>
    2752:	16b6fa63          	bgeu	a3,a1,28c6 <__divdi3+0x3c6>
    2756:	1ef9                	addi	t4,t4,-2
    2758:	96c6                	add	a3,a3,a7
    275a:	8e8d                	sub	a3,a3,a1
    275c:	0266d533          	divu	a0,a3,t1
    2760:	0742                	slli	a4,a4,0x10
    2762:	8341                	srli	a4,a4,0x10
    2764:	0266f6b3          	remu	a3,a3,t1
    2768:	02a60e33          	mul	t3,a2,a0
    276c:	06c2                	slli	a3,a3,0x10
    276e:	8f55                	or	a4,a4,a3
    2770:	01c77b63          	bgeu	a4,t3,2786 <__divdi3+0x286>
    2774:	9746                	add	a4,a4,a7
    2776:	fff50693          	addi	a3,a0,-1
    277a:	15176263          	bltu	a4,a7,28be <__divdi3+0x3be>
    277e:	15c77063          	bgeu	a4,t3,28be <__divdi3+0x3be>
    2782:	1579                	addi	a0,a0,-2
    2784:	9746                	add	a4,a4,a7
    2786:	010e9593          	slli	a1,t4,0x10
    278a:	8dc9                	or	a1,a1,a0
    278c:	41c70733          	sub	a4,a4,t3
    2790:	bddd                	j	2686 <__divdi3+0x186>
    2792:	1006b793          	sltiu	a5,a3,256
    2796:	0017b793          	seqz	a5,a5
    279a:	078e                	slli	a5,a5,0x3
    279c:	00f6d8b3          	srl	a7,a3,a5
    27a0:	00003717          	auipc	a4,0x3
    27a4:	88870713          	addi	a4,a4,-1912 # 5028 <__clz_tab>
    27a8:	9746                	add	a4,a4,a7
    27aa:	00074703          	lbu	a4,0(a4)
    27ae:	02000313          	li	t1,32
    27b2:	973e                	add	a4,a4,a5
    27b4:	40e308b3          	sub	a7,t1,a4
    27b8:	e6e30fe3          	beq	t1,a4,2636 <__divdi3+0x136>
    27bc:	00e65eb3          	srl	t4,a2,a4
    27c0:	011696b3          	sll	a3,a3,a7
    27c4:	00deeeb3          	or	t4,t4,a3
    27c8:	00e5d333          	srl	t1,a1,a4
    27cc:	010edf13          	srli	t5,t4,0x10
    27d0:	03e357b3          	divu	a5,t1,t5
    27d4:	010e9e13          	slli	t3,t4,0x10
    27d8:	011595b3          	sll	a1,a1,a7
    27dc:	010e5e13          	srli	t3,t3,0x10
    27e0:	00e55733          	srl	a4,a0,a4
    27e4:	8f4d                	or	a4,a4,a1
    27e6:	01075693          	srli	a3,a4,0x10
    27ea:	01161633          	sll	a2,a2,a7
    27ee:	03e37333          	remu	t1,t1,t5
    27f2:	02fe05b3          	mul	a1,t3,a5
    27f6:	0342                	slli	t1,t1,0x10
    27f8:	0066e6b3          	or	a3,a3,t1
    27fc:	00b6fb63          	bgeu	a3,a1,2812 <__divdi3+0x312>
    2800:	96f6                	add	a3,a3,t4
    2802:	fff78313          	addi	t1,a5,-1 # ffff <_data_lma+0xaed7>
    2806:	0dd6e263          	bltu	a3,t4,28ca <__divdi3+0x3ca>
    280a:	0cb6f063          	bgeu	a3,a1,28ca <__divdi3+0x3ca>
    280e:	17f9                	addi	a5,a5,-2
    2810:	96f6                	add	a3,a3,t4
    2812:	8e8d                	sub	a3,a3,a1
    2814:	03e6d333          	divu	t1,a3,t5
    2818:	0742                	slli	a4,a4,0x10
    281a:	8341                	srli	a4,a4,0x10
    281c:	03e6f6b3          	remu	a3,a3,t5
    2820:	026e05b3          	mul	a1,t3,t1
    2824:	06c2                	slli	a3,a3,0x10
    2826:	8f55                	or	a4,a4,a3
    2828:	00b77b63          	bgeu	a4,a1,283e <__divdi3+0x33e>
    282c:	9776                	add	a4,a4,t4
    282e:	fff30693          	addi	a3,t1,-1
    2832:	09d76863          	bltu	a4,t4,28c2 <__divdi3+0x3c2>
    2836:	08b77663          	bgeu	a4,a1,28c2 <__divdi3+0x3c2>
    283a:	1379                	addi	t1,t1,-2
    283c:	9776                	add	a4,a4,t4
    283e:	07c2                	slli	a5,a5,0x10
    2840:	01031693          	slli	a3,t1,0x10
    2844:	01061e13          	slli	t3,a2,0x10
    2848:	0067e7b3          	or	a5,a5,t1
    284c:	82c1                	srli	a3,a3,0x10
    284e:	010e5e13          	srli	t3,t3,0x10
    2852:	0107d313          	srli	t1,a5,0x10
    2856:	8241                	srli	a2,a2,0x10
    2858:	03c30eb3          	mul	t4,t1,t3
    285c:	8f0d                	sub	a4,a4,a1
    285e:	03c68e33          	mul	t3,a3,t3
    2862:	02c686b3          	mul	a3,a3,a2
    2866:	010e5593          	srli	a1,t3,0x10
    286a:	96f6                	add	a3,a3,t4
    286c:	96ae                	add	a3,a3,a1
    286e:	02c30333          	mul	t1,t1,a2
    2872:	01d6f463          	bgeu	a3,t4,287a <__divdi3+0x37a>
    2876:	6641                	lui	a2,0x10
    2878:	9332                	add	t1,t1,a2
    287a:	0106d613          	srli	a2,a3,0x10
    287e:	961a                	add	a2,a2,t1
    2880:	02c76063          	bltu	a4,a2,28a0 <__divdi3+0x3a0>
    2884:	00c70563          	beq	a4,a2,288e <__divdi3+0x38e>
    2888:	853e                	mv	a0,a5
    288a:	4581                	li	a1,0
    288c:	b3a1                	j	25d4 <__divdi3+0xd4>
    288e:	0e42                	slli	t3,t3,0x10
    2890:	010e5e13          	srli	t3,t3,0x10
    2894:	06c2                	slli	a3,a3,0x10
    2896:	01151533          	sll	a0,a0,a7
    289a:	96f2                	add	a3,a3,t3
    289c:	fed576e3          	bgeu	a0,a3,2888 <__divdi3+0x388>
    28a0:	fff78513          	addi	a0,a5,-1
    28a4:	4581                	li	a1,0
    28a6:	b33d                	j	25d4 <__divdi3+0xd4>
    28a8:	01000737          	lui	a4,0x1000
    28ac:	02e67763          	bgeu	a2,a4,28da <__divdi3+0x3da>
    28b0:	01065313          	srli	t1,a2,0x10
    28b4:	46c1                	li	a3,16
    28b6:	b35d                	j	265c <__divdi3+0x15c>
    28b8:	4581                	li	a1,0
    28ba:	4505                	li	a0,1
    28bc:	bb21                	j	25d4 <__divdi3+0xd4>
    28be:	8536                	mv	a0,a3
    28c0:	b5d9                	j	2786 <__divdi3+0x286>
    28c2:	8336                	mv	t1,a3
    28c4:	bfad                	j	283e <__divdi3+0x33e>
    28c6:	8eaa                	mv	t4,a0
    28c8:	bd49                	j	275a <__divdi3+0x25a>
    28ca:	879a                	mv	a5,t1
    28cc:	b799                	j	2812 <__divdi3+0x312>
    28ce:	1579                	addi	a0,a0,-2
    28d0:	9746                	add	a4,a4,a7
    28d2:	bbf1                	j	26ae <__divdi3+0x1ae>
    28d4:	1579                	addi	a0,a0,-2
    28d6:	9746                	add	a4,a4,a7
    28d8:	b1e9                	j	25a2 <__divdi3+0xa2>
    28da:	01865313          	srli	t1,a2,0x18
    28de:	46e1                	li	a3,24
    28e0:	bbb5                	j	265c <__divdi3+0x15c>

000028e2 <__moddi3>:
    28e2:	4701                	li	a4,0
    28e4:	1205c563          	bltz	a1,2a0e <__moddi3+0x12c>
    28e8:	0006d963          	bgez	a3,28fa <__moddi3+0x18>
    28ec:	00c037b3          	snez	a5,a2
    28f0:	40d006b3          	neg	a3,a3
    28f4:	8e9d                	sub	a3,a3,a5
    28f6:	40c00633          	neg	a2,a2
    28fa:	8832                	mv	a6,a2
    28fc:	832a                	mv	t1,a0
    28fe:	8e2e                	mv	t3,a1
    2900:	eed5                	bnez	a3,29bc <__moddi3+0xda>
    2902:	10c5ff63          	bgeu	a1,a2,2a20 <__moddi3+0x13e>
    2906:	67c1                	lui	a5,0x10
    2908:	18f66e63          	bltu	a2,a5,2aa4 <__moddi3+0x1c2>
    290c:	010007b7          	lui	a5,0x1000
    2910:	46e1                	li	a3,24
    2912:	00f67363          	bgeu	a2,a5,2918 <__moddi3+0x36>
    2916:	46c1                	li	a3,16
    2918:	00d658b3          	srl	a7,a2,a3
    291c:	00002797          	auipc	a5,0x2
    2920:	70c78793          	addi	a5,a5,1804 # 5028 <__clz_tab>
    2924:	97c6                	add	a5,a5,a7
    2926:	0007c783          	lbu	a5,0(a5)
    292a:	02000e93          	li	t4,32
    292e:	97b6                	add	a5,a5,a3
    2930:	40fe88b3          	sub	a7,t4,a5
    2934:	00fe8c63          	beq	t4,a5,294c <__moddi3+0x6a>
    2938:	01159e33          	sll	t3,a1,a7
    293c:	00f557b3          	srl	a5,a0,a5
    2940:	01c7ee33          	or	t3,a5,t3
    2944:	01161833          	sll	a6,a2,a7
    2948:	01151333          	sll	t1,a0,a7
    294c:	01085613          	srli	a2,a6,0x10
    2950:	02ce56b3          	divu	a3,t3,a2
    2954:	01081593          	slli	a1,a6,0x10
    2958:	81c1                	srli	a1,a1,0x10
    295a:	01035793          	srli	a5,t1,0x10
    295e:	02ce7e33          	remu	t3,t3,a2
    2962:	02b686b3          	mul	a3,a3,a1
    2966:	0e42                	slli	t3,t3,0x10
    2968:	01c7e7b3          	or	a5,a5,t3
    296c:	00d7f763          	bgeu	a5,a3,297a <__moddi3+0x98>
    2970:	97c2                	add	a5,a5,a6
    2972:	0107e463          	bltu	a5,a6,297a <__moddi3+0x98>
    2976:	30d7ef63          	bltu	a5,a3,2c94 <__moddi3+0x3b2>
    297a:	8f95                	sub	a5,a5,a3
    297c:	02c7d6b3          	divu	a3,a5,a2
    2980:	01031513          	slli	a0,t1,0x10
    2984:	8141                	srli	a0,a0,0x10
    2986:	02c7f7b3          	remu	a5,a5,a2
    298a:	02b686b3          	mul	a3,a3,a1
    298e:	07c2                	slli	a5,a5,0x10
    2990:	8d5d                	or	a0,a0,a5
    2992:	00d57863          	bgeu	a0,a3,29a2 <__moddi3+0xc0>
    2996:	9542                	add	a0,a0,a6
    2998:	01056563          	bltu	a0,a6,29a2 <__moddi3+0xc0>
    299c:	00d57363          	bgeu	a0,a3,29a2 <__moddi3+0xc0>
    29a0:	9542                	add	a0,a0,a6
    29a2:	8d15                	sub	a0,a0,a3
    29a4:	01155533          	srl	a0,a0,a7
    29a8:	4581                	li	a1,0
    29aa:	cb01                	beqz	a4,29ba <__moddi3+0xd8>
    29ac:	00a037b3          	snez	a5,a0
    29b0:	40b005b3          	neg	a1,a1
    29b4:	8d9d                	sub	a1,a1,a5
    29b6:	40a00533          	neg	a0,a0
    29ba:	8082                	ret
    29bc:	fed5e7e3          	bltu	a1,a3,29aa <__moddi3+0xc8>
    29c0:	67c1                	lui	a5,0x10
    29c2:	16f6ef63          	bltu	a3,a5,2b40 <__moddi3+0x25e>
    29c6:	01000837          	lui	a6,0x1000
    29ca:	47e1                	li	a5,24
    29cc:	0106f363          	bgeu	a3,a6,29d2 <__moddi3+0xf0>
    29d0:	47c1                	li	a5,16
    29d2:	00f6d8b3          	srl	a7,a3,a5
    29d6:	00002817          	auipc	a6,0x2
    29da:	65280813          	addi	a6,a6,1618 # 5028 <__clz_tab>
    29de:	9846                	add	a6,a6,a7
    29e0:	00084803          	lbu	a6,0(a6)
    29e4:	02000e13          	li	t3,32
    29e8:	983e                	add	a6,a6,a5
    29ea:	410e08b3          	sub	a7,t3,a6
    29ee:	170e1e63          	bne	t3,a6,2b6a <__moddi3+0x288>
    29f2:	00b6e463          	bltu	a3,a1,29fa <__moddi3+0x118>
    29f6:	00c56a63          	bltu	a0,a2,2a0a <__moddi3+0x128>
    29fa:	40c50333          	sub	t1,a0,a2
    29fe:	00653533          	sltu	a0,a0,t1
    2a02:	40d586b3          	sub	a3,a1,a3
    2a06:	40a685b3          	sub	a1,a3,a0
    2a0a:	851a                	mv	a0,t1
    2a0c:	bf79                	j	29aa <__moddi3+0xc8>
    2a0e:	00a037b3          	snez	a5,a0
    2a12:	40b005b3          	neg	a1,a1
    2a16:	8d9d                	sub	a1,a1,a5
    2a18:	40a00533          	neg	a0,a0
    2a1c:	577d                	li	a4,-1
    2a1e:	b5e9                	j	28e8 <__moddi3+0x6>
    2a20:	ca41                	beqz	a2,2ab0 <__moddi3+0x1ce>
    2a22:	67c1                	lui	a5,0x10
    2a24:	24f67c63          	bgeu	a2,a5,2c7c <__moddi3+0x39a>
    2a28:	10063693          	sltiu	a3,a2,256
    2a2c:	0016b693          	seqz	a3,a3
    2a30:	068e                	slli	a3,a3,0x3
    2a32:	00d658b3          	srl	a7,a2,a3
    2a36:	00002797          	auipc	a5,0x2
    2a3a:	5f278793          	addi	a5,a5,1522 # 5028 <__clz_tab>
    2a3e:	97c6                	add	a5,a5,a7
    2a40:	0007c783          	lbu	a5,0(a5)
    2a44:	02000e13          	li	t3,32
    2a48:	97b6                	add	a5,a5,a3
    2a4a:	40fe08b3          	sub	a7,t3,a5
    2a4e:	08fe1163          	bne	t3,a5,2ad0 <__moddi3+0x1ee>
    2a52:	40c586b3          	sub	a3,a1,a2
    2a56:	01065e13          	srli	t3,a2,0x10
    2a5a:	0642                	slli	a2,a2,0x10
    2a5c:	8241                	srli	a2,a2,0x10
    2a5e:	03c6d5b3          	divu	a1,a3,t3
    2a62:	01035793          	srli	a5,t1,0x10
    2a66:	03c6f6b3          	remu	a3,a3,t3
    2a6a:	02c585b3          	mul	a1,a1,a2
    2a6e:	06c2                	slli	a3,a3,0x10
    2a70:	8fd5                	or	a5,a5,a3
    2a72:	00b7f863          	bgeu	a5,a1,2a82 <__moddi3+0x1a0>
    2a76:	97c2                	add	a5,a5,a6
    2a78:	0107e563          	bltu	a5,a6,2a82 <__moddi3+0x1a0>
    2a7c:	00b7f363          	bgeu	a5,a1,2a82 <__moddi3+0x1a0>
    2a80:	97c2                	add	a5,a5,a6
    2a82:	8f8d                	sub	a5,a5,a1
    2a84:	03c7d6b3          	divu	a3,a5,t3
    2a88:	0342                	slli	t1,t1,0x10
    2a8a:	01035313          	srli	t1,t1,0x10
    2a8e:	03c7f7b3          	remu	a5,a5,t3
    2a92:	02c686b3          	mul	a3,a3,a2
    2a96:	01079513          	slli	a0,a5,0x10
    2a9a:	00a36533          	or	a0,t1,a0
    2a9e:	f0d572e3          	bgeu	a0,a3,29a2 <__moddi3+0xc0>
    2aa2:	bdd5                	j	2996 <__moddi3+0xb4>
    2aa4:	10063693          	sltiu	a3,a2,256
    2aa8:	0016b693          	seqz	a3,a3
    2aac:	068e                	slli	a3,a3,0x3
    2aae:	b5ad                	j	2918 <__moddi3+0x36>
    2ab0:	4881                	li	a7,0
    2ab2:	00002797          	auipc	a5,0x2
    2ab6:	57678793          	addi	a5,a5,1398 # 5028 <__clz_tab>
    2aba:	97c6                	add	a5,a5,a7
    2abc:	0007c783          	lbu	a5,0(a5)
    2ac0:	4681                	li	a3,0
    2ac2:	02000e13          	li	t3,32
    2ac6:	97b6                	add	a5,a5,a3
    2ac8:	40fe08b3          	sub	a7,t3,a5
    2acc:	f8fe03e3          	beq	t3,a5,2a52 <__moddi3+0x170>
    2ad0:	01161833          	sll	a6,a2,a7
    2ad4:	00f5deb3          	srl	t4,a1,a5
    2ad8:	01085e13          	srli	t3,a6,0x10
    2adc:	03cedf33          	divu	t5,t4,t3
    2ae0:	01081613          	slli	a2,a6,0x10
    2ae4:	011595b3          	sll	a1,a1,a7
    2ae8:	00f556b3          	srl	a3,a0,a5
    2aec:	8241                	srli	a2,a2,0x10
    2aee:	8ecd                	or	a3,a3,a1
    2af0:	0106d793          	srli	a5,a3,0x10
    2af4:	01151333          	sll	t1,a0,a7
    2af8:	03cefeb3          	remu	t4,t4,t3
    2afc:	02cf05b3          	mul	a1,t5,a2
    2b00:	0ec2                	slli	t4,t4,0x10
    2b02:	01d7e7b3          	or	a5,a5,t4
    2b06:	00b7f863          	bgeu	a5,a1,2b16 <__moddi3+0x234>
    2b0a:	97c2                	add	a5,a5,a6
    2b0c:	0107e563          	bltu	a5,a6,2b16 <__moddi3+0x234>
    2b10:	00b7f363          	bgeu	a5,a1,2b16 <__moddi3+0x234>
    2b14:	97c2                	add	a5,a5,a6
    2b16:	8f8d                	sub	a5,a5,a1
    2b18:	03c7d5b3          	divu	a1,a5,t3
    2b1c:	06c2                	slli	a3,a3,0x10
    2b1e:	82c1                	srli	a3,a3,0x10
    2b20:	03c7f7b3          	remu	a5,a5,t3
    2b24:	02c585b3          	mul	a1,a1,a2
    2b28:	07c2                	slli	a5,a5,0x10
    2b2a:	8edd                	or	a3,a3,a5
    2b2c:	00b6f863          	bgeu	a3,a1,2b3c <__moddi3+0x25a>
    2b30:	96c2                	add	a3,a3,a6
    2b32:	0106e563          	bltu	a3,a6,2b3c <__moddi3+0x25a>
    2b36:	00b6f363          	bgeu	a3,a1,2b3c <__moddi3+0x25a>
    2b3a:	96c2                	add	a3,a3,a6
    2b3c:	8e8d                	sub	a3,a3,a1
    2b3e:	b705                	j	2a5e <__moddi3+0x17c>
    2b40:	1006b793          	sltiu	a5,a3,256
    2b44:	0017b793          	seqz	a5,a5
    2b48:	078e                	slli	a5,a5,0x3
    2b4a:	00f6d8b3          	srl	a7,a3,a5
    2b4e:	00002817          	auipc	a6,0x2
    2b52:	4da80813          	addi	a6,a6,1242 # 5028 <__clz_tab>
    2b56:	9846                	add	a6,a6,a7
    2b58:	00084803          	lbu	a6,0(a6)
    2b5c:	02000e13          	li	t3,32
    2b60:	983e                	add	a6,a6,a5
    2b62:	410e08b3          	sub	a7,t3,a6
    2b66:	e90e06e3          	beq	t3,a6,29f2 <__moddi3+0x110>
    2b6a:	011696b3          	sll	a3,a3,a7
    2b6e:	01065333          	srl	t1,a2,a6
    2b72:	00d36333          	or	t1,t1,a3
    2b76:	0105de33          	srl	t3,a1,a6
    2b7a:	01035e93          	srli	t4,t1,0x10
    2b7e:	03de56b3          	divu	a3,t3,t4
    2b82:	01031f13          	slli	t5,t1,0x10
    2b86:	010f5f13          	srli	t5,t5,0x10
    2b8a:	010557b3          	srl	a5,a0,a6
    2b8e:	011595b3          	sll	a1,a1,a7
    2b92:	8ddd                	or	a1,a1,a5
    2b94:	0105d793          	srli	a5,a1,0x10
    2b98:	01161633          	sll	a2,a2,a7
    2b9c:	01151533          	sll	a0,a0,a7
    2ba0:	03de7e33          	remu	t3,t3,t4
    2ba4:	02df0fb3          	mul	t6,t5,a3
    2ba8:	0e42                	slli	t3,t3,0x10
    2baa:	01c7e7b3          	or	a5,a5,t3
    2bae:	01f7fb63          	bgeu	a5,t6,2bc4 <__moddi3+0x2e2>
    2bb2:	979a                	add	a5,a5,t1
    2bb4:	fff68e13          	addi	t3,a3,-1
    2bb8:	0c67ec63          	bltu	a5,t1,2c90 <__moddi3+0x3ae>
    2bbc:	0df7fa63          	bgeu	a5,t6,2c90 <__moddi3+0x3ae>
    2bc0:	16f9                	addi	a3,a3,-2
    2bc2:	979a                	add	a5,a5,t1
    2bc4:	41f787b3          	sub	a5,a5,t6
    2bc8:	03d7dfb3          	divu	t6,a5,t4
    2bcc:	05c2                	slli	a1,a1,0x10
    2bce:	81c1                	srli	a1,a1,0x10
    2bd0:	03d7f7b3          	remu	a5,a5,t4
    2bd4:	03ff0f33          	mul	t5,t5,t6
    2bd8:	07c2                	slli	a5,a5,0x10
    2bda:	8fcd                	or	a5,a5,a1
    2bdc:	01e7fb63          	bgeu	a5,t5,2bf2 <__moddi3+0x310>
    2be0:	979a                	add	a5,a5,t1
    2be2:	ffff8593          	addi	a1,t6,-1
    2be6:	0a67e363          	bltu	a5,t1,2c8c <__moddi3+0x3aa>
    2bea:	0be7f163          	bgeu	a5,t5,2c8c <__moddi3+0x3aa>
    2bee:	1ff9                	addi	t6,t6,-2
    2bf0:	979a                	add	a5,a5,t1
    2bf2:	06c2                	slli	a3,a3,0x10
    2bf4:	010f9e93          	slli	t4,t6,0x10
    2bf8:	01f6e6b3          	or	a3,a3,t6
    2bfc:	01061e13          	slli	t3,a2,0x10
    2c00:	010ede93          	srli	t4,t4,0x10
    2c04:	010e5e13          	srli	t3,t3,0x10
    2c08:	82c1                	srli	a3,a3,0x10
    2c0a:	01065f93          	srli	t6,a2,0x10
    2c0e:	03c682b3          	mul	t0,a3,t3
    2c12:	41e785b3          	sub	a1,a5,t5
    2c16:	03ce8e33          	mul	t3,t4,t3
    2c1a:	03fe8eb3          	mul	t4,t4,t6
    2c1e:	010e5793          	srli	a5,t3,0x10
    2c22:	9e96                	add	t4,t4,t0
    2c24:	97f6                	add	a5,a5,t4
    2c26:	03f686b3          	mul	a3,a3,t6
    2c2a:	0057f463          	bgeu	a5,t0,2c32 <__moddi3+0x350>
    2c2e:	6ec1                	lui	t4,0x10
    2c30:	96f6                	add	a3,a3,t4
    2c32:	0107de93          	srli	t4,a5,0x10
    2c36:	0e42                	slli	t3,t3,0x10
    2c38:	010e5e13          	srli	t3,t3,0x10
    2c3c:	07c2                	slli	a5,a5,0x10
    2c3e:	96f6                	add	a3,a3,t4
    2c40:	97f2                	add	a5,a5,t3
    2c42:	02d5e563          	bltu	a1,a3,2c6c <__moddi3+0x38a>
    2c46:	02d58163          	beq	a1,a3,2c68 <__moddi3+0x386>
    2c4a:	40f507b3          	sub	a5,a0,a5
    2c4e:	00f53533          	sltu	a0,a0,a5
    2c52:	8d95                	sub	a1,a1,a3
    2c54:	8d89                	sub	a1,a1,a0
    2c56:	01059833          	sll	a6,a1,a6
    2c5a:	0117d533          	srl	a0,a5,a7
    2c5e:	0115d5b3          	srl	a1,a1,a7
    2c62:	00a86533          	or	a0,a6,a0
    2c66:	b391                	j	29aa <__moddi3+0xc8>
    2c68:	fef571e3          	bgeu	a0,a5,2c4a <__moddi3+0x368>
    2c6c:	40c78633          	sub	a2,a5,a2
    2c70:	00c7b7b3          	sltu	a5,a5,a2
    2c74:	979a                	add	a5,a5,t1
    2c76:	8e9d                	sub	a3,a3,a5
    2c78:	87b2                	mv	a5,a2
    2c7a:	bfc1                	j	2c4a <__moddi3+0x368>
    2c7c:	010007b7          	lui	a5,0x1000
    2c80:	00f67c63          	bgeu	a2,a5,2c98 <__moddi3+0x3b6>
    2c84:	01065893          	srli	a7,a2,0x10
    2c88:	46c1                	li	a3,16
    2c8a:	b375                	j	2a36 <__moddi3+0x154>
    2c8c:	8fae                	mv	t6,a1
    2c8e:	b795                	j	2bf2 <__moddi3+0x310>
    2c90:	86f2                	mv	a3,t3
    2c92:	bf0d                	j	2bc4 <__moddi3+0x2e2>
    2c94:	97c2                	add	a5,a5,a6
    2c96:	b1d5                	j	297a <__moddi3+0x98>
    2c98:	01865893          	srli	a7,a2,0x18
    2c9c:	46e1                	li	a3,24
    2c9e:	bb61                	j	2a36 <__moddi3+0x154>

00002ca0 <__adddf3>:
    2ca0:	00100337          	lui	t1,0x100
    2ca4:	1101                	addi	sp,sp,-32
    2ca6:	137d                	addi	t1,t1,-1 # fffff <_data_lma+0xfaed7>
    2ca8:	0146d713          	srli	a4,a3,0x14
    2cac:	00b377b3          	and	a5,t1,a1
    2cb0:	00d37833          	and	a6,t1,a3
    2cb4:	c256                	sw	s5,4(sp)
    2cb6:	0145da93          	srli	s5,a1,0x14
    2cba:	078e                	slli	a5,a5,0x3
    2cbc:	ca26                	sw	s1,20(sp)
    2cbe:	c452                	sw	s4,8(sp)
    2cc0:	7ffafa93          	andi	s5,s5,2047
    2cc4:	01d55a13          	srli	s4,a0,0x1d
    2cc8:	01f5d493          	srli	s1,a1,0x1f
    2ccc:	080e                	slli	a6,a6,0x3
    2cce:	7ff77593          	andi	a1,a4,2047
    2cd2:	ce06                	sw	ra,28(sp)
    2cd4:	01d65713          	srli	a4,a2,0x1d
    2cd8:	cc22                	sw	s0,24(sp)
    2cda:	c84a                	sw	s2,16(sp)
    2cdc:	c64e                	sw	s3,12(sp)
    2cde:	82fd                	srli	a3,a3,0x1f
    2ce0:	00fa6a33          	or	s4,s4,a5
    2ce4:	88b2                	mv	a7,a2
    2ce6:	40ba87b3          	sub	a5,s5,a1
    2cea:	01076733          	or	a4,a4,a6
    2cee:	00351e13          	slli	t3,a0,0x3
    2cf2:	00361e93          	slli	t4,a2,0x3
    2cf6:	0ed48963          	beq	s1,a3,2de8 <__adddf3+0x148>
    2cfa:	04f05563          	blez	a5,2d44 <__adddf3+0xa4>
    2cfe:	16059263          	bnez	a1,2e62 <__adddf3+0x1c2>
    2d02:	01d766b3          	or	a3,a4,t4
    2d06:	30068163          	beqz	a3,3008 <__adddf3+0x368>
    2d0a:	fff78693          	addi	a3,a5,-1 # ffffff <_data_lma+0xffaed7>
    2d0e:	62068c63          	beqz	a3,3346 <ch32fun.c.87fb9ac7+0xf0>
    2d12:	7ff00613          	li	a2,2047
    2d16:	3ac78663          	beq	a5,a2,30c2 <__adddf3+0x422>
    2d1a:	03800613          	li	a2,56
    2d1e:	56d65f63          	bge	a2,a3,329c <ch32fun.c.87fb9ac7+0x46>
    2d22:	fffe0413          	addi	s0,t3,-1
    2d26:	008e3e33          	sltu	t3,t3,s0
    2d2a:	41ca0a33          	sub	s4,s4,t3
    2d2e:	008a1693          	slli	a3,s4,0x8
    2d32:	00800737          	lui	a4,0x800
    2d36:	8abe                	mv	s5,a5
    2d38:	0406da63          	bgez	a3,2d8c <__adddf3+0xec>
    2d3c:	fff70a13          	addi	s4,a4,-1 # 7fffff <_data_lma+0x7faed7>
    2d40:	547d                	li	s0,-1
    2d42:	a2b9                	j	2e90 <__adddf3+0x1f0>
    2d44:	1a078463          	beqz	a5,2eec <__adddf3+0x24c>
    2d48:	415587b3          	sub	a5,a1,s5
    2d4c:	3c0a9d63          	bnez	s5,3126 <__adddf3+0x486>
    2d50:	01ca6633          	or	a2,s4,t3
    2d54:	58060063          	beqz	a2,32d4 <ch32fun.c.87fb9ac7+0x7e>
    2d58:	fff78613          	addi	a2,a5,-1
    2d5c:	6a060763          	beqz	a2,340a <ch32fun.c.87fb9ac7+0x1b4>
    2d60:	7ff00513          	li	a0,2047
    2d64:	62a78f63          	beq	a5,a0,33a2 <ch32fun.c.87fb9ac7+0x14c>
    2d68:	03800513          	li	a0,56
    2d6c:	74c55663          	bge	a0,a2,34b8 <ch32fun.c.87fb9ac7+0x262>
    2d70:	fffe8413          	addi	s0,t4,-1 # ffff <_data_lma+0xaed7>
    2d74:	008ebeb3          	sltu	t4,t4,s0
    2d78:	41d70a33          	sub	s4,a4,t4
    2d7c:	008a1613          	slli	a2,s4,0x8
    2d80:	00800737          	lui	a4,0x800
    2d84:	7c064163          	bltz	a2,3546 <ch32fun.c.87fb9ac7+0x2f0>
    2d88:	84b6                	mv	s1,a3
    2d8a:	8abe                	mv	s5,a5
    2d8c:	00440793          	addi	a5,s0,4
    2d90:	0087b433          	sltu	s0,a5,s0
    2d94:	9a22                	add	s4,s4,s0
    2d96:	843e                	mv	s0,a5
    2d98:	008a1793          	slli	a5,s4,0x8
    2d9c:	2007dd63          	bgez	a5,2fb6 <__adddf3+0x316>
    2da0:	001a8793          	addi	a5,s5,1
    2da4:	7ff00713          	li	a4,2047
    2da8:	8826                	mv	a6,s1
    2daa:	20e78a63          	beq	a5,a4,2fbe <__adddf3+0x31e>
    2dae:	ff800737          	lui	a4,0xff800
    2db2:	177d                	addi	a4,a4,-1 # ff7fffff <_eusrstack+0xdf7fcfff>
    2db4:	7ff7f793          	andi	a5,a5,2047
    2db8:	00ea7733          	and	a4,s4,a4
    2dbc:	01d71613          	slli	a2,a4,0x1d
    2dc0:	800d                	srli	s0,s0,0x3
    2dc2:	0726                	slli	a4,a4,0x9
    2dc4:	8e41                	or	a2,a2,s0
    2dc6:	8331                	srli	a4,a4,0xc
    2dc8:	40f2                	lw	ra,28(sp)
    2dca:	4462                	lw	s0,24(sp)
    2dcc:	07d2                	slli	a5,a5,0x14
    2dce:	8fd9                	or	a5,a5,a4
    2dd0:	01f81713          	slli	a4,a6,0x1f
    2dd4:	8fd9                	or	a5,a5,a4
    2dd6:	44d2                	lw	s1,20(sp)
    2dd8:	4942                	lw	s2,16(sp)
    2dda:	49b2                	lw	s3,12(sp)
    2ddc:	4a22                	lw	s4,8(sp)
    2dde:	4a92                	lw	s5,4(sp)
    2de0:	8532                	mv	a0,a2
    2de2:	85be                	mv	a1,a5
    2de4:	6105                	addi	sp,sp,32
    2de6:	8082                	ret
    2de8:	8826                	mv	a6,s1
    2dea:	1cf05d63          	blez	a5,2fc4 <__adddf3+0x324>
    2dee:	16059263          	bnez	a1,2f52 <__adddf3+0x2b2>
    2df2:	01d766b3          	or	a3,a4,t4
    2df6:	20068963          	beqz	a3,3008 <__adddf3+0x368>
    2dfa:	fff78693          	addi	a3,a5,-1
    2dfe:	4e068e63          	beqz	a3,32fa <ch32fun.c.87fb9ac7+0xa4>
    2e02:	7ff00613          	li	a2,2047
    2e06:	5ac78963          	beq	a5,a2,33b8 <ch32fun.c.87fb9ac7+0x162>
    2e0a:	03800613          	li	a2,56
    2e0e:	62d65c63          	bge	a2,a3,3446 <ch32fun.c.87fb9ac7+0x1f0>
    2e12:	008a1693          	slli	a3,s4,0x8
    2e16:	00800737          	lui	a4,0x800
    2e1a:	001e0413          	addi	s0,t3,1
    2e1e:	8abe                	mv	s5,a5
    2e20:	f606d6e3          	bgez	a3,2d8c <__adddf3+0xec>
    2e24:	8a3a                	mv	s4,a4
    2e26:	4401                	li	s0,0
    2e28:	0a85                	addi	s5,s5,1
    2e2a:	7ff00793          	li	a5,2047
    2e2e:	18fa8763          	beq	s5,a5,2fbc <__adddf3+0x31c>
    2e32:	ff8007b7          	lui	a5,0xff800
    2e36:	17fd                	addi	a5,a5,-1 # ff7fffff <_eusrstack+0xdf7fcfff>
    2e38:	00fa77b3          	and	a5,s4,a5
    2e3c:	00145713          	srli	a4,s0,0x1
    2e40:	8805                	andi	s0,s0,1
    2e42:	01f79693          	slli	a3,a5,0x1f
    2e46:	8f41                	or	a4,a4,s0
    2e48:	0017da13          	srli	s4,a5,0x1
    2e4c:	00e6e433          	or	s0,a3,a4
    2e50:	00747793          	andi	a5,s0,7
    2e54:	d3b1                	beqz	a5,2d98 <__adddf3+0xf8>
    2e56:	00f47793          	andi	a5,s0,15
    2e5a:	4711                	li	a4,4
    2e5c:	f2e78ee3          	beq	a5,a4,2d98 <__adddf3+0xf8>
    2e60:	b735                	j	2d8c <__adddf3+0xec>
    2e62:	7ff00693          	li	a3,2047
    2e66:	24da8e63          	beq	s5,a3,30c2 <__adddf3+0x422>
    2e6a:	03800693          	li	a3,56
    2e6e:	1cf6d263          	bge	a3,a5,3032 <__adddf3+0x392>
    2e72:	fffe0413          	addi	s0,t3,-1
    2e76:	008e3e33          	sltu	t3,t3,s0
    2e7a:	41ca0a33          	sub	s4,s4,t3
    2e7e:	008a1713          	slli	a4,s4,0x8
    2e82:	008007b7          	lui	a5,0x800
    2e86:	f00753e3          	bgez	a4,2d8c <__adddf3+0xec>
    2e8a:	fff78a13          	addi	s4,a5,-1 # 7fffff <_data_lma+0x7faed7>
    2e8e:	547d                	li	s0,-1
    2e90:	8552                	mv	a0,s4
    2e92:	730010ef          	jal	45c2 <__clzsi2>
    2e96:	ff850793          	addi	a5,a0,-8
    2e9a:	02000713          	li	a4,32
    2e9e:	40f706b3          	sub	a3,a4,a5
    2ea2:	00d456b3          	srl	a3,s0,a3
    2ea6:	00fa1a33          	sll	s4,s4,a5
    2eaa:	0146e6b3          	or	a3,a3,s4
    2eae:	00f41433          	sll	s0,s0,a5
    2eb2:	2f57c763          	blt	a5,s5,31a0 <__adddf3+0x500>
    2eb6:	415787b3          	sub	a5,a5,s5
    2eba:	0785                	addi	a5,a5,1
    2ebc:	8f1d                	sub	a4,a4,a5
    2ebe:	00e41633          	sll	a2,s0,a4
    2ec2:	00c03633          	snez	a2,a2
    2ec6:	00f45a33          	srl	s4,s0,a5
    2eca:	01466633          	or	a2,a2,s4
    2ece:	00e69733          	sll	a4,a3,a4
    2ed2:	00c76433          	or	s0,a4,a2
    2ed6:	00f6da33          	srl	s4,a3,a5
    2eda:	014467b3          	or	a5,s0,s4
    2ede:	4a81                	li	s5,0
    2ee0:	fba5                	bnez	a5,2e50 <__adddf3+0x1b0>
    2ee2:	8826                	mv	a6,s1
    2ee4:	4781                	li	a5,0
    2ee6:	4701                	li	a4,0
    2ee8:	4601                	li	a2,0
    2eea:	bdf9                	j	2dc8 <__adddf3+0x128>
    2eec:	001a8793          	addi	a5,s5,1
    2ef0:	7fe7f793          	andi	a5,a5,2046
    2ef4:	28079263          	bnez	a5,3178 <__adddf3+0x4d8>
    2ef8:	01ca67b3          	or	a5,s4,t3
    2efc:	01d76633          	or	a2,a4,t4
    2f00:	3e0a9163          	bnez	s5,32e2 <ch32fun.c.87fb9ac7+0x8c>
    2f04:	52078b63          	beqz	a5,343a <ch32fun.c.87fb9ac7+0x1e4>
    2f08:	20060563          	beqz	a2,3112 <__adddf3+0x472>
    2f0c:	41de05b3          	sub	a1,t3,t4
    2f10:	00be3633          	sltu	a2,t3,a1
    2f14:	40ea07b3          	sub	a5,s4,a4
    2f18:	8f91                	sub	a5,a5,a2
    2f1a:	00879613          	slli	a2,a5,0x8
    2f1e:	5c065f63          	bgez	a2,34fc <ch32fun.c.87fb9ac7+0x2a6>
    2f22:	41ce8e33          	sub	t3,t4,t3
    2f26:	01cebeb3          	sltu	t4,t4,t3
    2f2a:	41470733          	sub	a4,a4,s4
    2f2e:	41d70733          	sub	a4,a4,t4
    2f32:	00ee67b3          	or	a5,t3,a4
    2f36:	8472                	mv	s0,t3
    2f38:	84b6                	mv	s1,a3
    2f3a:	d7c5                	beqz	a5,2ee2 <__adddf3+0x242>
    2f3c:	00871793          	slli	a5,a4,0x8
    2f40:	6007d763          	bgez	a5,354e <ch32fun.c.87fb9ac7+0x2f8>
    2f44:	ff8007b7          	lui	a5,0xff800
    2f48:	17fd                	addi	a5,a5,-1 # ff7fffff <_eusrstack+0xdf7fcfff>
    2f4a:	8f7d                	and	a4,a4,a5
    2f4c:	8836                	mv	a6,a3
    2f4e:	4785                	li	a5,1
    2f50:	b5b5                	j	2dbc <__adddf3+0x11c>
    2f52:	7ff00693          	li	a3,2047
    2f56:	16da8663          	beq	s5,a3,30c2 <__adddf3+0x422>
    2f5a:	03800693          	li	a3,56
    2f5e:	2cf6c263          	blt	a3,a5,3222 <__adddf3+0x582>
    2f62:	008006b7          	lui	a3,0x800
    2f66:	8f55                	or	a4,a4,a3
    2f68:	46fd                	li	a3,31
    2f6a:	40f6c863          	blt	a3,a5,337a <ch32fun.c.87fb9ac7+0x124>
    2f6e:	02000613          	li	a2,32
    2f72:	8e1d                	sub	a2,a2,a5
    2f74:	00c716b3          	sll	a3,a4,a2
    2f78:	00ce9633          	sll	a2,t4,a2
    2f7c:	00fedeb3          	srl	t4,t4,a5
    2f80:	00f75733          	srl	a4,a4,a5
    2f84:	00c03633          	snez	a2,a2
    2f88:	01d6e6b3          	or	a3,a3,t4
    2f8c:	00c6e7b3          	or	a5,a3,a2
    2f90:	9a3a                	add	s4,s4,a4
    2f92:	9e3e                	add	t3,t3,a5
    2f94:	00fe37b3          	sltu	a5,t3,a5
    2f98:	9a3e                	add	s4,s4,a5
    2f9a:	8472                	mv	s0,t3
    2f9c:	008a1793          	slli	a5,s4,0x8
    2fa0:	e807c4e3          	bltz	a5,2e28 <__adddf3+0x188>
    2fa4:	00747793          	andi	a5,s0,7
    2fa8:	5a078c63          	beqz	a5,3560 <ch32fun.c.87fb9ac7+0x30a>
    2fac:	00f47793          	andi	a5,s0,15
    2fb0:	4711                	li	a4,4
    2fb2:	dce79de3          	bne	a5,a4,2d8c <__adddf3+0xec>
    2fb6:	87d6                	mv	a5,s5
    2fb8:	800d                	srli	s0,s0,0x3
    2fba:	a891                	j	300e <__adddf3+0x36e>
    2fbc:	87d6                	mv	a5,s5
    2fbe:	4701                	li	a4,0
    2fc0:	4601                	li	a2,0
    2fc2:	b519                	j	2dc8 <__adddf3+0x128>
    2fc4:	10078963          	beqz	a5,30d6 <__adddf3+0x436>
    2fc8:	415587b3          	sub	a5,a1,s5
    2fcc:	260a9463          	bnez	s5,3234 <__adddf3+0x594>
    2fd0:	01ca66b3          	or	a3,s4,t3
    2fd4:	4c068d63          	beqz	a3,34ae <ch32fun.c.87fb9ac7+0x258>
    2fd8:	fff78693          	addi	a3,a5,-1
    2fdc:	30068f63          	beqz	a3,32fa <ch32fun.c.87fb9ac7+0xa4>
    2fe0:	7ff00613          	li	a2,2047
    2fe4:	3ec78463          	beq	a5,a2,33cc <ch32fun.c.87fb9ac7+0x176>
    2fe8:	03800613          	li	a2,56
    2fec:	52d65b63          	bge	a2,a3,3522 <ch32fun.c.87fb9ac7+0x2cc>
    2ff0:	00871693          	slli	a3,a4,0x8
    2ff4:	00800a37          	lui	s4,0x800
    2ff8:	8abe                	mv	s5,a5
    2ffa:	4401                	li	s0,0
    2ffc:	e206c6e3          	bltz	a3,2e28 <__adddf3+0x188>
    3000:	001e8413          	addi	s0,t4,1
    3004:	8a3a                	mv	s4,a4
    3006:	b359                	j	2d8c <__adddf3+0xec>
    3008:	00351413          	slli	s0,a0,0x3
    300c:	800d                	srli	s0,s0,0x3
    300e:	01da1613          	slli	a2,s4,0x1d
    3012:	7ff00693          	li	a3,2047
    3016:	8e41                	or	a2,a2,s0
    3018:	003a5713          	srli	a4,s4,0x3
    301c:	08d79863          	bne	a5,a3,30ac <__adddf3+0x40c>
    3020:	8e59                	or	a2,a2,a4
    3022:	ca59                	beqz	a2,30b8 <__adddf3+0x418>
    3024:	4801                	li	a6,0
    3026:	7ff00793          	li	a5,2047
    302a:	00080737          	lui	a4,0x80
    302e:	4601                	li	a2,0
    3030:	bb61                	j	2dc8 <__adddf3+0x128>
    3032:	008006b7          	lui	a3,0x800
    3036:	8f55                	or	a4,a4,a3
    3038:	46fd                	li	a3,31
    303a:	18f6c063          	blt	a3,a5,31ba <__adddf3+0x51a>
    303e:	02000693          	li	a3,32
    3042:	8e9d                	sub	a3,a3,a5
    3044:	00d71433          	sll	s0,a4,a3
    3048:	00de96b3          	sll	a3,t4,a3
    304c:	00fedeb3          	srl	t4,t4,a5
    3050:	00d036b3          	snez	a3,a3
    3054:	01d46433          	or	s0,s0,t4
    3058:	00f75733          	srl	a4,a4,a5
    305c:	8c55                	or	s0,s0,a3
    305e:	40ea0a33          	sub	s4,s4,a4
    3062:	408e0433          	sub	s0,t3,s0
    3066:	008e3e33          	sltu	t3,t3,s0
    306a:	41ca0a33          	sub	s4,s4,t3
    306e:	008a1793          	slli	a5,s4,0x8
    3072:	f207d9e3          	bgez	a5,2fa4 <__adddf3+0x304>
    3076:	0a26                	slli	s4,s4,0x9
    3078:	009a5a13          	srli	s4,s4,0x9
    307c:	e00a1ae3          	bnez	s4,2e90 <__adddf3+0x1f0>
    3080:	8522                	mv	a0,s0
    3082:	540010ef          	jal	45c2 <__clzsi2>
    3086:	01850793          	addi	a5,a0,24
    308a:	477d                	li	a4,31
    308c:	e0f757e3          	bge	a4,a5,2e9a <__adddf3+0x1fa>
    3090:	1561                	addi	a0,a0,-8
    3092:	00a416b3          	sll	a3,s0,a0
    3096:	1557d663          	bge	a5,s5,31e2 <__adddf3+0x542>
    309a:	ff800737          	lui	a4,0xff800
    309e:	177d                	addi	a4,a4,-1 # ff7fffff <_eusrstack+0xdf7fcfff>
    30a0:	8f75                	and	a4,a4,a3
    30a2:	01d71613          	slli	a2,a4,0x1d
    30a6:	40fa87b3          	sub	a5,s5,a5
    30aa:	830d                	srli	a4,a4,0x3
    30ac:	0732                	slli	a4,a4,0xc
    30ae:	8331                	srli	a4,a4,0xc
    30b0:	7ff7f793          	andi	a5,a5,2047
    30b4:	8826                	mv	a6,s1
    30b6:	bb09                	j	2dc8 <__adddf3+0x128>
    30b8:	8826                	mv	a6,s1
    30ba:	7ff00793          	li	a5,2047
    30be:	4701                	li	a4,0
    30c0:	b321                	j	2dc8 <__adddf3+0x128>
    30c2:	00351413          	slli	s0,a0,0x3
    30c6:	00345513          	srli	a0,s0,0x3
    30ca:	01da1613          	slli	a2,s4,0x1d
    30ce:	8e49                	or	a2,a2,a0
    30d0:	003a5713          	srli	a4,s4,0x3
    30d4:	b7b1                	j	3020 <__adddf3+0x380>
    30d6:	001a8793          	addi	a5,s5,1
    30da:	7fe7f693          	andi	a3,a5,2046
    30de:	16069f63          	bnez	a3,325c <ch32fun.c.87fb9ac7+0x6>
    30e2:	01ca67b3          	or	a5,s4,t3
    30e6:	3a0a9e63          	bnez	s5,34a2 <ch32fun.c.87fb9ac7+0x24c>
    30ea:	01d766b3          	or	a3,a4,t4
    30ee:	40078063          	beqz	a5,34ee <ch32fun.c.87fb9ac7+0x298>
    30f2:	c285                	beqz	a3,3112 <__adddf3+0x472>
    30f4:	9ef2                	add	t4,t4,t3
    30f6:	01cebe33          	sltu	t3,t4,t3
    30fa:	9752                	add	a4,a4,s4
    30fc:	01c70a33          	add	s4,a4,t3
    3100:	008a1793          	slli	a5,s4,0x8
    3104:	8e76                	mv	t3,t4
    3106:	4207c063          	bltz	a5,3526 <ch32fun.c.87fb9ac7+0x2d0>
    310a:	014ee7b3          	or	a5,t4,s4
    310e:	dc078ae3          	beqz	a5,2ee2 <__adddf3+0x242>
    3112:	003e5e13          	srli	t3,t3,0x3
    3116:	01da1613          	slli	a2,s4,0x1d
    311a:	01c66633          	or	a2,a2,t3
    311e:	003a5713          	srli	a4,s4,0x3
    3122:	4781                	li	a5,0
    3124:	b761                	j	30ac <__adddf3+0x40c>
    3126:	7ff00613          	li	a2,2047
    312a:	26c58c63          	beq	a1,a2,33a2 <ch32fun.c.87fb9ac7+0x14c>
    312e:	03800613          	li	a2,56
    3132:	16f64763          	blt	a2,a5,32a0 <ch32fun.c.87fb9ac7+0x4a>
    3136:	00800637          	lui	a2,0x800
    313a:	00ca6a33          	or	s4,s4,a2
    313e:	467d                	li	a2,31
    3140:	28f64e63          	blt	a2,a5,33dc <ch32fun.c.87fb9ac7+0x186>
    3144:	02000613          	li	a2,32
    3148:	8e1d                	sub	a2,a2,a5
    314a:	00ca1433          	sll	s0,s4,a2
    314e:	00ce1633          	sll	a2,t3,a2
    3152:	00fe5e33          	srl	t3,t3,a5
    3156:	00c03633          	snez	a2,a2
    315a:	01c46433          	or	s0,s0,t3
    315e:	00fa57b3          	srl	a5,s4,a5
    3162:	8c51                	or	s0,s0,a2
    3164:	8f1d                	sub	a4,a4,a5
    3166:	408e8433          	sub	s0,t4,s0
    316a:	008ebeb3          	sltu	t4,t4,s0
    316e:	41d70a33          	sub	s4,a4,t4
    3172:	8aae                	mv	s5,a1
    3174:	84b6                	mv	s1,a3
    3176:	bde5                	j	306e <__adddf3+0x3ce>
    3178:	41de0433          	sub	s0,t3,t4
    317c:	008e3633          	sltu	a2,t3,s0
    3180:	40ea07b3          	sub	a5,s4,a4
    3184:	8f91                	sub	a5,a5,a2
    3186:	00879613          	slli	a2,a5,0x8
    318a:	12064a63          	bltz	a2,32be <ch32fun.c.87fb9ac7+0x68>
    318e:	00f46633          	or	a2,s0,a5
    3192:	8a3e                	mv	s4,a5
    3194:	ee0614e3          	bnez	a2,307c <__adddf3+0x3dc>
    3198:	4801                	li	a6,0
    319a:	4781                	li	a5,0
    319c:	4701                	li	a4,0
    319e:	b12d                	j	2dc8 <__adddf3+0x128>
    31a0:	ff800a37          	lui	s4,0xff800
    31a4:	1a7d                	addi	s4,s4,-1 # ff7fffff <_eusrstack+0xdf7fcfff>
    31a6:	00747713          	andi	a4,s0,7
    31aa:	40fa8ab3          	sub	s5,s5,a5
    31ae:	0146fa33          	and	s4,a3,s4
    31b2:	de071de3          	bnez	a4,2fac <__adddf3+0x30c>
    31b6:	87d6                	mv	a5,s5
    31b8:	b501                	j	2fb8 <__adddf3+0x318>
    31ba:	fe078693          	addi	a3,a5,-32
    31be:	02000613          	li	a2,32
    31c2:	00d756b3          	srl	a3,a4,a3
    31c6:	00c78a63          	beq	a5,a2,31da <__adddf3+0x53a>
    31ca:	04000613          	li	a2,64
    31ce:	40f607b3          	sub	a5,a2,a5
    31d2:	00f717b3          	sll	a5,a4,a5
    31d6:	00feeeb3          	or	t4,t4,a5
    31da:	01d03433          	snez	s0,t4
    31de:	8c55                	or	s0,s0,a3
    31e0:	b549                	j	3062 <__adddf3+0x3c2>
    31e2:	41578433          	sub	s0,a5,s5
    31e6:	00140793          	addi	a5,s0,1
    31ea:	2ef75d63          	bge	a4,a5,34e4 <ch32fun.c.87fb9ac7+0x28e>
    31ee:	1405                	addi	s0,s0,-31
    31f0:	02000713          	li	a4,32
    31f4:	0086d433          	srl	s0,a3,s0
    31f8:	00e78b63          	beq	a5,a4,320e <__adddf3+0x56e>
    31fc:	04000713          	li	a4,64
    3200:	40f707b3          	sub	a5,a4,a5
    3204:	00f697b3          	sll	a5,a3,a5
    3208:	00f037b3          	snez	a5,a5
    320c:	8c5d                	or	s0,s0,a5
    320e:	cc040ae3          	beqz	s0,2ee2 <__adddf3+0x242>
    3212:	00747793          	andi	a5,s0,7
    3216:	4a81                	li	s5,0
    3218:	c2079fe3          	bnez	a5,2e56 <__adddf3+0x1b6>
    321c:	4a01                	li	s4,0
    321e:	800d                	srli	s0,s0,0x3
    3220:	b3fd                	j	300e <__adddf3+0x36e>
    3222:	008a1713          	slli	a4,s4,0x8
    3226:	008007b7          	lui	a5,0x800
    322a:	1c075d63          	bgez	a4,3404 <ch32fun.c.87fb9ac7+0x1ae>
    322e:	8a3e                	mv	s4,a5
    3230:	4401                	li	s0,0
    3232:	bedd                	j	2e28 <__adddf3+0x188>
    3234:	7ff00693          	li	a3,2047
    3238:	18d58a63          	beq	a1,a3,33cc <ch32fun.c.87fb9ac7+0x176>
    323c:	03800693          	li	a3,56
    3240:	20f6d563          	bge	a3,a5,344a <ch32fun.c.87fb9ac7+0x1f4>
    3244:	00871793          	slli	a5,a4,0x8
    3248:	00800a37          	lui	s4,0x800
    324c:	8aae                	mv	s5,a1
    324e:	4401                	li	s0,0
    3250:	bc07cce3          	bltz	a5,2e28 <__adddf3+0x188>
    3254:	001e8413          	addi	s0,t4,1
    3258:	8a3a                	mv	s4,a4
    325a:	be0d                	j	2d8c <__adddf3+0xec>
    325c:	7ff00693          	li	a3,2047
    3260:	d4d78fe3          	beq	a5,a3,2fbe <__adddf3+0x31e>
    3264:	9ef2                	add	t4,t4,t3
    3266:	01cebe33          	sltu	t3,t4,t3
    326a:	9752                	add	a4,a4,s4
    326c:	9772                	add	a4,a4,t3
    326e:	001ede93          	srli	t4,t4,0x1
    3272:	01f71413          	slli	s0,a4,0x1f
    3276:	007ef693          	andi	a3,t4,7
    327a:	01d46433          	or	s0,s0,t4
    327e:	00175a13          	srli	s4,a4,0x1
    3282:	c699                	beqz	a3,3290 <ch32fun.c.87fb9ac7+0x3a>
    3284:	00f47693          	andi	a3,s0,15
    3288:	4611                	li	a2,4
    328a:	8abe                	mv	s5,a5
    328c:	b0c690e3          	bne	a3,a2,2d8c <__adddf3+0xec>
    3290:	800d                	srli	s0,s0,0x3
    3292:	01da1613          	slli	a2,s4,0x1d
    3296:	8e41                	or	a2,a2,s0
    3298:	8311                	srli	a4,a4,0x4
    329a:	bd09                	j	30ac <__adddf3+0x40c>
    329c:	87b6                	mv	a5,a3
    329e:	bb69                	j	3038 <__adddf3+0x398>
    32a0:	fffe8413          	addi	s0,t4,-1
    32a4:	008ebeb3          	sltu	t4,t4,s0
    32a8:	41d70a33          	sub	s4,a4,t4
    32ac:	008a1713          	slli	a4,s4,0x8
    32b0:	008007b7          	lui	a5,0x800
    32b4:	1c074b63          	bltz	a4,348a <ch32fun.c.87fb9ac7+0x234>
    32b8:	84b6                	mv	s1,a3
    32ba:	8aae                	mv	s5,a1
    32bc:	bcc1                	j	2d8c <__adddf3+0xec>
    32be:	41ce8e33          	sub	t3,t4,t3
    32c2:	01cebeb3          	sltu	t4,t4,t3
    32c6:	41470733          	sub	a4,a4,s4
    32ca:	8472                	mv	s0,t3
    32cc:	41d70a33          	sub	s4,a4,t4
    32d0:	84b6                	mv	s1,a3
    32d2:	b36d                	j	307c <__adddf3+0x3dc>
    32d4:	00389613          	slli	a2,a7,0x3
    32d8:	00365413          	srli	s0,a2,0x3
    32dc:	84b6                	mv	s1,a3
    32de:	8a3a                	mv	s4,a4
    32e0:	b33d                	j	300e <__adddf3+0x36e>
    32e2:	ebe9                	bnez	a5,33b4 <ch32fun.c.87fb9ac7+0x15e>
    32e4:	22060963          	beqz	a2,3516 <ch32fun.c.87fb9ac7+0x2c0>
    32e8:	00389613          	slli	a2,a7,0x3
    32ec:	01d71793          	slli	a5,a4,0x1d
    32f0:	820d                	srli	a2,a2,0x3
    32f2:	84b6                	mv	s1,a3
    32f4:	8e5d                	or	a2,a2,a5
    32f6:	830d                	srli	a4,a4,0x3
    32f8:	b325                	j	3020 <__adddf3+0x380>
    32fa:	9ef2                	add	t4,t4,t3
    32fc:	01cebe33          	sltu	t3,t4,t3
    3300:	9752                	add	a4,a4,s4
    3302:	9772                	add	a4,a4,t3
    3304:	00871793          	slli	a5,a4,0x8
    3308:	1807d463          	bgez	a5,3490 <ch32fun.c.87fb9ac7+0x23a>
    330c:	ff8007b7          	lui	a5,0xff800
    3310:	17fd                	addi	a5,a5,-1 # ff7fffff <_eusrstack+0xdf7fcfff>
    3312:	001ed693          	srli	a3,t4,0x1
    3316:	8f7d                	and	a4,a4,a5
    3318:	01f71793          	slli	a5,a4,0x1f
    331c:	0076f593          	andi	a1,a3,7
    3320:	8fd5                	or	a5,a5,a3
    3322:	00175613          	srli	a2,a4,0x1
    3326:	1e058263          	beqz	a1,350a <ch32fun.c.87fb9ac7+0x2b4>
    332a:	00f7f693          	andi	a3,a5,15
    332e:	4591                	li	a1,4
    3330:	1cb68d63          	beq	a3,a1,350a <ch32fun.c.87fb9ac7+0x2b4>
    3334:	00b78433          	add	s0,a5,a1
    3338:	00f437b3          	sltu	a5,s0,a5
    333c:	00c78a33          	add	s4,a5,a2
    3340:	800d                	srli	s0,s0,0x3
    3342:	4789                	li	a5,2
    3344:	b1e9                	j	300e <__adddf3+0x36e>
    3346:	41de0eb3          	sub	t4,t3,t4
    334a:	01de3e33          	sltu	t3,t3,t4
    334e:	40ea0733          	sub	a4,s4,a4
    3352:	41c70a33          	sub	s4,a4,t3
    3356:	008a1793          	slli	a5,s4,0x8
    335a:	8476                	mv	s0,t4
    335c:	0007cd63          	bltz	a5,3376 <ch32fun.c.87fb9ac7+0x120>
    3360:	003ede93          	srli	t4,t4,0x3
    3364:	01da1613          	slli	a2,s4,0x1d
    3368:	01d66633          	or	a2,a2,t4
    336c:	003a5713          	srli	a4,s4,0x3
    3370:	4785                	li	a5,1
    3372:	bb2d                	j	30ac <__adddf3+0x40c>
    3374:	84b6                	mv	s1,a3
    3376:	4a85                	li	s5,1
    3378:	b9fd                	j	3076 <__adddf3+0x3d6>
    337a:	fe078693          	addi	a3,a5,-32
    337e:	02000613          	li	a2,32
    3382:	00d756b3          	srl	a3,a4,a3
    3386:	00c78a63          	beq	a5,a2,339a <ch32fun.c.87fb9ac7+0x144>
    338a:	04000613          	li	a2,64
    338e:	40f607b3          	sub	a5,a2,a5
    3392:	00f717b3          	sll	a5,a4,a5
    3396:	00feeeb3          	or	t4,t4,a5
    339a:	01d037b3          	snez	a5,t4
    339e:	8fd5                	or	a5,a5,a3
    33a0:	becd                	j	2f92 <__adddf3+0x2f2>
    33a2:	00389793          	slli	a5,a7,0x3
    33a6:	01d71613          	slli	a2,a4,0x1d
    33aa:	838d                	srli	a5,a5,0x3
    33ac:	84b6                	mv	s1,a3
    33ae:	8e5d                	or	a2,a2,a5
    33b0:	830d                	srli	a4,a4,0x3
    33b2:	b1bd                	j	3020 <__adddf3+0x380>
    33b4:	c60618e3          	bnez	a2,3024 <__adddf3+0x384>
    33b8:	00351413          	slli	s0,a0,0x3
    33bc:	00345793          	srli	a5,s0,0x3
    33c0:	01da1613          	slli	a2,s4,0x1d
    33c4:	8e5d                	or	a2,a2,a5
    33c6:	003a5713          	srli	a4,s4,0x3
    33ca:	b999                	j	3020 <__adddf3+0x380>
    33cc:	00389793          	slli	a5,a7,0x3
    33d0:	01d71613          	slli	a2,a4,0x1d
    33d4:	838d                	srli	a5,a5,0x3
    33d6:	8e5d                	or	a2,a2,a5
    33d8:	830d                	srli	a4,a4,0x3
    33da:	b199                	j	3020 <__adddf3+0x380>
    33dc:	fe078613          	addi	a2,a5,-32
    33e0:	02000513          	li	a0,32
    33e4:	00ca5633          	srl	a2,s4,a2
    33e8:	00a78a63          	beq	a5,a0,33fc <ch32fun.c.87fb9ac7+0x1a6>
    33ec:	04000513          	li	a0,64
    33f0:	40f507b3          	sub	a5,a0,a5
    33f4:	00fa17b3          	sll	a5,s4,a5
    33f8:	00fe6e33          	or	t3,t3,a5
    33fc:	01c03433          	snez	s0,t3
    3400:	8c51                	or	s0,s0,a2
    3402:	b395                	j	3166 <__adddf3+0x4c6>
    3404:	001e0413          	addi	s0,t3,1
    3408:	b251                	j	2d8c <__adddf3+0xec>
    340a:	41ce8e33          	sub	t3,t4,t3
    340e:	01cebeb3          	sltu	t4,t4,t3
    3412:	41470733          	sub	a4,a4,s4
    3416:	41d70a33          	sub	s4,a4,t4
    341a:	008a1793          	slli	a5,s4,0x8
    341e:	8472                	mv	s0,t3
    3420:	f407cae3          	bltz	a5,3374 <ch32fun.c.87fb9ac7+0x11e>
    3424:	003e5e13          	srli	t3,t3,0x3
    3428:	01da1613          	slli	a2,s4,0x1d
    342c:	84b6                	mv	s1,a3
    342e:	00ce6633          	or	a2,t3,a2
    3432:	003a5713          	srli	a4,s4,0x3
    3436:	4785                	li	a5,1
    3438:	b995                	j	30ac <__adddf3+0x40c>
    343a:	d4060fe3          	beqz	a2,3198 <__adddf3+0x4f8>
    343e:	8a3a                	mv	s4,a4
    3440:	8e76                	mv	t3,t4
    3442:	84b6                	mv	s1,a3
    3444:	b1f9                	j	3112 <__adddf3+0x472>
    3446:	87b6                	mv	a5,a3
    3448:	b605                	j	2f68 <__adddf3+0x2c8>
    344a:	008006b7          	lui	a3,0x800
    344e:	00da6a33          	or	s4,s4,a3
    3452:	46fd                	li	a3,31
    3454:	06f6c463          	blt	a3,a5,34bc <ch32fun.c.87fb9ac7+0x266>
    3458:	02000613          	li	a2,32
    345c:	8e1d                	sub	a2,a2,a5
    345e:	00ca16b3          	sll	a3,s4,a2
    3462:	00ce1633          	sll	a2,t3,a2
    3466:	00fe5e33          	srl	t3,t3,a5
    346a:	00c03633          	snez	a2,a2
    346e:	01c6e6b3          	or	a3,a3,t3
    3472:	00fa57b3          	srl	a5,s4,a5
    3476:	8ed1                	or	a3,a3,a2
    3478:	973e                	add	a4,a4,a5
    347a:	9eb6                	add	t4,t4,a3
    347c:	00deb6b3          	sltu	a3,t4,a3
    3480:	00e68a33          	add	s4,a3,a4
    3484:	8476                	mv	s0,t4
    3486:	8aae                	mv	s5,a1
    3488:	be11                	j	2f9c <__adddf3+0x2fc>
    348a:	8aae                	mv	s5,a1
    348c:	84b6                	mv	s1,a3
    348e:	baf5                	j	2e8a <__adddf3+0x1ea>
    3490:	01d71613          	slli	a2,a4,0x1d
    3494:	003ede93          	srli	t4,t4,0x3
    3498:	01d66633          	or	a2,a2,t4
    349c:	830d                	srli	a4,a4,0x3
    349e:	4785                	li	a5,1
    34a0:	b131                	j	30ac <__adddf3+0x40c>
    34a2:	d78d                	beqz	a5,33cc <ch32fun.c.87fb9ac7+0x176>
    34a4:	01d76eb3          	or	t4,a4,t4
    34a8:	b60e9ee3          	bnez	t4,3024 <__adddf3+0x384>
    34ac:	b731                	j	33b8 <ch32fun.c.87fb9ac7+0x162>
    34ae:	060e                	slli	a2,a2,0x3
    34b0:	00365413          	srli	s0,a2,0x3
    34b4:	8a3a                	mv	s4,a4
    34b6:	bea1                	j	300e <__adddf3+0x36e>
    34b8:	87b2                	mv	a5,a2
    34ba:	b151                	j	313e <__adddf3+0x49e>
    34bc:	fe078613          	addi	a2,a5,-32
    34c0:	02000693          	li	a3,32
    34c4:	00ca5633          	srl	a2,s4,a2
    34c8:	00d78a63          	beq	a5,a3,34dc <ch32fun.c.87fb9ac7+0x286>
    34cc:	04000693          	li	a3,64
    34d0:	40f687b3          	sub	a5,a3,a5
    34d4:	00fa17b3          	sll	a5,s4,a5
    34d8:	00fe6e33          	or	t3,t3,a5
    34dc:	01c036b3          	snez	a3,t3
    34e0:	8ed1                	or	a3,a3,a2
    34e2:	bf61                	j	347a <ch32fun.c.87fb9ac7+0x224>
    34e4:	02000713          	li	a4,32
    34e8:	8f1d                	sub	a4,a4,a5
    34ea:	4601                	li	a2,0
    34ec:	baf9                	j	2eca <__adddf3+0x22a>
    34ee:	9e068ae3          	beqz	a3,2ee2 <__adddf3+0x242>
    34f2:	8476                	mv	s0,t4
    34f4:	8a3a                	mv	s4,a4
    34f6:	4781                	li	a5,0
    34f8:	800d                	srli	s0,s0,0x3
    34fa:	be11                	j	300e <__adddf3+0x36e>
    34fc:	00f5e633          	or	a2,a1,a5
    3500:	c8060ce3          	beqz	a2,3198 <__adddf3+0x4f8>
    3504:	8a3e                	mv	s4,a5
    3506:	8e2e                	mv	t3,a1
    3508:	b129                	j	3112 <__adddf3+0x472>
    350a:	838d                	srli	a5,a5,0x3
    350c:	0676                	slli	a2,a2,0x1d
    350e:	8e5d                	or	a2,a2,a5
    3510:	8311                	srli	a4,a4,0x4
    3512:	4789                	li	a5,2
    3514:	be61                	j	30ac <__adddf3+0x40c>
    3516:	4801                	li	a6,0
    3518:	7ff00793          	li	a5,2047
    351c:	00080737          	lui	a4,0x80
    3520:	b065                	j	2dc8 <__adddf3+0x128>
    3522:	87b6                	mv	a5,a3
    3524:	b73d                	j	3452 <ch32fun.c.87fb9ac7+0x1fc>
    3526:	ff800737          	lui	a4,0xff800
    352a:	177d                	addi	a4,a4,-1 # ff7fffff <_eusrstack+0xdf7fcfff>
    352c:	00ea7733          	and	a4,s4,a4
    3530:	01d71613          	slli	a2,a4,0x1d
    3534:	003ede93          	srli	t4,t4,0x3
    3538:	830d                	srli	a4,a4,0x3
    353a:	01d66633          	or	a2,a2,t4
    353e:	00677733          	and	a4,a4,t1
    3542:	4785                	li	a5,1
    3544:	b051                	j	2dc8 <__adddf3+0x128>
    3546:	8abe                	mv	s5,a5
    3548:	84b6                	mv	s1,a3
    354a:	ff2ff06f          	j	2d3c <__adddf3+0x9c>
    354e:	01d71613          	slli	a2,a4,0x1d
    3552:	003e5e13          	srli	t3,t3,0x3
    3556:	00ce6633          	or	a2,t3,a2
    355a:	830d                	srli	a4,a4,0x3
    355c:	4781                	li	a5,0
    355e:	b6b9                	j	30ac <__adddf3+0x40c>
    3560:	800d                	srli	s0,s0,0x3
    3562:	87d6                	mv	a5,s5
    3564:	b46d                	j	300e <__adddf3+0x36e>

00003566 <__muldf3>:
    3566:	7179                	addi	sp,sp,-48
    3568:	0145d793          	srli	a5,a1,0x14
    356c:	d422                	sw	s0,40(sp)
    356e:	d226                	sw	s1,36(sp)
    3570:	cc52                	sw	s4,24(sp)
    3572:	ca56                	sw	s5,20(sp)
    3574:	c462                	sw	s8,8(sp)
    3576:	00c59413          	slli	s0,a1,0xc
    357a:	d606                	sw	ra,44(sp)
    357c:	d04a                	sw	s2,32(sp)
    357e:	ce4e                	sw	s3,28(sp)
    3580:	c85a                	sw	s6,16(sp)
    3582:	c65e                	sw	s7,12(sp)
    3584:	c266                	sw	s9,4(sp)
    3586:	c06a                	sw	s10,0(sp)
    3588:	7ff7f793          	andi	a5,a5,2047
    358c:	8aaa                	mv	s5,a0
    358e:	8c32                	mv	s8,a2
    3590:	84b6                	mv	s1,a3
    3592:	8031                	srli	s0,s0,0xc
    3594:	01f5da13          	srli	s4,a1,0x1f
    3598:	34078263          	beqz	a5,38dc <__muldf3+0x376>
    359c:	7ff00713          	li	a4,2047
    35a0:	22e78463          	beq	a5,a4,37c8 <__muldf3+0x262>
    35a4:	040e                	slli	s0,s0,0x3
    35a6:	01d55713          	srli	a4,a0,0x1d
    35aa:	8f41                	or	a4,a4,s0
    35ac:	00800437          	lui	s0,0x800
    35b0:	c0178b13          	addi	s6,a5,-1023
    35b4:	00351b93          	slli	s7,a0,0x3
    35b8:	8c59                	or	s0,s0,a4
    35ba:	4c81                	li	s9,0
    35bc:	4d01                	li	s10,0
    35be:	0144d793          	srli	a5,s1,0x14
    35c2:	00c49713          	slli	a4,s1,0xc
    35c6:	7ff7f793          	andi	a5,a5,2047
    35ca:	00c75a93          	srli	s5,a4,0xc
    35ce:	80fd                	srli	s1,s1,0x1f
    35d0:	20078f63          	beqz	a5,37ee <__muldf3+0x288>
    35d4:	7ff00713          	li	a4,2047
    35d8:	2ce78e63          	beq	a5,a4,38b4 <__muldf3+0x34e>
    35dc:	c0178793          	addi	a5,a5,-1023
    35e0:	4729                	li	a4,10
    35e2:	9b3e                	add	s6,s6,a5
    35e4:	25974c63          	blt	a4,s9,383c <__muldf3+0x2d6>
    35e8:	003a9713          	slli	a4,s5,0x3
    35ec:	01dc5793          	srli	a5,s8,0x1d
    35f0:	8fd9                	or	a5,a5,a4
    35f2:	009a46b3          	xor	a3,s4,s1
    35f6:	00800737          	lui	a4,0x800
    35fa:	4609                	li	a2,2
    35fc:	00e7eab3          	or	s5,a5,a4
    3600:	003c1813          	slli	a6,s8,0x3
    3604:	85b6                	mv	a1,a3
    3606:	4781                	li	a5,0
    3608:	03965163          	bge	a2,s9,362a <__muldf3+0xc4>
    360c:	4605                	li	a2,1
    360e:	01961633          	sll	a2,a2,s9
    3612:	53067713          	andi	a4,a2,1328
    3616:	22071463          	bnez	a4,383e <__muldf3+0x2d8>
    361a:	24067593          	andi	a1,a2,576
    361e:	3c059b63          	bnez	a1,39f4 <__muldf3+0x48e>
    3622:	08867613          	andi	a2,a2,136
    3626:	3a061a63          	bnez	a2,39da <__muldf3+0x474>
    362a:	010b9793          	slli	a5,s7,0x10
    362e:	01081613          	slli	a2,a6,0x10
    3632:	83c1                	srli	a5,a5,0x10
    3634:	8241                	srli	a2,a2,0x10
    3636:	010bdb93          	srli	s7,s7,0x10
    363a:	01085813          	srli	a6,a6,0x10
    363e:	02c78733          	mul	a4,a5,a2
    3642:	02cb8533          	mul	a0,s7,a2
    3646:	01075313          	srli	t1,a4,0x10
    364a:	02f805b3          	mul	a1,a6,a5
    364e:	95aa                	add	a1,a1,a0
    3650:	932e                	add	t1,t1,a1
    3652:	030b8eb3          	mul	t4,s7,a6
    3656:	00a37463          	bgeu	t1,a0,365e <__muldf3+0xf8>
    365a:	65c1                	lui	a1,0x10
    365c:	9eae                	add	t4,t4,a1
    365e:	010a9e13          	slli	t3,s5,0x10
    3662:	0742                	slli	a4,a4,0x10
    3664:	010e5e13          	srli	t3,t3,0x10
    3668:	010ada93          	srli	s5,s5,0x10
    366c:	8341                	srli	a4,a4,0x10
    366e:	01031593          	slli	a1,t1,0x10
    3672:	03cb88b3          	mul	a7,s7,t3
    3676:	95ba                	add	a1,a1,a4
    3678:	01035313          	srli	t1,t1,0x10
    367c:	03c78733          	mul	a4,a5,t3
    3680:	02fa87b3          	mul	a5,s5,a5
    3684:	01075513          	srli	a0,a4,0x10
    3688:	97c6                	add	a5,a5,a7
    368a:	953e                	add	a0,a0,a5
    368c:	035b8bb3          	mul	s7,s7,s5
    3690:	01157463          	bgeu	a0,a7,3698 <__muldf3+0x132>
    3694:	67c1                	lui	a5,0x10
    3696:	9bbe                	add	s7,s7,a5
    3698:	01041793          	slli	a5,s0,0x10
    369c:	01071893          	slli	a7,a4,0x10
    36a0:	83c1                	srli	a5,a5,0x10
    36a2:	8041                	srli	s0,s0,0x10
    36a4:	0108d893          	srli	a7,a7,0x10
    36a8:	01051713          	slli	a4,a0,0x10
    36ac:	02f80fb3          	mul	t6,a6,a5
    36b0:	9746                	add	a4,a4,a7
    36b2:	8141                	srli	a0,a0,0x10
    36b4:	933a                	add	t1,t1,a4
    36b6:	955e                	add	a0,a0,s7
    36b8:	02c408b3          	mul	a7,s0,a2
    36bc:	02c78f33          	mul	t5,a5,a2
    36c0:	9fc6                	add	t6,t6,a7
    36c2:	010f5613          	srli	a2,t5,0x10
    36c6:	967e                	add	a2,a2,t6
    36c8:	02880833          	mul	a6,a6,s0
    36cc:	01167463          	bgeu	a2,a7,36d4 <__muldf3+0x16e>
    36d0:	68c1                	lui	a7,0x10
    36d2:	9846                	add	a6,a6,a7
    36d4:	0f42                	slli	t5,t5,0x10
    36d6:	01061893          	slli	a7,a2,0x10
    36da:	010f5f13          	srli	t5,t5,0x10
    36de:	8241                	srli	a2,a2,0x10
    36e0:	9f46                	add	t5,t5,a7
    36e2:	9642                	add	a2,a2,a6
    36e4:	03c408b3          	mul	a7,s0,t3
    36e8:	03c78833          	mul	a6,a5,t3
    36ec:	02fa87b3          	mul	a5,s5,a5
    36f0:	01085e13          	srli	t3,a6,0x10
    36f4:	97c6                	add	a5,a5,a7
    36f6:	9e3e                	add	t3,t3,a5
    36f8:	028a8ab3          	mul	s5,s5,s0
    36fc:	011e7463          	bgeu	t3,a7,3704 <__muldf3+0x19e>
    3700:	67c1                	lui	a5,0x10
    3702:	9abe                	add	s5,s5,a5
    3704:	01081893          	slli	a7,a6,0x10
    3708:	0108d893          	srli	a7,a7,0x10
    370c:	010e1793          	slli	a5,t3,0x10
    3710:	01d30833          	add	a6,t1,t4
    3714:	97c6                	add	a5,a5,a7
    3716:	953e                	add	a0,a0,a5
    3718:	00e83733          	sltu	a4,a6,a4
    371c:	01e808b3          	add	a7,a6,t5
    3720:	972a                	add	a4,a4,a0
    3722:	963a                	add	a2,a2,a4
    3724:	0108b833          	sltu	a6,a7,a6
    3728:	9832                	add	a6,a6,a2
    372a:	00f537b3          	sltu	a5,a0,a5
    372e:	00a73533          	sltu	a0,a4,a0
    3732:	8fc9                	or	a5,a5,a0
    3734:	00e63733          	sltu	a4,a2,a4
    3738:	010e5e13          	srli	t3,t3,0x10
    373c:	00c83633          	sltu	a2,a6,a2
    3740:	97f2                	add	a5,a5,t3
    3742:	8f51                	or	a4,a4,a2
    3744:	00989b93          	slli	s7,a7,0x9
    3748:	973e                	add	a4,a4,a5
    374a:	00bbebb3          	or	s7,s7,a1
    374e:	9756                	add	a4,a4,s5
    3750:	0726                	slli	a4,a4,0x9
    3752:	01703bb3          	snez	s7,s7
    3756:	0178d893          	srli	a7,a7,0x17
    375a:	01785413          	srli	s0,a6,0x17
    375e:	011bebb3          	or	s7,s7,a7
    3762:	0826                	slli	a6,a6,0x9
    3764:	00771793          	slli	a5,a4,0x7
    3768:	8c59                	or	s0,s0,a4
    376a:	010bebb3          	or	s7,s7,a6
    376e:	1007c963          	bltz	a5,3880 <__muldf3+0x31a>
    3772:	3ffb0793          	addi	a5,s6,1023
    3776:	20f05b63          	blez	a5,398c <__muldf3+0x426>
    377a:	007bf713          	andi	a4,s7,7
    377e:	c715                	beqz	a4,37aa <__muldf3+0x244>
    3780:	00fbf713          	andi	a4,s7,15
    3784:	4611                	li	a2,4
    3786:	02c70263          	beq	a4,a2,37aa <__muldf3+0x244>
    378a:	004b8713          	addi	a4,s7,4
    378e:	01773bb3          	sltu	s7,a4,s7
    3792:	945e                	add	s0,s0,s7
    3794:	8bba                	mv	s7,a4
    3796:	00741713          	slli	a4,s0,0x7
    379a:	00075863          	bgez	a4,37aa <__muldf3+0x244>
    379e:	ff000737          	lui	a4,0xff000
    37a2:	177d                	addi	a4,a4,-1 # feffffff <_eusrstack+0xdeffcfff>
    37a4:	400b0793          	addi	a5,s6,1024
    37a8:	8c79                	and	s0,s0,a4
    37aa:	7fe00713          	li	a4,2046
    37ae:	24f74963          	blt	a4,a5,3a00 <__muldf3+0x49a>
    37b2:	01d41713          	slli	a4,s0,0x1d
    37b6:	003bdb93          	srli	s7,s7,0x3
    37ba:	0426                	slli	s0,s0,0x9
    37bc:	7ff7f793          	andi	a5,a5,2047
    37c0:	01776733          	or	a4,a4,s7
    37c4:	8031                	srli	s0,s0,0xc
    37c6:	a849                	j	3858 <__muldf3+0x2f2>
    37c8:	00a46bb3          	or	s7,s0,a0
    37cc:	1a0b9463          	bnez	s7,3974 <__muldf3+0x40e>
    37d0:	8b3e                	mv	s6,a5
    37d2:	0144d793          	srli	a5,s1,0x14
    37d6:	00c49713          	slli	a4,s1,0xc
    37da:	7ff7f793          	andi	a5,a5,2047
    37de:	4401                	li	s0,0
    37e0:	4ca1                	li	s9,8
    37e2:	4d09                	li	s10,2
    37e4:	00c75a93          	srli	s5,a4,0xc
    37e8:	80fd                	srli	s1,s1,0x1f
    37ea:	de0795e3          	bnez	a5,35d4 <__muldf3+0x6e>
    37ee:	018ae833          	or	a6,s5,s8
    37f2:	12080863          	beqz	a6,3922 <__muldf3+0x3bc>
    37f6:	220a8863          	beqz	s5,3a26 <__muldf3+0x4c0>
    37fa:	8556                	mv	a0,s5
    37fc:	5c7000ef          	jal	45c2 <__clzsi2>
    3800:	87aa                	mv	a5,a0
    3802:	ff550713          	addi	a4,a0,-11
    3806:	46f5                	li	a3,29
    3808:	8e99                	sub	a3,a3,a4
    380a:	ff878813          	addi	a6,a5,-8 # fff8 <_data_lma+0xaed0>
    380e:	010a9733          	sll	a4,s5,a6
    3812:	00dc56b3          	srl	a3,s8,a3
    3816:	00e6eab3          	or	s5,a3,a4
    381a:	010c1833          	sll	a6,s8,a6
    381e:	40fb07b3          	sub	a5,s6,a5
    3822:	4729                	li	a4,10
    3824:	c0d78b13          	addi	s6,a5,-1011
    3828:	01974a63          	blt	a4,s9,383c <__muldf3+0x2d6>
    382c:	4789                	li	a5,2
    382e:	009a46b3          	xor	a3,s4,s1
    3832:	df97dce3          	bge	a5,s9,362a <__muldf3+0xc4>
    3836:	85b6                	mv	a1,a3
    3838:	4781                	li	a5,0
    383a:	bbc9                	j	360c <__muldf3+0xa6>
    383c:	85d2                	mv	a1,s4
    383e:	4789                	li	a5,2
    3840:	1afd0463          	beq	s10,a5,39e8 <__muldf3+0x482>
    3844:	478d                	li	a5,3
    3846:	12fd0c63          	beq	s10,a5,397e <__muldf3+0x418>
    384a:	4785                	li	a5,1
    384c:	86ae                	mv	a3,a1
    384e:	04fd1463          	bne	s10,a5,3896 <__muldf3+0x330>
    3852:	4781                	li	a5,0
    3854:	4401                	li	s0,0
    3856:	4701                	li	a4,0
    3858:	07d2                	slli	a5,a5,0x14
    385a:	50b2                	lw	ra,44(sp)
    385c:	8fc1                	or	a5,a5,s0
    385e:	5422                	lw	s0,40(sp)
    3860:	06fe                	slli	a3,a3,0x1f
    3862:	8fd5                	or	a5,a5,a3
    3864:	5492                	lw	s1,36(sp)
    3866:	5902                	lw	s2,32(sp)
    3868:	49f2                	lw	s3,28(sp)
    386a:	4a62                	lw	s4,24(sp)
    386c:	4ad2                	lw	s5,20(sp)
    386e:	4b42                	lw	s6,16(sp)
    3870:	4bb2                	lw	s7,12(sp)
    3872:	4c22                	lw	s8,8(sp)
    3874:	4c92                	lw	s9,4(sp)
    3876:	4d02                	lw	s10,0(sp)
    3878:	853a                	mv	a0,a4
    387a:	85be                	mv	a1,a5
    387c:	6145                	addi	sp,sp,48
    387e:	8082                	ret
    3880:	001bd793          	srli	a5,s7,0x1
    3884:	001bfb93          	andi	s7,s7,1
    3888:	0177e7b3          	or	a5,a5,s7
    388c:	01f41b93          	slli	s7,s0,0x1f
    3890:	0177ebb3          	or	s7,a5,s7
    3894:	8005                	srli	s0,s0,0x1
    3896:	400b0793          	addi	a5,s6,1024
    389a:	0b05                	addi	s6,s6,1
    389c:	0ef05863          	blez	a5,398c <__muldf3+0x426>
    38a0:	007bf713          	andi	a4,s7,7
    38a4:	ee0709e3          	beqz	a4,3796 <__muldf3+0x230>
    38a8:	00fbf713          	andi	a4,s7,15
    38ac:	4611                	li	a2,4
    38ae:	ecc71ee3          	bne	a4,a2,378a <__muldf3+0x224>
    38b2:	b5d5                	j	3796 <__muldf3+0x230>
    38b4:	018ae833          	or	a6,s5,s8
    38b8:	7ffb0b13          	addi	s6,s6,2047
    38bc:	08081b63          	bnez	a6,3952 <__muldf3+0x3ec>
    38c0:	002ce793          	ori	a5,s9,2
    38c4:	4729                	li	a4,10
    38c6:	f6f74be3          	blt	a4,a5,383c <__muldf3+0x2d6>
    38ca:	009a45b3          	xor	a1,s4,s1
    38ce:	86ae                	mv	a3,a1
    38d0:	1c0c8e63          	beqz	s9,3aac <__muldf3+0x546>
    38d4:	8cbe                	mv	s9,a5
    38d6:	4a81                	li	s5,0
    38d8:	4789                	li	a5,2
    38da:	bb0d                	j	360c <__muldf3+0xa6>
    38dc:	00a46bb3          	or	s7,s0,a0
    38e0:	020b8c63          	beqz	s7,3918 <__muldf3+0x3b2>
    38e4:	12040363          	beqz	s0,3a0a <__muldf3+0x4a4>
    38e8:	8522                	mv	a0,s0
    38ea:	4d9000ef          	jal	45c2 <__clzsi2>
    38ee:	872a                	mv	a4,a0
    38f0:	ff550693          	addi	a3,a0,-11
    38f4:	47f5                	li	a5,29
    38f6:	ff870b93          	addi	s7,a4,-8
    38fa:	8f95                	sub	a5,a5,a3
    38fc:	01741433          	sll	s0,s0,s7
    3900:	00fad7b3          	srl	a5,s5,a5
    3904:	8c5d                	or	s0,s0,a5
    3906:	017a9bb3          	sll	s7,s5,s7
    390a:	c0d00793          	li	a5,-1011
    390e:	40e78b33          	sub	s6,a5,a4
    3912:	4c81                	li	s9,0
    3914:	4d01                	li	s10,0
    3916:	b165                	j	35be <__muldf3+0x58>
    3918:	4401                	li	s0,0
    391a:	4c91                	li	s9,4
    391c:	4b01                	li	s6,0
    391e:	4d05                	li	s10,1
    3920:	b979                	j	35be <__muldf3+0x58>
    3922:	001cec93          	ori	s9,s9,1
    3926:	47a9                	li	a5,10
    3928:	f197cae3          	blt	a5,s9,383c <__muldf3+0x2d6>
    392c:	009a45b3          	xor	a1,s4,s1
    3930:	4709                	li	a4,2
    3932:	86ae                	mv	a3,a1
    3934:	4a81                	li	s5,0
    3936:	4785                	li	a5,1
    3938:	cd974ae3          	blt	a4,s9,360c <__muldf3+0xa6>
    393c:	4709                	li	a4,2
    393e:	0ae78563          	beq	a5,a4,39e8 <__muldf3+0x482>
    3942:	4d05                	li	s10,1
    3944:	4785                	li	a5,1
    3946:	4401                	li	s0,0
    3948:	4b81                	li	s7,0
    394a:	86ae                	mv	a3,a1
    394c:	f4fd15e3          	bne	s10,a5,3896 <__muldf3+0x330>
    3950:	b709                	j	3852 <__muldf3+0x2ec>
    3952:	003cec93          	ori	s9,s9,3
    3956:	4729                	li	a4,10
    3958:	15974563          	blt	a4,s9,3aa2 <__muldf3+0x53c>
    395c:	4705                	li	a4,1
    395e:	01971633          	sll	a2,a4,s9
    3962:	08867613          	andi	a2,a2,136
    3966:	009a46b3          	xor	a3,s4,s1
    396a:	8862                	mv	a6,s8
    396c:	478d                	li	a5,3
    396e:	ca060ee3          	beqz	a2,362a <__muldf3+0xc4>
    3972:	a0a5                	j	39da <__muldf3+0x474>
    3974:	8baa                	mv	s7,a0
    3976:	8b3e                	mv	s6,a5
    3978:	4cb1                	li	s9,12
    397a:	4d0d                	li	s10,3
    397c:	b189                	j	35be <__muldf3+0x58>
    397e:	4681                	li	a3,0
    3980:	7ff00793          	li	a5,2047
    3984:	00080437          	lui	s0,0x80
    3988:	4701                	li	a4,0
    398a:	b5f9                	j	3858 <__muldf3+0x2f2>
    398c:	4605                	li	a2,1
    398e:	ebdd                	bnez	a5,3a44 <__muldf3+0x4de>
    3990:	41eb0b13          	addi	s6,s6,1054
    3994:	016b97b3          	sll	a5,s7,s6
    3998:	00f037b3          	snez	a5,a5
    399c:	01641b33          	sll	s6,s0,s6
    39a0:	0167e7b3          	or	a5,a5,s6
    39a4:	00cbd733          	srl	a4,s7,a2
    39a8:	8f5d                	or	a4,a4,a5
    39aa:	00777793          	andi	a5,a4,7
    39ae:	00c45633          	srl	a2,s0,a2
    39b2:	cf81                	beqz	a5,39ca <__muldf3+0x464>
    39b4:	00f77793          	andi	a5,a4,15
    39b8:	4591                	li	a1,4
    39ba:	00b78863          	beq	a5,a1,39ca <__muldf3+0x464>
    39be:	00b707b3          	add	a5,a4,a1
    39c2:	00e7b733          	sltu	a4,a5,a4
    39c6:	963a                	add	a2,a2,a4
    39c8:	873e                	mv	a4,a5
    39ca:	00861793          	slli	a5,a2,0x8
    39ce:	0e07d163          	bgez	a5,3ab0 <__muldf3+0x54a>
    39d2:	4785                	li	a5,1
    39d4:	4401                	li	s0,0
    39d6:	4701                	li	a4,0
    39d8:	b541                	j	3858 <__muldf3+0x2f2>
    39da:	8d3e                	mv	s10,a5
    39dc:	4789                	li	a5,2
    39de:	85a6                	mv	a1,s1
    39e0:	8456                	mv	s0,s5
    39e2:	8bc2                	mv	s7,a6
    39e4:	e6fd10e3          	bne	s10,a5,3844 <__muldf3+0x2de>
    39e8:	86ae                	mv	a3,a1
    39ea:	7ff00793          	li	a5,2047
    39ee:	4401                	li	s0,0
    39f0:	4701                	li	a4,0
    39f2:	b59d                	j	3858 <__muldf3+0x2f2>
    39f4:	4681                	li	a3,0
    39f6:	7ff00793          	li	a5,2047
    39fa:	00080437          	lui	s0,0x80
    39fe:	bda9                	j	3858 <__muldf3+0x2f2>
    3a00:	7ff00793          	li	a5,2047
    3a04:	4401                	li	s0,0
    3a06:	4701                	li	a4,0
    3a08:	bd81                	j	3858 <__muldf3+0x2f2>
    3a0a:	3b9000ef          	jal	45c2 <__clzsi2>
    3a0e:	01550693          	addi	a3,a0,21
    3a12:	47f1                	li	a5,28
    3a14:	02050713          	addi	a4,a0,32
    3a18:	ecd7dee3          	bge	a5,a3,38f4 <__muldf3+0x38e>
    3a1c:	1561                	addi	a0,a0,-8
    3a1e:	00aa9433          	sll	s0,s5,a0
    3a22:	4b81                	li	s7,0
    3a24:	b5dd                	j	390a <__muldf3+0x3a4>
    3a26:	8562                	mv	a0,s8
    3a28:	39b000ef          	jal	45c2 <__clzsi2>
    3a2c:	01550713          	addi	a4,a0,21
    3a30:	46f1                	li	a3,28
    3a32:	02050793          	addi	a5,a0,32
    3a36:	dce6d8e3          	bge	a3,a4,3806 <__muldf3+0x2a0>
    3a3a:	1561                	addi	a0,a0,-8
    3a3c:	00ac1ab3          	sll	s5,s8,a0
    3a40:	4801                	li	a6,0
    3a42:	bbf1                	j	381e <__muldf3+0x2b8>
    3a44:	8e1d                	sub	a2,a2,a5
    3a46:	03800713          	li	a4,56
    3a4a:	e0c744e3          	blt	a4,a2,3852 <__muldf3+0x2ec>
    3a4e:	477d                	li	a4,31
    3a50:	f4c750e3          	bge	a4,a2,3990 <__muldf3+0x42a>
    3a54:	5705                	li	a4,-31
    3a56:	40f707b3          	sub	a5,a4,a5
    3a5a:	02000713          	li	a4,32
    3a5e:	00f457b3          	srl	a5,s0,a5
    3a62:	00e60863          	beq	a2,a4,3a72 <__muldf3+0x50c>
    3a66:	43eb0b13          	addi	s6,s6,1086
    3a6a:	01641b33          	sll	s6,s0,s6
    3a6e:	016bebb3          	or	s7,s7,s6
    3a72:	01703733          	snez	a4,s7
    3a76:	8f5d                	or	a4,a4,a5
    3a78:	00777793          	andi	a5,a4,7
    3a7c:	4401                	li	s0,0
    3a7e:	cf91                	beqz	a5,3a9a <__muldf3+0x534>
    3a80:	00f77613          	andi	a2,a4,15
    3a84:	4591                	li	a1,4
    3a86:	4781                	li	a5,0
    3a88:	00b60963          	beq	a2,a1,3a9a <__muldf3+0x534>
    3a8c:	00b70633          	add	a2,a4,a1
    3a90:	00e63733          	sltu	a4,a2,a4
    3a94:	01d71793          	slli	a5,a4,0x1d
    3a98:	8732                	mv	a4,a2
    3a9a:	830d                	srli	a4,a4,0x3
    3a9c:	8f5d                	or	a4,a4,a5
    3a9e:	4781                	li	a5,0
    3aa0:	bb65                	j	3858 <__muldf3+0x2f2>
    3aa2:	4681                	li	a3,0
    3aa4:	00080437          	lui	s0,0x80
    3aa8:	4701                	li	a4,0
    3aaa:	b37d                	j	3858 <__muldf3+0x2f2>
    3aac:	4789                	li	a5,2
    3aae:	b579                	j	393c <__muldf3+0x3d6>
    3ab0:	00961413          	slli	s0,a2,0x9
    3ab4:	8031                	srli	s0,s0,0xc
    3ab6:	01d61793          	slli	a5,a2,0x1d
    3aba:	b7c5                	j	3a9a <__muldf3+0x534>

00003abc <__subdf3>:
    3abc:	001007b7          	lui	a5,0x100
    3ac0:	17fd                	addi	a5,a5,-1 # fffff <_data_lma+0xfaed7>
    3ac2:	1101                	addi	sp,sp,-32
    3ac4:	00b7f8b3          	and	a7,a5,a1
    3ac8:	0146d813          	srli	a6,a3,0x14
    3acc:	8ff5                	and	a5,a5,a3
    3ace:	088e                	slli	a7,a7,0x3
    3ad0:	00379713          	slli	a4,a5,0x3
    3ad4:	ca26                	sw	s1,20(sp)
    3ad6:	c452                	sw	s4,8(sp)
    3ad8:	c256                	sw	s5,4(sp)
    3ada:	01d55a13          	srli	s4,a0,0x1d
    3ade:	0145da93          	srli	s5,a1,0x14
    3ae2:	01d65793          	srli	a5,a2,0x1d
    3ae6:	01f5d493          	srli	s1,a1,0x1f
    3aea:	7ff00313          	li	t1,2047
    3aee:	ce06                	sw	ra,28(sp)
    3af0:	cc22                	sw	s0,24(sp)
    3af2:	c84a                	sw	s2,16(sp)
    3af4:	c64e                	sw	s3,12(sp)
    3af6:	7ff87813          	andi	a6,a6,2047
    3afa:	011a6a33          	or	s4,s4,a7
    3afe:	8e32                	mv	t3,a2
    3b00:	8fd9                	or	a5,a5,a4
    3b02:	82fd                	srli	a3,a3,0x1f
    3b04:	006afab3          	and	s5,s5,t1
    3b08:	85a6                	mv	a1,s1
    3b0a:	00351e93          	slli	t4,a0,0x3
    3b0e:	00361893          	slli	a7,a2,0x3
    3b12:	16680863          	beq	a6,t1,3c82 <__subdf3+0x1c6>
    3b16:	0016c693          	xori	a3,a3,1
    3b1a:	410a8733          	sub	a4,s5,a6
    3b1e:	0cd48563          	beq	s1,a3,3be8 <__subdf3+0x12c>
    3b22:	5ae05263          	blez	a4,40c6 <firmware.c.764153b0+0x3>
    3b26:	18080b63          	beqz	a6,3cbc <__subdf3+0x200>
    3b2a:	386a8f63          	beq	s5,t1,3ec8 <__subdf3+0x40c>
    3b2e:	03800693          	li	a3,56
    3b32:	1ae6c363          	blt	a3,a4,3cd8 <__subdf3+0x21c>
    3b36:	008006b7          	lui	a3,0x800
    3b3a:	8fd5                	or	a5,a5,a3
    3b3c:	46fd                	li	a3,31
    3b3e:	46e6c463          	blt	a3,a4,3fa6 <__subdf3+0x4ea>
    3b42:	02000693          	li	a3,32
    3b46:	8e99                	sub	a3,a3,a4
    3b48:	00d79433          	sll	s0,a5,a3
    3b4c:	00d896b3          	sll	a3,a7,a3
    3b50:	00e8d8b3          	srl	a7,a7,a4
    3b54:	00d036b3          	snez	a3,a3
    3b58:	01146433          	or	s0,s0,a7
    3b5c:	00e7d733          	srl	a4,a5,a4
    3b60:	8c55                	or	s0,s0,a3
    3b62:	40ea0a33          	sub	s4,s4,a4
    3b66:	408e8433          	sub	s0,t4,s0
    3b6a:	008ebeb3          	sltu	t4,t4,s0
    3b6e:	41da0a33          	sub	s4,s4,t4
    3b72:	008a1793          	slli	a5,s4,0x8
    3b76:	2e07c363          	bltz	a5,3e5c <__subdf3+0x3a0>
    3b7a:	00747793          	andi	a5,s0,7
    3b7e:	32078d63          	beqz	a5,3eb8 <__subdf3+0x3fc>
    3b82:	00f47793          	andi	a5,s0,15
    3b86:	4711                	li	a4,4
    3b88:	32e78863          	beq	a5,a4,3eb8 <__subdf3+0x3fc>
    3b8c:	00440793          	addi	a5,s0,4 # 80004 <_data_lma+0x7aedc>
    3b90:	0087b433          	sltu	s0,a5,s0
    3b94:	9a22                	add	s4,s4,s0
    3b96:	843e                	mv	s0,a5
    3b98:	008a1793          	slli	a5,s4,0x8
    3b9c:	3007de63          	bgez	a5,3eb8 <__subdf3+0x3fc>
    3ba0:	001a8793          	addi	a5,s5,1
    3ba4:	7ff00713          	li	a4,2047
    3ba8:	0014f593          	andi	a1,s1,1
    3bac:	26e78f63          	beq	a5,a4,3e2a <__subdf3+0x36e>
    3bb0:	ff800737          	lui	a4,0xff800
    3bb4:	177d                	addi	a4,a4,-1 # ff7fffff <_eusrstack+0xdf7fcfff>
    3bb6:	7ff7f793          	andi	a5,a5,2047
    3bba:	00ea7733          	and	a4,s4,a4
    3bbe:	01d71613          	slli	a2,a4,0x1d
    3bc2:	800d                	srli	s0,s0,0x3
    3bc4:	0726                	slli	a4,a4,0x9
    3bc6:	8e41                	or	a2,a2,s0
    3bc8:	8331                	srli	a4,a4,0xc
    3bca:	40f2                	lw	ra,28(sp)
    3bcc:	4462                	lw	s0,24(sp)
    3bce:	07d2                	slli	a5,a5,0x14
    3bd0:	05fe                	slli	a1,a1,0x1f
    3bd2:	8fd9                	or	a5,a5,a4
    3bd4:	8fcd                	or	a5,a5,a1
    3bd6:	44d2                	lw	s1,20(sp)
    3bd8:	4942                	lw	s2,16(sp)
    3bda:	49b2                	lw	s3,12(sp)
    3bdc:	4a22                	lw	s4,8(sp)
    3bde:	4a92                	lw	s5,4(sp)
    3be0:	8532                	mv	a0,a2
    3be2:	85be                	mv	a1,a5
    3be4:	6105                	addi	sp,sp,32
    3be6:	8082                	ret
    3be8:	5ae05863          	blez	a4,4198 <firmware.c.764153b0+0xd5>
    3bec:	20081c63          	bnez	a6,3e04 <__subdf3+0x348>
    3bf0:	0117e733          	or	a4,a5,a7
    3bf4:	22070e63          	beqz	a4,3e30 <__subdf3+0x374>
    3bf8:	fffa8713          	addi	a4,s5,-1
    3bfc:	46070c63          	beqz	a4,4074 <__subdf3+0x5b8>
    3c00:	5c6a8463          	beq	s5,t1,41c8 <firmware.c.764153b0+0x105>
    3c04:	03800693          	li	a3,56
    3c08:	20e6c863          	blt	a3,a4,3e18 <__subdf3+0x35c>
    3c0c:	46fd                	li	a3,31
    3c0e:	52e6c063          	blt	a3,a4,412e <firmware.c.764153b0+0x6b>
    3c12:	02000613          	li	a2,32
    3c16:	8e19                	sub	a2,a2,a4
    3c18:	00c796b3          	sll	a3,a5,a2
    3c1c:	00c89633          	sll	a2,a7,a2
    3c20:	00e8d8b3          	srl	a7,a7,a4
    3c24:	00c03633          	snez	a2,a2
    3c28:	00e7d733          	srl	a4,a5,a4
    3c2c:	0116e6b3          	or	a3,a3,a7
    3c30:	00c6e7b3          	or	a5,a3,a2
    3c34:	9a3a                	add	s4,s4,a4
    3c36:	9ebe                	add	t4,t4,a5
    3c38:	00feb7b3          	sltu	a5,t4,a5
    3c3c:	9a3e                	add	s4,s4,a5
    3c3e:	8476                	mv	s0,t4
    3c40:	008a1793          	slli	a5,s4,0x8
    3c44:	f207dbe3          	bgez	a5,3b7a <__subdf3+0xbe>
    3c48:	0a85                	addi	s5,s5,1
    3c4a:	7ff00793          	li	a5,2047
    3c4e:	4cfa8c63          	beq	s5,a5,4126 <firmware.c.764153b0+0x63>
    3c52:	ff8007b7          	lui	a5,0xff800
    3c56:	17fd                	addi	a5,a5,-1 # ff7fffff <_eusrstack+0xdf7fcfff>
    3c58:	00fa77b3          	and	a5,s4,a5
    3c5c:	00145713          	srli	a4,s0,0x1
    3c60:	8805                	andi	s0,s0,1
    3c62:	01f79693          	slli	a3,a5,0x1f
    3c66:	8f41                	or	a4,a4,s0
    3c68:	0017da13          	srli	s4,a5,0x1
    3c6c:	00e6e433          	or	s0,a3,a4
    3c70:	00747793          	andi	a5,s0,7
    3c74:	d395                	beqz	a5,3b98 <__subdf3+0xdc>
    3c76:	00f47793          	andi	a5,s0,15
    3c7a:	4711                	li	a4,4
    3c7c:	f0e798e3          	bne	a5,a4,3b8c <__subdf3+0xd0>
    3c80:	bf21                	j	3b98 <__subdf3+0xdc>
    3c82:	0117e733          	or	a4,a5,a7
    3c86:	801a8613          	addi	a2,s5,-2047
    3c8a:	c769                	beqz	a4,3d54 <__subdf3+0x298>
    3c8c:	0cd48863          	beq	s1,a3,3d5c <__subdf3+0x2a0>
    3c90:	10060763          	beqz	a2,3d9e <__subdf3+0x2e2>
    3c94:	2c0a8a63          	beqz	s5,3f68 <__subdf3+0x4ac>
    3c98:	003e1713          	slli	a4,t3,0x3
    3c9c:	01d79613          	slli	a2,a5,0x1d
    3ca0:	830d                	srli	a4,a4,0x3
    3ca2:	84b6                	mv	s1,a3
    3ca4:	8e59                	or	a2,a2,a4
    3ca6:	838d                	srli	a5,a5,0x3
    3ca8:	8e5d                	or	a2,a2,a5
    3caa:	20060963          	beqz	a2,3ebc <__subdf3+0x400>
    3cae:	4581                	li	a1,0
    3cb0:	7ff00793          	li	a5,2047
    3cb4:	00080737          	lui	a4,0x80
    3cb8:	4601                	li	a2,0
    3cba:	bf01                	j	3bca <__subdf3+0x10e>
    3cbc:	0117e733          	or	a4,a5,a7
    3cc0:	16070863          	beqz	a4,3e30 <__subdf3+0x374>
    3cc4:	fffa8713          	addi	a4,s5,-1
    3cc8:	42070863          	beqz	a4,40f8 <firmware.c.764153b0+0x35>
    3ccc:	1e6a8e63          	beq	s5,t1,3ec8 <__subdf3+0x40c>
    3cd0:	03800693          	li	a3,56
    3cd4:	e6e6d4e3          	bge	a3,a4,3b3c <__subdf3+0x80>
    3cd8:	fffe8413          	addi	s0,t4,-1
    3cdc:	008ebeb3          	sltu	t4,t4,s0
    3ce0:	41da0a33          	sub	s4,s4,t4
    3ce4:	008a1713          	slli	a4,s4,0x8
    3ce8:	008007b7          	lui	a5,0x800
    3cec:	ea0750e3          	bgez	a4,3b8c <__subdf3+0xd0>
    3cf0:	fff78a13          	addi	s4,a5,-1 # 7fffff <_data_lma+0x7faed7>
    3cf4:	547d                	li	s0,-1
    3cf6:	8552                	mv	a0,s4
    3cf8:	0cb000ef          	jal	45c2 <__clzsi2>
    3cfc:	ff850713          	addi	a4,a0,-8
    3d00:	02000793          	li	a5,32
    3d04:	40e786b3          	sub	a3,a5,a4
    3d08:	00d456b3          	srl	a3,s0,a3
    3d0c:	00ea1a33          	sll	s4,s4,a4
    3d10:	0146e6b3          	or	a3,a3,s4
    3d14:	00e41433          	sll	s0,s0,a4
    3d18:	23574b63          	blt	a4,s5,3f4e <__subdf3+0x492>
    3d1c:	41570733          	sub	a4,a4,s5
    3d20:	0705                	addi	a4,a4,1 # 80001 <_data_lma+0x7aed9>
    3d22:	8f99                	sub	a5,a5,a4
    3d24:	00f41633          	sll	a2,s0,a5
    3d28:	00c03633          	snez	a2,a2
    3d2c:	00e45a33          	srl	s4,s0,a4
    3d30:	00f697b3          	sll	a5,a3,a5
    3d34:	01466633          	or	a2,a2,s4
    3d38:	00c7e433          	or	s0,a5,a2
    3d3c:	00e6da33          	srl	s4,a3,a4
    3d40:	014467b3          	or	a5,s0,s4
    3d44:	4a81                	li	s5,0
    3d46:	f78d                	bnez	a5,3c70 <__subdf3+0x1b4>
    3d48:	0014f593          	andi	a1,s1,1
    3d4c:	4781                	li	a5,0
    3d4e:	4701                	li	a4,0
    3d50:	4601                	li	a2,0
    3d52:	bda5                	j	3bca <__subdf3+0x10e>
    3d54:	0016c693          	xori	a3,a3,1
    3d58:	f2d49ce3          	bne	s1,a3,3c90 <__subdf3+0x1d4>
    3d5c:	16060e63          	beqz	a2,3ed8 <__subdf3+0x41c>
    3d60:	2c0a9263          	bnez	s5,4024 <__subdf3+0x568>
    3d64:	8742                	mv	a4,a6
    3d66:	01da66b3          	or	a3,s4,t4
    3d6a:	52068b63          	beqz	a3,42a0 <firmware.c.764153b0+0x1dd>
    3d6e:	fff70693          	addi	a3,a4,-1
    3d72:	30068163          	beqz	a3,4074 <__subdf3+0x5b8>
    3d76:	7ff00613          	li	a2,2047
    3d7a:	2ac70563          	beq	a4,a2,4024 <__subdf3+0x568>
    3d7e:	03800613          	li	a2,56
    3d82:	5ad65463          	bge	a2,a3,432a <firmware.c.764153b0+0x267>
    3d86:	00879693          	slli	a3,a5,0x8
    3d8a:	00800a37          	lui	s4,0x800
    3d8e:	8aba                	mv	s5,a4
    3d90:	4401                	li	s0,0
    3d92:	ea06cbe3          	bltz	a3,3c48 <__subdf3+0x18c>
    3d96:	00188413          	addi	s0,a7,1 # 10001 <_data_lma+0xaed9>
    3d9a:	8a3e                	mv	s4,a5
    3d9c:	bbc5                	j	3b8c <__subdf3+0xd0>
    3d9e:	001a8713          	addi	a4,s5,1
    3da2:	7fe77713          	andi	a4,a4,2046
    3da6:	18071163          	bnez	a4,3f28 <__subdf3+0x46c>
    3daa:	0117e633          	or	a2,a5,a7
    3dae:	01da6733          	or	a4,s4,t4
    3db2:	280a9c63          	bnez	s5,404a <__subdf3+0x58e>
    3db6:	46070e63          	beqz	a4,4232 <firmware.c.764153b0+0x16f>
    3dba:	14060d63          	beqz	a2,3f14 <__subdf3+0x458>
    3dbe:	411e85b3          	sub	a1,t4,a7
    3dc2:	00beb633          	sltu	a2,t4,a1
    3dc6:	40fa0733          	sub	a4,s4,a5
    3dca:	8f11                	sub	a4,a4,a2
    3dcc:	00871613          	slli	a2,a4,0x8
    3dd0:	52065a63          	bgez	a2,4304 <firmware.c.764153b0+0x241>
    3dd4:	41d88eb3          	sub	t4,a7,t4
    3dd8:	01d8b8b3          	sltu	a7,a7,t4
    3ddc:	414787b3          	sub	a5,a5,s4
    3de0:	411787b3          	sub	a5,a5,a7
    3de4:	00fee733          	or	a4,t4,a5
    3de8:	8476                	mv	s0,t4
    3dea:	84b6                	mv	s1,a3
    3dec:	df31                	beqz	a4,3d48 <__subdf3+0x28c>
    3dee:	00879713          	slli	a4,a5,0x8
    3df2:	56075163          	bgez	a4,4354 <firmware.c.764153b0+0x291>
    3df6:	ff800737          	lui	a4,0xff800
    3dfa:	177d                	addi	a4,a4,-1 # ff7fffff <_eusrstack+0xdf7fcfff>
    3dfc:	8f7d                	and	a4,a4,a5
    3dfe:	85b6                	mv	a1,a3
    3e00:	4785                	li	a5,1
    3e02:	bb75                	j	3bbe <__subdf3+0x102>
    3e04:	0c6a8263          	beq	s5,t1,3ec8 <__subdf3+0x40c>
    3e08:	03800693          	li	a3,56
    3e0c:	00e6c663          	blt	a3,a4,3e18 <__subdf3+0x35c>
    3e10:	008006b7          	lui	a3,0x800
    3e14:	8fd5                	or	a5,a5,a3
    3e16:	bbdd                	j	3c0c <__subdf3+0x150>
    3e18:	008a1713          	slli	a4,s4,0x8
    3e1c:	008007b7          	lui	a5,0x800
    3e20:	2a075063          	bgez	a4,40c0 <__subdf3+0x604>
    3e24:	8a3e                	mv	s4,a5
    3e26:	4401                	li	s0,0
    3e28:	b505                	j	3c48 <__subdf3+0x18c>
    3e2a:	4701                	li	a4,0
    3e2c:	4601                	li	a2,0
    3e2e:	bb71                	j	3bca <__subdf3+0x10e>
    3e30:	00351413          	slli	s0,a0,0x3
    3e34:	800d                	srli	s0,s0,0x3
    3e36:	01da1613          	slli	a2,s4,0x1d
    3e3a:	7ff00713          	li	a4,2047
    3e3e:	8e41                	or	a2,a2,s0
    3e40:	003a5793          	srli	a5,s4,0x3
    3e44:	e6ea82e3          	beq	s5,a4,3ca8 <__subdf3+0x1ec>
    3e48:	07b2                	slli	a5,a5,0xc
    3e4a:	00c7d713          	srli	a4,a5,0xc
    3e4e:	0014f593          	andi	a1,s1,1
    3e52:	7ffaf793          	andi	a5,s5,2047
    3e56:	bb95                	j	3bca <__subdf3+0x10e>
    3e58:	84b6                	mv	s1,a3
    3e5a:	4a85                	li	s5,1
    3e5c:	0a26                	slli	s4,s4,0x9
    3e5e:	009a5a13          	srli	s4,s4,0x9
    3e62:	e80a1ae3          	bnez	s4,3cf6 <__subdf3+0x23a>
    3e66:	8522                	mv	a0,s0
    3e68:	2fa9                	jal	45c2 <__clzsi2>
    3e6a:	01850713          	addi	a4,a0,24
    3e6e:	47fd                	li	a5,31
    3e70:	e8e7d8e3          	bge	a5,a4,3d00 <__subdf3+0x244>
    3e74:	1561                	addi	a0,a0,-8
    3e76:	00a416b3          	sll	a3,s0,a0
    3e7a:	15574a63          	blt	a4,s5,3fce <__subdf3+0x512>
    3e7e:	41570433          	sub	s0,a4,s5
    3e82:	00140713          	addi	a4,s0,1
    3e86:	46e7d463          	bge	a5,a4,42ee <firmware.c.764153b0+0x22b>
    3e8a:	1405                	addi	s0,s0,-31
    3e8c:	02000793          	li	a5,32
    3e90:	0086d433          	srl	s0,a3,s0
    3e94:	00f70a63          	beq	a4,a5,3ea8 <__subdf3+0x3ec>
    3e98:	04000793          	li	a5,64
    3e9c:	8f99                	sub	a5,a5,a4
    3e9e:	00f697b3          	sll	a5,a3,a5
    3ea2:	00f037b3          	snez	a5,a5
    3ea6:	8c5d                	or	s0,s0,a5
    3ea8:	ea0400e3          	beqz	s0,3d48 <__subdf3+0x28c>
    3eac:	00747793          	andi	a5,s0,7
    3eb0:	4a81                	li	s5,0
    3eb2:	dc0792e3          	bnez	a5,3c76 <__subdf3+0x1ba>
    3eb6:	4a01                	li	s4,0
    3eb8:	800d                	srli	s0,s0,0x3
    3eba:	bfb5                	j	3e36 <__subdf3+0x37a>
    3ebc:	0014f593          	andi	a1,s1,1
    3ec0:	7ff00793          	li	a5,2047
    3ec4:	4701                	li	a4,0
    3ec6:	b311                	j	3bca <__subdf3+0x10e>
    3ec8:	050e                	slli	a0,a0,0x3
    3eca:	810d                	srli	a0,a0,0x3
    3ecc:	01da1613          	slli	a2,s4,0x1d
    3ed0:	8e49                	or	a2,a2,a0
    3ed2:	003a5793          	srli	a5,s4,0x3
    3ed6:	bbc9                	j	3ca8 <__subdf3+0x1ec>
    3ed8:	001a8713          	addi	a4,s5,1
    3edc:	7fe77693          	andi	a3,a4,2046
    3ee0:	10069163          	bnez	a3,3fe2 <__subdf3+0x526>
    3ee4:	01da6733          	or	a4,s4,t4
    3ee8:	3a0a9563          	bnez	s5,4292 <firmware.c.764153b0+0x1cf>
    3eec:	0117e6b3          	or	a3,a5,a7
    3ef0:	40070463          	beqz	a4,42f8 <firmware.c.764153b0+0x235>
    3ef4:	c285                	beqz	a3,3f14 <__subdf3+0x458>
    3ef6:	98f6                	add	a7,a7,t4
    3ef8:	01d8beb3          	sltu	t4,a7,t4
    3efc:	97d2                	add	a5,a5,s4
    3efe:	01d78a33          	add	s4,a5,t4
    3f02:	008a1793          	slli	a5,s4,0x8
    3f06:	8ec6                	mv	t4,a7
    3f08:	4207c363          	bltz	a5,432e <firmware.c.764153b0+0x26b>
    3f0c:	0148e7b3          	or	a5,a7,s4
    3f10:	e2078ce3          	beqz	a5,3d48 <__subdf3+0x28c>
    3f14:	003ede93          	srli	t4,t4,0x3
    3f18:	01da1613          	slli	a2,s4,0x1d
    3f1c:	01d66633          	or	a2,a2,t4
    3f20:	003a5793          	srli	a5,s4,0x3
    3f24:	4a81                	li	s5,0
    3f26:	b70d                	j	3e48 <__subdf3+0x38c>
    3f28:	411e8433          	sub	s0,t4,a7
    3f2c:	008eb633          	sltu	a2,t4,s0
    3f30:	40fa0733          	sub	a4,s4,a5
    3f34:	8f11                	sub	a4,a4,a2
    3f36:	00871613          	slli	a2,a4,0x8
    3f3a:	0e064d63          	bltz	a2,4034 <__subdf3+0x578>
    3f3e:	00e46633          	or	a2,s0,a4
    3f42:	8a3a                	mv	s4,a4
    3f44:	fe19                	bnez	a2,3e62 <__subdf3+0x3a6>
    3f46:	4581                	li	a1,0
    3f48:	4781                	li	a5,0
    3f4a:	4701                	li	a4,0
    3f4c:	b9bd                	j	3bca <__subdf3+0x10e>
    3f4e:	ff800a37          	lui	s4,0xff800
    3f52:	1a7d                	addi	s4,s4,-1 # ff7fffff <_eusrstack+0xdf7fcfff>
    3f54:	00747793          	andi	a5,s0,7
    3f58:	40ea8ab3          	sub	s5,s5,a4
    3f5c:	0146fa33          	and	s4,a3,s4
    3f60:	c20791e3          	bnez	a5,3b82 <__subdf3+0xc6>
    3f64:	800d                	srli	s0,s0,0x3
    3f66:	bdc1                	j	3e36 <__subdf3+0x37a>
    3f68:	8742                	mv	a4,a6
    3f6a:	01da6633          	or	a2,s4,t4
    3f6e:	ca7d                	beqz	a2,4064 <__subdf3+0x5a8>
    3f70:	fff70613          	addi	a2,a4,-1
    3f74:	28060763          	beqz	a2,4202 <firmware.c.764153b0+0x13f>
    3f78:	7ff00593          	li	a1,2047
    3f7c:	d0b70ee3          	beq	a4,a1,3c98 <__subdf3+0x1dc>
    3f80:	03800593          	li	a1,56
    3f84:	32c5de63          	bge	a1,a2,42c0 <firmware.c.764153b0+0x1fd>
    3f88:	fff88413          	addi	s0,a7,-1
    3f8c:	0088b8b3          	sltu	a7,a7,s0
    3f90:	41178a33          	sub	s4,a5,a7
    3f94:	008a1613          	slli	a2,s4,0x8
    3f98:	008007b7          	lui	a5,0x800
    3f9c:	3a064963          	bltz	a2,434e <firmware.c.764153b0+0x28b>
    3fa0:	84b6                	mv	s1,a3
    3fa2:	8aba                	mv	s5,a4
    3fa4:	b6e5                	j	3b8c <__subdf3+0xd0>
    3fa6:	fe070693          	addi	a3,a4,-32
    3faa:	02000613          	li	a2,32
    3fae:	00d7d6b3          	srl	a3,a5,a3
    3fb2:	00c70a63          	beq	a4,a2,3fc6 <__subdf3+0x50a>
    3fb6:	04000613          	li	a2,64
    3fba:	40e60733          	sub	a4,a2,a4
    3fbe:	00e797b3          	sll	a5,a5,a4
    3fc2:	00f8e8b3          	or	a7,a7,a5
    3fc6:	01103433          	snez	s0,a7
    3fca:	8c55                	or	s0,s0,a3
    3fcc:	be69                	j	3b66 <__subdf3+0xaa>
    3fce:	ff8007b7          	lui	a5,0xff800
    3fd2:	17fd                	addi	a5,a5,-1 # ff7fffff <_eusrstack+0xdf7fcfff>
    3fd4:	8ff5                	and	a5,a5,a3
    3fd6:	01d79613          	slli	a2,a5,0x1d
    3fda:	40ea8ab3          	sub	s5,s5,a4
    3fde:	838d                	srli	a5,a5,0x3
    3fe0:	b5a5                	j	3e48 <__subdf3+0x38c>
    3fe2:	7ff00693          	li	a3,2047
    3fe6:	2ad70263          	beq	a4,a3,428a <firmware.c.764153b0+0x1c7>
    3fea:	98f6                	add	a7,a7,t4
    3fec:	01d8beb3          	sltu	t4,a7,t4
    3ff0:	97d2                	add	a5,a5,s4
    3ff2:	97f6                	add	a5,a5,t4
    3ff4:	0018d893          	srli	a7,a7,0x1
    3ff8:	01f79413          	slli	s0,a5,0x1f
    3ffc:	0078f693          	andi	a3,a7,7
    4000:	01146433          	or	s0,s0,a7
    4004:	0017da13          	srli	s4,a5,0x1
    4008:	34068e63          	beqz	a3,4364 <firmware.c.764153b0+0x2a1>
    400c:	00f47693          	andi	a3,s0,15
    4010:	4611                	li	a2,4
    4012:	8aba                	mv	s5,a4
    4014:	b6c69ce3          	bne	a3,a2,3b8c <__subdf3+0xd0>
    4018:	01da1613          	slli	a2,s4,0x1d
    401c:	800d                	srli	s0,s0,0x3
    401e:	8e41                	or	a2,a2,s0
    4020:	8391                	srli	a5,a5,0x4
    4022:	b51d                	j	3e48 <__subdf3+0x38c>
    4024:	003e1713          	slli	a4,t3,0x3
    4028:	01d79613          	slli	a2,a5,0x1d
    402c:	830d                	srli	a4,a4,0x3
    402e:	8e59                	or	a2,a2,a4
    4030:	838d                	srli	a5,a5,0x3
    4032:	b99d                	j	3ca8 <__subdf3+0x1ec>
    4034:	41d88eb3          	sub	t4,a7,t4
    4038:	01d8b8b3          	sltu	a7,a7,t4
    403c:	414787b3          	sub	a5,a5,s4
    4040:	8476                	mv	s0,t4
    4042:	41178a33          	sub	s4,a5,a7
    4046:	84b6                	mv	s1,a3
    4048:	bd29                	j	3e62 <__subdf3+0x3a6>
    404a:	16071d63          	bnez	a4,41c4 <firmware.c.764153b0+0x101>
    404e:	2c060863          	beqz	a2,431e <firmware.c.764153b0+0x25b>
    4052:	003e1613          	slli	a2,t3,0x3
    4056:	01d79713          	slli	a4,a5,0x1d
    405a:	820d                	srli	a2,a2,0x3
    405c:	84b6                	mv	s1,a3
    405e:	8e59                	or	a2,a2,a4
    4060:	838d                	srli	a5,a5,0x3
    4062:	b199                	j	3ca8 <__subdf3+0x1ec>
    4064:	003e1613          	slli	a2,t3,0x3
    4068:	00365413          	srli	s0,a2,0x3
    406c:	84b6                	mv	s1,a3
    406e:	8aba                	mv	s5,a4
    4070:	8a3e                	mv	s4,a5
    4072:	b3d1                	j	3e36 <__subdf3+0x37a>
    4074:	98f6                	add	a7,a7,t4
    4076:	01d8beb3          	sltu	t4,a7,t4
    407a:	97d2                	add	a5,a5,s4
    407c:	97f6                	add	a5,a5,t4
    407e:	00879713          	slli	a4,a5,0x8
    4082:	22075663          	bgez	a4,42ae <firmware.c.764153b0+0x1eb>
    4086:	ff800737          	lui	a4,0xff800
    408a:	177d                	addi	a4,a4,-1 # ff7fffff <_eusrstack+0xdf7fcfff>
    408c:	0018d693          	srli	a3,a7,0x1
    4090:	8ff9                	and	a5,a5,a4
    4092:	01f79713          	slli	a4,a5,0x1f
    4096:	0076f593          	andi	a1,a3,7
    409a:	8f55                	or	a4,a4,a3
    409c:	0017d613          	srli	a2,a5,0x1
    40a0:	26058963          	beqz	a1,4312 <firmware.c.764153b0+0x24f>
    40a4:	00f77693          	andi	a3,a4,15
    40a8:	4591                	li	a1,4
    40aa:	26b68463          	beq	a3,a1,4312 <firmware.c.764153b0+0x24f>
    40ae:	00b70433          	add	s0,a4,a1
    40b2:	00e43733          	sltu	a4,s0,a4
    40b6:	00c70a33          	add	s4,a4,a2
    40ba:	4a89                	li	s5,2
    40bc:	800d                	srli	s0,s0,0x3
    40be:	bba5                	j	3e36 <__subdf3+0x37a>
    40c0:	001e8413          	addi	s0,t4,1
    40c4:	b4e1                	j	3b8c <__subdf3+0xd0>
    40c6:	cc070ce3          	beqz	a4,3d9e <__subdf3+0x2e2>
    40ca:	41580733          	sub	a4,a6,s5
    40ce:	e80a8ee3          	beqz	s5,3f6a <__subdf3+0x4ae>
    40d2:	03800613          	li	a2,56
    40d6:	08e65063          	bge	a2,a4,4156 <firmware.c.764153b0+0x93>
    40da:	fff88413          	addi	s0,a7,-1
    40de:	0088b8b3          	sltu	a7,a7,s0
    40e2:	41178a33          	sub	s4,a5,a7
    40e6:	008a1713          	slli	a4,s4,0x8
    40ea:	008007b7          	lui	a5,0x800
    40ee:	18074863          	bltz	a4,427e <firmware.c.764153b0+0x1bb>
    40f2:	84b6                	mv	s1,a3
    40f4:	8ac2                	mv	s5,a6
    40f6:	bc59                	j	3b8c <__subdf3+0xd0>
    40f8:	411e88b3          	sub	a7,t4,a7
    40fc:	40fa07b3          	sub	a5,s4,a5
    4100:	011ebeb3          	sltu	t4,t4,a7
    4104:	41d78a33          	sub	s4,a5,t4
    4108:	008a1793          	slli	a5,s4,0x8
    410c:	8446                	mv	s0,a7
    410e:	d407c6e3          	bltz	a5,3e5a <__subdf3+0x39e>
    4112:	0038d893          	srli	a7,a7,0x3
    4116:	01da1613          	slli	a2,s4,0x1d
    411a:	00c8e633          	or	a2,a7,a2
    411e:	003a5793          	srli	a5,s4,0x3
    4122:	4a85                	li	s5,1
    4124:	b315                	j	3e48 <__subdf3+0x38c>
    4126:	87d6                	mv	a5,s5
    4128:	4701                	li	a4,0
    412a:	4601                	li	a2,0
    412c:	bc79                	j	3bca <__subdf3+0x10e>
    412e:	fe070693          	addi	a3,a4,-32
    4132:	02000613          	li	a2,32
    4136:	00d7d6b3          	srl	a3,a5,a3
    413a:	00c70a63          	beq	a4,a2,414e <firmware.c.764153b0+0x8b>
    413e:	04000613          	li	a2,64
    4142:	40e60733          	sub	a4,a2,a4
    4146:	00e797b3          	sll	a5,a5,a4
    414a:	00f8e8b3          	or	a7,a7,a5
    414e:	011037b3          	snez	a5,a7
    4152:	8fd5                	or	a5,a5,a3
    4154:	b4cd                	j	3c36 <__subdf3+0x17a>
    4156:	00800637          	lui	a2,0x800
    415a:	84b6                	mv	s1,a3
    415c:	00ca6a33          	or	s4,s4,a2
    4160:	46fd                	li	a3,31
    4162:	06e6cc63          	blt	a3,a4,41da <firmware.c.764153b0+0x117>
    4166:	02000693          	li	a3,32
    416a:	8e99                	sub	a3,a3,a4
    416c:	00da1433          	sll	s0,s4,a3
    4170:	00de96b3          	sll	a3,t4,a3
    4174:	00eedeb3          	srl	t4,t4,a4
    4178:	00d036b3          	snez	a3,a3
    417c:	01d46433          	or	s0,s0,t4
    4180:	00ea5733          	srl	a4,s4,a4
    4184:	8c55                	or	s0,s0,a3
    4186:	8f99                	sub	a5,a5,a4
    4188:	40888433          	sub	s0,a7,s0
    418c:	0088b8b3          	sltu	a7,a7,s0
    4190:	41178a33          	sub	s4,a5,a7
    4194:	8ac2                	mv	s5,a6
    4196:	baf1                	j	3b72 <__subdf3+0xb6>
    4198:	d40700e3          	beqz	a4,3ed8 <__subdf3+0x41c>
    419c:	41580733          	sub	a4,a6,s5
    41a0:	bc0a83e3          	beqz	s5,3d66 <__subdf3+0x2aa>
    41a4:	03800693          	li	a3,56
    41a8:	08e6db63          	bge	a3,a4,423e <firmware.c.764153b0+0x17b>
    41ac:	00879713          	slli	a4,a5,0x8
    41b0:	00800a37          	lui	s4,0x800
    41b4:	8ac2                	mv	s5,a6
    41b6:	4401                	li	s0,0
    41b8:	a80748e3          	bltz	a4,3c48 <__subdf3+0x18c>
    41bc:	00188413          	addi	s0,a7,1
    41c0:	8a3e                	mv	s4,a5
    41c2:	b2e9                	j	3b8c <__subdf3+0xd0>
    41c4:	ae0615e3          	bnez	a2,3cae <__subdf3+0x1f2>
    41c8:	00351793          	slli	a5,a0,0x3
    41cc:	838d                	srli	a5,a5,0x3
    41ce:	01da1613          	slli	a2,s4,0x1d
    41d2:	8e5d                	or	a2,a2,a5
    41d4:	003a5793          	srli	a5,s4,0x3
    41d8:	bcc1                	j	3ca8 <__subdf3+0x1ec>
    41da:	fe070693          	addi	a3,a4,-32
    41de:	02000613          	li	a2,32
    41e2:	00da56b3          	srl	a3,s4,a3
    41e6:	00c70a63          	beq	a4,a2,41fa <firmware.c.764153b0+0x137>
    41ea:	04000613          	li	a2,64
    41ee:	40e60733          	sub	a4,a2,a4
    41f2:	00ea1733          	sll	a4,s4,a4
    41f6:	00eeeeb3          	or	t4,t4,a4
    41fa:	01d03433          	snez	s0,t4
    41fe:	8c55                	or	s0,s0,a3
    4200:	b761                	j	4188 <firmware.c.764153b0+0xc5>
    4202:	41d88eb3          	sub	t4,a7,t4
    4206:	414787b3          	sub	a5,a5,s4
    420a:	01d8b8b3          	sltu	a7,a7,t4
    420e:	41178a33          	sub	s4,a5,a7
    4212:	008a1793          	slli	a5,s4,0x8
    4216:	8476                	mv	s0,t4
    4218:	c407c0e3          	bltz	a5,3e58 <__subdf3+0x39c>
    421c:	003ede93          	srli	t4,t4,0x3
    4220:	01da1613          	slli	a2,s4,0x1d
    4224:	84b6                	mv	s1,a3
    4226:	01d66633          	or	a2,a2,t4
    422a:	003a5793          	srli	a5,s4,0x3
    422e:	4a85                	li	s5,1
    4230:	b921                	j	3e48 <__subdf3+0x38c>
    4232:	d0060ae3          	beqz	a2,3f46 <__subdf3+0x48a>
    4236:	8a3e                	mv	s4,a5
    4238:	8ec6                	mv	t4,a7
    423a:	84b6                	mv	s1,a3
    423c:	b9e1                	j	3f14 <__subdf3+0x458>
    423e:	008006b7          	lui	a3,0x800
    4242:	00da6a33          	or	s4,s4,a3
    4246:	46fd                	li	a3,31
    4248:	06e6cf63          	blt	a3,a4,42c6 <firmware.c.764153b0+0x203>
    424c:	02000613          	li	a2,32
    4250:	8e19                	sub	a2,a2,a4
    4252:	00ca16b3          	sll	a3,s4,a2
    4256:	00ce9633          	sll	a2,t4,a2
    425a:	00eedeb3          	srl	t4,t4,a4
    425e:	00c03633          	snez	a2,a2
    4262:	01d6e6b3          	or	a3,a3,t4
    4266:	00ea5733          	srl	a4,s4,a4
    426a:	8ed1                	or	a3,a3,a2
    426c:	97ba                	add	a5,a5,a4
    426e:	98b6                	add	a7,a7,a3
    4270:	00d8b6b3          	sltu	a3,a7,a3
    4274:	00f68a33          	add	s4,a3,a5
    4278:	8446                	mv	s0,a7
    427a:	8ac2                	mv	s5,a6
    427c:	b2d1                	j	3c40 <__subdf3+0x184>
    427e:	8ac2                	mv	s5,a6
    4280:	84b6                	mv	s1,a3
    4282:	fff78a13          	addi	s4,a5,-1 # 7fffff <_data_lma+0x7faed7>
    4286:	547d                	li	s0,-1
    4288:	b4bd                	j	3cf6 <__subdf3+0x23a>
    428a:	87ba                	mv	a5,a4
    428c:	4601                	li	a2,0
    428e:	4701                	li	a4,0
    4290:	ba2d                	j	3bca <__subdf3+0x10e>
    4292:	d80709e3          	beqz	a4,4024 <__subdf3+0x568>
    4296:	0117e8b3          	or	a7,a5,a7
    429a:	a0089ae3          	bnez	a7,3cae <__subdf3+0x1f2>
    429e:	b72d                	j	41c8 <firmware.c.764153b0+0x105>
    42a0:	003e1613          	slli	a2,t3,0x3
    42a4:	00365413          	srli	s0,a2,0x3
    42a8:	8aba                	mv	s5,a4
    42aa:	8a3e                	mv	s4,a5
    42ac:	b669                	j	3e36 <__subdf3+0x37a>
    42ae:	01d79613          	slli	a2,a5,0x1d
    42b2:	0038d893          	srli	a7,a7,0x3
    42b6:	01166633          	or	a2,a2,a7
    42ba:	838d                	srli	a5,a5,0x3
    42bc:	4a85                	li	s5,1
    42be:	b669                	j	3e48 <__subdf3+0x38c>
    42c0:	84b6                	mv	s1,a3
    42c2:	8732                	mv	a4,a2
    42c4:	bd71                	j	4160 <firmware.c.764153b0+0x9d>
    42c6:	fe070613          	addi	a2,a4,-32
    42ca:	02000693          	li	a3,32
    42ce:	00ca5633          	srl	a2,s4,a2
    42d2:	00d70a63          	beq	a4,a3,42e6 <firmware.c.764153b0+0x223>
    42d6:	04000693          	li	a3,64
    42da:	40e68733          	sub	a4,a3,a4
    42de:	00ea1733          	sll	a4,s4,a4
    42e2:	00eeeeb3          	or	t4,t4,a4
    42e6:	01d036b3          	snez	a3,t4
    42ea:	8ed1                	or	a3,a3,a2
    42ec:	b749                	j	426e <firmware.c.764153b0+0x1ab>
    42ee:	02000793          	li	a5,32
    42f2:	8f99                	sub	a5,a5,a4
    42f4:	4601                	li	a2,0
    42f6:	bc2d                	j	3d30 <__subdf3+0x274>
    42f8:	a40688e3          	beqz	a3,3d48 <__subdf3+0x28c>
    42fc:	8446                	mv	s0,a7
    42fe:	8a3e                	mv	s4,a5
    4300:	800d                	srli	s0,s0,0x3
    4302:	be15                	j	3e36 <__subdf3+0x37a>
    4304:	00e5e633          	or	a2,a1,a4
    4308:	c2060fe3          	beqz	a2,3f46 <__subdf3+0x48a>
    430c:	8a3a                	mv	s4,a4
    430e:	8eae                	mv	t4,a1
    4310:	b111                	j	3f14 <__subdf3+0x458>
    4312:	830d                	srli	a4,a4,0x3
    4314:	0676                	slli	a2,a2,0x1d
    4316:	8e59                	or	a2,a2,a4
    4318:	8391                	srli	a5,a5,0x4
    431a:	4a89                	li	s5,2
    431c:	b635                	j	3e48 <__subdf3+0x38c>
    431e:	4581                	li	a1,0
    4320:	7ff00793          	li	a5,2047
    4324:	00080737          	lui	a4,0x80
    4328:	b04d                	j	3bca <__subdf3+0x10e>
    432a:	8736                	mv	a4,a3
    432c:	bf29                	j	4246 <firmware.c.764153b0+0x183>
    432e:	ff8007b7          	lui	a5,0xff800
    4332:	17fd                	addi	a5,a5,-1 # ff7fffff <_eusrstack+0xdf7fcfff>
    4334:	00fa77b3          	and	a5,s4,a5
    4338:	01d79613          	slli	a2,a5,0x1d
    433c:	0038de93          	srli	t4,a7,0x3
    4340:	07a6                	slli	a5,a5,0x9
    4342:	00c7d713          	srli	a4,a5,0xc
    4346:	01d66633          	or	a2,a2,t4
    434a:	4785                	li	a5,1
    434c:	b8bd                	j	3bca <__subdf3+0x10e>
    434e:	8aba                	mv	s5,a4
    4350:	84b6                	mv	s1,a3
    4352:	ba79                	j	3cf0 <__subdf3+0x234>
    4354:	01d79613          	slli	a2,a5,0x1d
    4358:	003ede93          	srli	t4,t4,0x3
    435c:	01d66633          	or	a2,a2,t4
    4360:	838d                	srli	a5,a5,0x3
    4362:	b4dd                	j	3e48 <__subdf3+0x38c>
    4364:	800d                	srli	s0,s0,0x3
    4366:	01da1613          	slli	a2,s4,0x1d
    436a:	8e41                	or	a2,a2,s0
    436c:	8391                	srli	a5,a5,0x4
    436e:	8aba                	mv	s5,a4
    4370:	bce1                	j	3e48 <__subdf3+0x38c>

00004372 <__fixdfsi>:
    4372:	0145d793          	srli	a5,a1,0x14
    4376:	001006b7          	lui	a3,0x100
    437a:	fff68713          	addi	a4,a3,-1 # fffff <_data_lma+0xfaed7>
    437e:	7ff7f793          	andi	a5,a5,2047
    4382:	3fe00613          	li	a2,1022
    4386:	8f6d                	and	a4,a4,a1
    4388:	81fd                	srli	a1,a1,0x1f
    438a:	00f65b63          	bge	a2,a5,43a0 <__fixdfsi+0x2e>
    438e:	41d00613          	li	a2,1053
    4392:	00f65963          	bge	a2,a5,43a4 <__fixdfsi+0x32>
    4396:	80000537          	lui	a0,0x80000
    439a:	157d                	addi	a0,a0,-1 # 7fffffff <_eusrstack+0x5fffcfff>
    439c:	952e                	add	a0,a0,a1
    439e:	8082                	ret
    43a0:	4501                	li	a0,0
    43a2:	8082                	ret
    43a4:	43300613          	li	a2,1075
    43a8:	8e1d                	sub	a2,a2,a5
    43aa:	487d                	li	a6,31
    43ac:	8f55                	or	a4,a4,a3
    43ae:	00c85d63          	bge	a6,a2,43c8 <__fixdfsi+0x56>
    43b2:	41300693          	li	a3,1043
    43b6:	40f687b3          	sub	a5,a3,a5
    43ba:	00f75733          	srl	a4,a4,a5
    43be:	40e00533          	neg	a0,a4
    43c2:	f1e5                	bnez	a1,43a2 <__fixdfsi+0x30>
    43c4:	853a                	mv	a0,a4
    43c6:	8082                	ret
    43c8:	bed78793          	addi	a5,a5,-1043
    43cc:	00f71733          	sll	a4,a4,a5
    43d0:	00c55533          	srl	a0,a0,a2
    43d4:	8f49                	or	a4,a4,a0
    43d6:	b7e5                	j	43be <__fixdfsi+0x4c>

000043d8 <__floatsidf>:
    43d8:	1101                	addi	sp,sp,-32
    43da:	ce06                	sw	ra,28(sp)
    43dc:	cc22                	sw	s0,24(sp)
    43de:	ca26                	sw	s1,20(sp)
    43e0:	c84a                	sw	s2,16(sp)
    43e2:	c64e                	sw	s3,12(sp)
    43e4:	cd0d                	beqz	a0,441e <__floatsidf+0x46>
    43e6:	41f55713          	srai	a4,a0,0x1f
    43ea:	00a744b3          	xor	s1,a4,a0
    43ee:	8c99                	sub	s1,s1,a4
    43f0:	87aa                	mv	a5,a0
    43f2:	8526                	mv	a0,s1
    43f4:	01f7d413          	srli	s0,a5,0x1f
    43f8:	22e9                	jal	45c2 <__clzsi2>
    43fa:	41e00793          	li	a5,1054
    43fe:	8f89                	sub	a5,a5,a0
    4400:	4729                	li	a4,10
    4402:	7ff7f793          	andi	a5,a5,2047
    4406:	02a74d63          	blt	a4,a0,4440 <__floatsidf+0x68>
    440a:	472d                	li	a4,11
    440c:	8f09                	sub	a4,a4,a0
    440e:	00e4d733          	srl	a4,s1,a4
    4412:	0732                	slli	a4,a4,0xc
    4414:	0555                	addi	a0,a0,21
    4416:	8331                	srli	a4,a4,0xc
    4418:	00a494b3          	sll	s1,s1,a0
    441c:	a029                	j	4426 <__floatsidf+0x4e>
    441e:	4401                	li	s0,0
    4420:	4781                	li	a5,0
    4422:	4701                	li	a4,0
    4424:	4481                	li	s1,0
    4426:	07d2                	slli	a5,a5,0x14
    4428:	047e                	slli	s0,s0,0x1f
    442a:	8fd9                	or	a5,a5,a4
    442c:	40f2                	lw	ra,28(sp)
    442e:	8fc1                	or	a5,a5,s0
    4430:	4462                	lw	s0,24(sp)
    4432:	4942                	lw	s2,16(sp)
    4434:	49b2                	lw	s3,12(sp)
    4436:	8526                	mv	a0,s1
    4438:	85be                	mv	a1,a5
    443a:	44d2                	lw	s1,20(sp)
    443c:	6105                	addi	sp,sp,32
    443e:	8082                	ret
    4440:	1555                	addi	a0,a0,-11
    4442:	00a49733          	sll	a4,s1,a0
    4446:	0732                	slli	a4,a4,0xc
    4448:	8331                	srli	a4,a4,0xc
    444a:	4481                	li	s1,0
    444c:	bfe9                	j	4426 <__floatsidf+0x4e>

0000444e <__gesf2>:
    444e:	01755693          	srli	a3,a0,0x17
    4452:	00800737          	lui	a4,0x800
    4456:	87aa                	mv	a5,a0
    4458:	177d                	addi	a4,a4,-1 # 7fffff <_data_lma+0x7faed7>
    445a:	0175d513          	srli	a0,a1,0x17
    445e:	0ff6f693          	zext.b	a3,a3
    4462:	0ff00613          	li	a2,255
    4466:	00f77833          	and	a6,a4,a5
    446a:	0ff57513          	zext.b	a0,a0
    446e:	8f6d                	and	a4,a4,a1
    4470:	83fd                	srli	a5,a5,0x1f
    4472:	81fd                	srli	a1,a1,0x1f
    4474:	02c68863          	beq	a3,a2,44a4 <__gesf2+0x56>
    4478:	00c50b63          	beq	a0,a2,448e <__gesf2+0x40>
    447c:	ee8d                	bnez	a3,44b6 <__gesf2+0x68>
    447e:	e911                	bnez	a0,4492 <__gesf2+0x44>
    4480:	cb21                	beqz	a4,44d0 <__gesf2+0x82>
    4482:	06081063          	bnez	a6,44e2 <__gesf2+0x94>
    4486:	00159513          	slli	a0,a1,0x1
    448a:	157d                	addi	a0,a0,-1
    448c:	8082                	ret
    448e:	eb21                	bnez	a4,44de <__gesf2+0x90>
    4490:	e299                	bnez	a3,4496 <__gesf2+0x48>
    4492:	fe080ae3          	beqz	a6,4486 <__gesf2+0x38>
    4496:	04b78063          	beq	a5,a1,44d6 <__gesf2+0x88>
    449a:	40f007b3          	neg	a5,a5
    449e:	0017e513          	ori	a0,a5,1
    44a2:	8082                	ret
    44a4:	02081d63          	bnez	a6,44de <__gesf2+0x90>
    44a8:	fed519e3          	bne	a0,a3,449a <__gesf2+0x4c>
    44ac:	eb0d                	bnez	a4,44de <__gesf2+0x90>
    44ae:	feb796e3          	bne	a5,a1,449a <__gesf2+0x4c>
    44b2:	4501                	li	a0,0
    44b4:	8082                	ret
    44b6:	d175                	beqz	a0,449a <__gesf2+0x4c>
    44b8:	feb791e3          	bne	a5,a1,449a <__gesf2+0x4c>
    44bc:	fcd54fe3          	blt	a0,a3,449a <__gesf2+0x4c>
    44c0:	00a6cb63          	blt	a3,a0,44d6 <__gesf2+0x88>
    44c4:	fd076be3          	bltu	a4,a6,449a <__gesf2+0x4c>
    44c8:	4501                	li	a0,0
    44ca:	00e86663          	bltu	a6,a4,44d6 <__gesf2+0x88>
    44ce:	8082                	ret
    44d0:	fc0815e3          	bnez	a6,449a <__gesf2+0x4c>
    44d4:	8082                	ret
    44d6:	00179513          	slli	a0,a5,0x1
    44da:	157d                	addi	a0,a0,-1
    44dc:	8082                	ret
    44de:	5579                	li	a0,-2
    44e0:	8082                	ret
    44e2:	fab79ce3          	bne	a5,a1,449a <__gesf2+0x4c>
    44e6:	bff9                	j	44c4 <__gesf2+0x76>

000044e8 <__floatsisf>:
    44e8:	1141                	addi	sp,sp,-16
    44ea:	c606                	sw	ra,12(sp)
    44ec:	c422                	sw	s0,8(sp)
    44ee:	c226                	sw	s1,4(sp)
    44f0:	cd15                	beqz	a0,452c <__floatsisf+0x44>
    44f2:	41f55713          	srai	a4,a0,0x1f
    44f6:	00a74433          	xor	s0,a4,a0
    44fa:	8c19                	sub	s0,s0,a4
    44fc:	87aa                	mv	a5,a0
    44fe:	8522                	mv	a0,s0
    4500:	01f7d493          	srli	s1,a5,0x1f
    4504:	287d                	jal	45c2 <__clzsi2>
    4506:	09e00793          	li	a5,158
    450a:	40a786b3          	sub	a3,a5,a0
    450e:	09600793          	li	a5,150
    4512:	02d7ca63          	blt	a5,a3,4546 <__floatsisf+0x5e>
    4516:	4721                	li	a4,8
    4518:	0ae50263          	beq	a0,a4,45bc <__floatsisf+0xd4>
    451c:	1561                	addi	a0,a0,-8
    451e:	00a41433          	sll	s0,s0,a0
    4522:	0426                	slli	s0,s0,0x9
    4524:	8025                	srli	s0,s0,0x9
    4526:	0ff6f793          	zext.b	a5,a3
    452a:	a021                	j	4532 <__floatsisf+0x4a>
    452c:	4481                	li	s1,0
    452e:	4781                	li	a5,0
    4530:	4401                	li	s0,0
    4532:	07de                	slli	a5,a5,0x17
    4534:	40b2                	lw	ra,12(sp)
    4536:	8fc1                	or	a5,a5,s0
    4538:	4422                	lw	s0,8(sp)
    453a:	01f49513          	slli	a0,s1,0x1f
    453e:	8d5d                	or	a0,a0,a5
    4540:	4492                	lw	s1,4(sp)
    4542:	0141                	addi	sp,sp,16
    4544:	8082                	ret
    4546:	09900713          	li	a4,153
    454a:	04d74063          	blt	a4,a3,458a <__floatsisf+0xa2>
    454e:	ffb50793          	addi	a5,a0,-5
    4552:	00f41433          	sll	s0,s0,a5
    4556:	fc0007b7          	lui	a5,0xfc000
    455a:	17fd                	addi	a5,a5,-1 # fbffffff <_eusrstack+0xdbffcfff>
    455c:	00747713          	andi	a4,s0,7
    4560:	8fe1                	and	a5,a5,s0
    4562:	c731                	beqz	a4,45ae <__floatsisf+0xc6>
    4564:	883d                	andi	s0,s0,15
    4566:	4711                	li	a4,4
    4568:	04e40363          	beq	s0,a4,45ae <__floatsisf+0xc6>
    456c:	0791                	addi	a5,a5,4
    456e:	00579713          	slli	a4,a5,0x5
    4572:	0037d413          	srli	s0,a5,0x3
    4576:	02075e63          	bgez	a4,45b2 <__floatsisf+0xca>
    457a:	09f00793          	li	a5,159
    457e:	0426                	slli	s0,s0,0x9
    4580:	8f89                	sub	a5,a5,a0
    4582:	8025                	srli	s0,s0,0x9
    4584:	0ff7f793          	zext.b	a5,a5
    4588:	b76d                	j	4532 <__floatsisf+0x4a>
    458a:	01b50793          	addi	a5,a0,27
    458e:	4715                	li	a4,5
    4590:	00f417b3          	sll	a5,s0,a5
    4594:	8f09                	sub	a4,a4,a0
    4596:	00f037b3          	snez	a5,a5
    459a:	00e45433          	srl	s0,s0,a4
    459e:	8c5d                	or	s0,s0,a5
    45a0:	fc0007b7          	lui	a5,0xfc000
    45a4:	17fd                	addi	a5,a5,-1 # fbffffff <_eusrstack+0xdbffcfff>
    45a6:	00747713          	andi	a4,s0,7
    45aa:	8fe1                	and	a5,a5,s0
    45ac:	ff45                	bnez	a4,4564 <__floatsisf+0x7c>
    45ae:	0037d413          	srli	s0,a5,0x3
    45b2:	0426                	slli	s0,s0,0x9
    45b4:	8025                	srli	s0,s0,0x9
    45b6:	0ff6f793          	zext.b	a5,a3
    45ba:	bfa5                	j	4532 <__floatsisf+0x4a>
    45bc:	0426                	slli	s0,s0,0x9
    45be:	8025                	srli	s0,s0,0x9
    45c0:	bf8d                	j	4532 <__floatsisf+0x4a>

000045c2 <__clzsi2>:
    45c2:	67c1                	lui	a5,0x10
    45c4:	02f57663          	bgeu	a0,a5,45f0 <__clzsi2+0x2e>
    45c8:	10053793          	sltiu	a5,a0,256
    45cc:	0017b793          	seqz	a5,a5
    45d0:	078e                	slli	a5,a5,0x3
    45d2:	02000713          	li	a4,32
    45d6:	8f1d                	sub	a4,a4,a5
    45d8:	00f55533          	srl	a0,a0,a5
    45dc:	00001797          	auipc	a5,0x1
    45e0:	a4c78793          	addi	a5,a5,-1460 # 5028 <__clz_tab>
    45e4:	97aa                	add	a5,a5,a0
    45e6:	0007c503          	lbu	a0,0(a5)
    45ea:	40a70533          	sub	a0,a4,a0
    45ee:	8082                	ret
    45f0:	010007b7          	lui	a5,0x1000
    45f4:	02f57063          	bgeu	a0,a5,4614 <__clzsi2+0x52>
    45f8:	4741                	li	a4,16
    45fa:	87ba                	mv	a5,a4
    45fc:	00f55533          	srl	a0,a0,a5
    4600:	00001797          	auipc	a5,0x1
    4604:	a2878793          	addi	a5,a5,-1496 # 5028 <__clz_tab>
    4608:	97aa                	add	a5,a5,a0
    460a:	0007c503          	lbu	a0,0(a5)
    460e:	40a70533          	sub	a0,a4,a0
    4612:	8082                	ret
    4614:	47e1                	li	a5,24
    4616:	00f55533          	srl	a0,a0,a5
    461a:	00001797          	auipc	a5,0x1
    461e:	a0e78793          	addi	a5,a5,-1522 # 5028 <__clz_tab>
    4622:	97aa                	add	a5,a5,a0
    4624:	0007c503          	lbu	a0,0(a5)
    4628:	4721                	li	a4,8
    462a:	40a70533          	sub	a0,a4,a0
    462e:	8082                	ret
    4630:	6150                	.insn	2, 0x6150
    4632:	74207373          	.insn	4, 0x74207373
    4636:	6568                	.insn	2, 0x6568
    4638:	5020                	lw	s0,96(s0)
    463a:	6675                	lui	a2,0x1d
    463c:	6566                	.insn	2, 0x6566
    463e:	2172                	.insn	2, 0x2172
    4640:	0000                	unimp
    4642:	0000                	unimp
    4644:	502d                	c.li	zero,-21
    4646:	6572                	.insn	2, 0x6572
    4648:	43207373          	.insn	4, 0x43207373
    464c:	7420                	.insn	2, 0x7420
    464e:	6f50206f          	j	7542 <_data_lma+0x241a>
    4652:	0000656b          	.insn	4, 0x656b
    4656:	0000                	unimp
    4658:	472d                	li	a4,11
    465a:	7465                	lui	s0,0xffff9
    465c:	7220                	.insn	2, 0x7220
    465e:	6469                	lui	s0,0x1a
    4660:	6f20                	.insn	2, 0x6f20
    4662:	2066                	.insn	2, 0x2066
    4664:	6968                	.insn	2, 0x6968
    4666:	006d                	c.nop	27
    4668:	6220                	.insn	2, 0x6220
    466a:	6665                	lui	a2,0x19
    466c:	2065726f          	jal	tp,5b872 <_data_lma+0x5674a>
    4670:	6568                	.insn	2, 0x6568
    4672:	7020                	.insn	2, 0x7020
    4674:	2173706f          	j	3c08a <_data_lma+0x36f62>
    4678:	0000                	unimp
    467a:	0000                	unimp
    467c:	502d                	c.li	zero,-21
    467e:	6572                	.insn	2, 0x6572
    4680:	52207373          	.insn	4, 0x52207373
    4684:	7420                	.insn	2, 0x7420
    4686:	7020006f          	j	4d88 <fontdata+0x5dc>
    468a:	616c                	.insn	2, 0x616c
    468c:	2079                	jal	471a <__clzsi2+0x158>
    468e:	6761                	lui	a4,0x18
    4690:	6961                	lui	s2,0x18
    4692:	216e                	.insn	2, 0x216e
    4694:	0000                	unimp
    4696:	0000                	unimp
    4698:	656d6147          	.insn	4, 0x656d6147
    469c:	4f20                	lw	s0,88(a4)
    469e:	6576                	.insn	2, 0x6576
    46a0:	2172                	.insn	2, 0x2172
    46a2:	0000                	unimp
    46a4:	6325                	lui	t1,0x9
    46a6:	7325                	lui	t1,0xfffe9
    46a8:	0000                	unimp
    46aa:	0000                	unimp
    46ac:	3025                	jal	3ed4 <__subdf3+0x418>
    46ae:	7832                	.insn	2, 0x7832
    46b0:	253a                	.insn	2, 0x253a
    46b2:	3230                	.insn	2, 0x3230
    46b4:	3a78                	.insn	2, 0x3a78
    46b6:	3025                	jal	3ede <__subdf3+0x422>
    46b8:	7832                	.insn	2, 0x7832
    46ba:	253a                	.insn	2, 0x253a
    46bc:	3230                	.insn	2, 0x3230
    46be:	3a78                	.insn	2, 0x3a78
    46c0:	3025                	jal	3ee8 <__subdf3+0x42c>
    46c2:	7832                	.insn	2, 0x7832
    46c4:	253a                	.insn	2, 0x253a
    46c6:	3230                	.insn	2, 0x3230
    46c8:	3a78                	.insn	2, 0x3a78
    46ca:	3325                	jal	43f2 <__floatsidf+0x1a>
    46cc:	2064                	.insn	2, 0x2064
    46ce:	6425                	lui	s0,0x9
    46d0:	003a                	c.slli	zero,0xe
    46d2:	0000                	unimp
    46d4:	3025                	jal	3efc <__subdf3+0x440>
    46d6:	7832                	.insn	2, 0x7832
    46d8:	0020                	addi	s0,sp,8
    46da:	0000                	unimp
    46dc:	3025                	jal	3f04 <__subdf3+0x448>
    46de:	7838                	.insn	2, 0x7838
    46e0:	0000                	unimp
    46e2:	0000                	unimp
    46e4:	3325                	jal	440c <__floatsidf+0x34>
    46e6:	2064                	.insn	2, 0x2064
    46e8:	6425                	lui	s0,0x9
    46ea:	0000                	unimp
    46ec:	bbaa                	.insn	2, 0xbbaa
    46ee:	ddcc                	sw	a1,60(a1)
    46f0:	ffee                	.insn	2, 0xffee
    46f2:	0000                	unimp
    46f4:	7325                	lui	t1,0xfffe9
    46f6:	4320                	lw	s0,64(a4)
    46f8:	6e61                	lui	t3,0x18
    46fa:	6f6e                	.insn	2, 0x6f6e
    46fc:	2074                	.insn	2, 0x2074
    46fe:	666e6f43          	.insn	4, 0x666e6f43
    4702:	6769                	lui	a4,0x1a
    4704:	7275                	lui	tp,0xffffd
    4706:	2065                	jal	47ae <fontdata+0x2>
    4708:	2040                	.insn	2, 0x2040
    470a:	6425                	lui	s0,0x9
    470c:	000a                	c.slli	zero,0x2
    470e:	0000                	unimp
    4710:	534c                	lw	a1,36(a4)
    4712:	364d                	jal	42b4 <firmware.c.764153b0+0x1f1>
    4714:	5344                	lw	s1,36(a4)
    4716:	45522033          	.insn	4, 0x45522033
    471a:	00544553          	.insn	4, 0x00544553
    471e:	0000                	unimp
    4720:	4d51                	li	s10,20
    4722:	30333643          	.insn	4, 0x30333643
    4726:	2039                	jal	4734 <__clzsi2+0x172>
    4728:	4552                	lw	a0,20(sp)
    472a:	00544553          	.insn	4, 0x00544553
    472e:	0000                	unimp
    4730:	534c                	lw	a1,36(a4)
    4732:	364d                	jal	42d4 <firmware.c.764153b0+0x211>
    4734:	5344                	lw	s1,36(a4)
    4736:	4d510033          	.insn	4, 0x4d510033
    473a:	30333643          	.insn	4, 0x30333643
    473e:	0039                	c.nop	14
    4740:	7546                	.insn	2, 0x7546
    4742:	6c6c                	.insn	2, 0x6c6c
    4744:	5320                	lw	s0,96(a4)
    4746:	25203a57          	.insn	4, 0x25203a57
    474a:	3630                	.insn	2, 0x3630
    474c:	0a78                	addi	a4,sp,284
    474e:	0000                	unimp
    4750:	534c                	lw	a1,36(a4)
    4752:	364d                	jal	42f4 <firmware.c.764153b0+0x231>
    4754:	5344                	lw	s1,36(a4)
    4756:	764f2033          	.insn	4, 0x764f2033
    475a:	7265                	lui	tp,0xffff9
    475c:	6c66                	.insn	2, 0x6c66
    475e:	0000776f          	jal	a4,b75e <_data_lma+0x6636>
    4762:	0000                	unimp
    4764:	3025                	jal	3f8c <__subdf3+0x4d0>
    4766:	7836                	.insn	2, 0x7836
    4768:	0020                	addi	s0,sp,8
    476a:	0000                	unimp
    476c:	3025                	jal	3f94 <__subdf3+0x4d8>
    476e:	7834                	.insn	2, 0x7834
    4770:	0020                	addi	s0,sp,8
    4772:	0000                	unimp
    4774:	666e6f43          	.insn	4, 0x666e6f43
    4778:	7375                	lui	t1,0xffffd
    477a:	6e69                	lui	t3,0x1a
    477c:	61742067          	.insn	4, 0x61742067
    4780:	25203a67          	.insn	4, 0x25203a67
    4784:	0a64                	addi	s1,sp,284
    4786:	0000                	unimp
    4788:	654d                	lui	a0,0x13
    478a:	756e                	.insn	2, 0x756e
    478c:	0000                	unimp
    478e:	0000                	unimp
    4790:	7845                	lui	a6,0xffff1
    4792:	6d61                	lui	s10,0x18
    4794:	6c70                	.insn	2, 0x6c70
    4796:	0065                	c.nop	25
    4798:	6554                	.insn	2, 0x6554
    479a:	00007473          	.insn	4, 0x7473
    479e:	0000                	unimp
    47a0:	7550                	.insn	2, 0x7550
    47a2:	6666                	.insn	2, 0x6666
    47a4:	7265                	lui	tp,0xffff9
    47a6:	5020                	lw	s0,96(s0)
    47a8:	7361                	lui	t1,0xffff8
    47aa:	Address 0x47aa is out of bounds.


000047ac <fontdata>:
	...
    47b4:	7e 81 a5 81 bd 99 81 7e 7e ff db ff c3 e7 ff 7e     ~......~~......~
    47c4:	6c fe fe fe 7c 38 10 00 10 38 7c fe 7c 38 10 00     l...|8...8|.|8..
    47d4:	38 7c 38 fe fe d6 10 38 10 38 7c fe fe 7c 10 38     8|8....8.8|..|.8
    47e4:	00 00 18 3c 3c 18 00 00 ff ff e7 c3 c3 e7 ff ff     ...<<...........
    47f4:	00 3c 66 42 42 66 3c 00 ff c3 99 bd bd 99 c3 ff     .<fBBf<.........
    4804:	0f 07 0f 7d cc cc cc 78 3c 66 66 66 3c 18 7e 18     ...}...x<fff<.~.
    4814:	3f 33 3f 30 30 70 f0 e0 7f 63 7f 63 63 67 e6 c0     ?3?00p...c.ccg..
    4824:	18 db 3c e7 e7 3c db 18 80 e0 f8 fe f8 e0 80 00     ..<..<..........
    4834:	02 0e 3e fe 3e 0e 02 00 18 3c 7e 18 18 7e 3c 18     ..>.>....<~..~<.
    4844:	66 66 66 66 66 00 66 00 7f db db 7b 1b 1b 1b 00     fffff.f....{....
    4854:	3e 61 3c 66 66 3c 86 7c 00 00 00 00 7e 7e 7e 00     >a<ff<.|....~~~.
    4864:	18 3c 7e 18 7e 3c 18 ff 18 3c 7e 18 18 18 18 00     .<~.~<...<~.....
    4874:	18 18 18 18 7e 3c 18 00 00 18 0c fe 0c 18 00 00     ....~<..........
    4884:	00 30 60 fe 60 30 00 00 00 00 c0 c0 c0 fe 00 00     .0`.`0..........
    4894:	00 24 66 ff 66 24 00 00 00 18 3c 7e ff ff 00 00     .$f.f$....<~....
    48a4:	00 ff ff 7e 3c 18 00 00 00 00 00 00 00 00 00 00     ...~<...........
    48b4:	18 3c 3c 18 18 00 18 00 66 66 24 00 00 00 00 00     .<<.....ff$.....
    48c4:	6c 6c fe 6c fe 6c 6c 00 18 3e 60 3c 06 7c 18 00     ll.l.ll..>`<.|..
    48d4:	00 c6 cc 18 30 66 c6 00 38 6c 38 76 dc cc 76 00     ....0f..8l8v..v.
    48e4:	18 18 30 00 00 00 00 00 0c 18 30 30 30 18 0c 00     ..0.......000...
    48f4:	30 18 0c 0c 0c 18 30 00 00 66 3c ff 3c 66 00 00     0.....0..f<.<f..
    4904:	00 18 18 7e 18 18 00 00 00 00 00 00 00 18 18 30     ...~...........0
    4914:	00 00 00 7e 00 00 00 00 00 00 00 00 00 18 18 00     ...~............
    4924:	06 0c 18 30 60 c0 80 00 38 6c c6 d6 c6 6c 38 00     ...0`...8l...l8.
    4934:	18 38 18 18 18 18 7e 00 7c c6 06 1c 30 66 fe 00     .8....~.|...0f..
    4944:	7c c6 06 3c 06 c6 7c 00 1c 3c 6c cc fe 0c 1e 00     |..<..|..<l.....
    4954:	fe c0 c0 fc 06 c6 7c 00 38 60 c0 fc c6 c6 7c 00     ......|.8`....|.
    4964:	fe c6 0c 18 30 30 30 00 7c c6 c6 7c c6 c6 7c 00     ....000.|..|..|.
    4974:	7c c6 c6 7e 06 0c 78 00 00 18 18 00 00 18 18 00     |..~..x.........
    4984:	00 18 18 00 00 18 18 30 06 0c 18 30 18 0c 06 00     .......0...0....
    4994:	00 00 7e 00 00 7e 00 00 60 30 18 0c 18 30 60 00     ..~..~..`0...0`.
    49a4:	7c c6 0c 18 18 00 18 00 7c c6 de de de c0 78 00     |.......|.....x.
    49b4:	38 6c c6 fe c6 c6 c6 00 fc 66 66 7c 66 66 fc 00     8l.......ff|ff..
    49c4:	3c 66 c0 c0 c0 66 3c 00 f8 6c 66 66 66 6c f8 00     <f...f<..lfffl..
    49d4:	fe 62 68 78 68 62 fe 00 fe 62 68 78 68 60 f0 00     .bhxhb...bhxh`..
    49e4:	3c 66 c0 c0 ce 66 3a 00 c6 c6 c6 fe c6 c6 c6 00     <f...f:.........
    49f4:	3c 18 18 18 18 18 3c 00 1e 0c 0c 0c cc cc 78 00     <.....<.......x.
    4a04:	e6 66 6c 78 6c 66 e6 00 f0 60 60 60 62 66 fe 00     .flxlf...```bf..
    4a14:	c6 ee fe fe d6 c6 c6 00 c6 e6 f6 de ce c6 c6 00     ................
    4a24:	7c c6 c6 c6 c6 c6 7c 00 fc 66 66 7c 60 60 f0 00     |.....|..ff|``..
    4a34:	7c c6 c6 c6 c6 ce 7c 0e fc 66 66 7c 6c 66 e6 00     |.....|..ff|lf..
    4a44:	3c 66 30 18 0c 66 3c 00 7e 7e 5a 18 18 18 3c 00     <f0..f<.~~Z...<.
    4a54:	c6 c6 c6 c6 c6 c6 7c 00 c6 c6 c6 c6 c6 6c 38 00     ......|......l8.
    4a64:	c6 c6 c6 d6 d6 fe 6c 00 c6 c6 6c 38 6c c6 c6 00     ......l...l8l...
    4a74:	66 66 66 3c 18 18 3c 00 fe c6 8c 18 32 66 fe 00     fff<..<.....2f..
    4a84:	3c 30 30 30 30 30 3c 00 c0 60 30 18 0c 06 02 00     <00000<..`0.....
    4a94:	3c 0c 0c 0c 0c 0c 3c 00 10 38 6c c6 00 00 00 00     <.....<..8l.....
    4aa4:	00 00 00 00 00 00 00 ff 30 18 0c 00 00 00 00 00     ........0.......
    4ab4:	00 00 78 0c 7c cc 76 00 e0 60 7c 66 66 66 dc 00     ..x.|.v..`|fff..
    4ac4:	00 00 7c c6 c0 c6 7c 00 1c 0c 7c cc cc cc 76 00     ..|...|...|...v.
    4ad4:	00 00 7c c6 fe c0 7c 00 3c 66 60 f8 60 60 f0 00     ..|...|.<f`.``..
    4ae4:	00 00 76 cc cc 7c 0c f8 e0 60 6c 76 66 66 e6 00     ..v..|...`lvff..
    4af4:	18 00 38 18 18 18 3c 00 06 00 06 06 06 66 66 3c     ..8...<......ff<
    4b04:	e0 60 66 6c 78 6c e6 00 38 18 18 18 18 18 3c 00     .`flxl..8.....<.
    4b14:	00 00 ec fe d6 d6 d6 00 00 00 dc 66 66 66 66 00     ...........ffff.
    4b24:	00 00 7c c6 c6 c6 7c 00 00 00 dc 66 66 7c 60 f0     ..|...|....ff|`.
    4b34:	00 00 76 cc cc 7c 0c 1e 00 00 dc 76 60 60 f0 00     ..v..|.....v``..
    4b44:	00 00 7e c0 7c 06 fc 00 30 30 fc 30 30 36 1c 00     ..~.|...00.006..
    4b54:	00 00 cc cc cc cc 76 00 00 00 c6 c6 c6 6c 38 00     ......v......l8.
    4b64:	00 00 c6 d6 d6 fe 6c 00 00 00 c6 6c 38 6c c6 00     ......l....l8l..
    4b74:	00 00 c6 c6 c6 7e 06 fc 00 00 7e 4c 18 32 7e 00     .....~....~L.2~.
    4b84:	0e 18 18 70 18 18 0e 00 18 18 18 18 18 18 18 00     ...p............
    4b94:	70 18 18 0e 18 18 70 00 76 dc 00 00 00 00 00 00     p.....p.v.......
    4ba4:	00 10 38 6c c6 c6 fe 00 7c c6 c0 c0 c6 7c 0c 78     ..8l....|....|.x
    4bb4:	cc 00 cc cc cc cc 76 00 0c 18 7c c6 fe c0 7c 00     ......v...|...|.
    4bc4:	7c 82 78 0c 7c cc 76 00 c6 00 78 0c 7c cc 76 00     |.x.|.v...x.|.v.
    4bd4:	30 18 78 0c 7c cc 76 00 30 30 78 0c 7c cc 76 00     0.x.|.v.00x.|.v.
    4be4:	00 00 7e c0 c0 7e 0c 38 7c 82 7c c6 fe c0 7c 00     ..~..~.8|.|...|.
    4bf4:	c6 00 7c c6 fe c0 7c 00 30 18 7c c6 fe c0 7c 00     ..|...|.0.|...|.
    4c04:	66 00 38 18 18 18 3c 00 7c 82 38 18 18 18 3c 00     f.8...<.|.8...<.
    4c14:	30 18 00 38 18 18 3c 00 c6 38 6c c6 fe c6 c6 00     0..8..<..8l.....
    4c24:	38 6c 7c c6 fe c6 c6 00 18 30 fe c0 f8 c0 fe 00     8l|......0......
    4c34:	00 00 7e 18 7e d8 7e 00 3e 6c cc fe cc cc ce 00     ..~.~.~.>l......
    4c44:	7c 82 7c c6 c6 c6 7c 00 c6 00 7c c6 c6 c6 7c 00     |.|...|...|...|.
    4c54:	30 18 7c c6 c6 c6 7c 00 78 84 00 cc cc cc 76 00     0.|...|.x.....v.
    4c64:	60 30 cc cc cc cc 76 00 c6 00 c6 c6 c6 7e 06 fc     `0....v......~..
    4c74:	c6 38 6c c6 c6 6c 38 00 c6 00 c6 c6 c6 c6 7c 00     .8l..l8.......|.
    4c84:	18 18 7e c0 c0 7e 18 18 38 6c 64 f0 60 66 fc 00     ..~..~..8ld.`f..
    4c94:	66 66 3c 7e 18 7e 18 18 f8 cc cc fa c6 cf c6 c7     ff<~.~..........
    4ca4:	0e 1b 18 3c 18 d8 70 00 18 30 78 0c 7c cc 76 00     ...<..p..0x.|.v.
    4cb4:	0c 18 00 38 18 18 3c 00 0c 18 7c c6 c6 c6 7c 00     ...8..<...|...|.
    4cc4:	18 30 cc cc cc cc 76 00 76 dc 00 dc 66 66 66 00     .0....v.v...fff.
    4cd4:	76 dc 00 e6 f6 de ce 00 3c 6c 6c 3e 00 7e 00 00     v.......<ll>.~..
    4ce4:	38 6c 6c 38 00 7c 00 00 18 00 18 18 30 63 3e 00     8ll8.|......0c>.
    4cf4:	00 00 00 fe c0 c0 00 00 00 00 00 fe 06 06 00 00     ................
    4d04:	63 e6 6c 7e 33 66 cc 0f 63 e6 6c 7a 36 6a df 06     c.l~3f..c.lz6j..
    4d14:	18 00 18 18 3c 3c 18 00 00 33 66 cc 66 33 00 00     ....<<...3f.f3..
    4d24:	00 cc 66 33 66 cc 00 00 22 88 22 88 22 88 22 88     ..f3f...".".".".
    4d34:	55 aa 55 aa 55 aa 55 aa 77 dd 77 dd 77 dd 77 dd     U.U.U.U.w.w.w.w.
    4d44:	18 18 18 18 18 18 18 18 18 18 18 18 f8 18 18 18     ................
    4d54:	18 18 f8 18 f8 18 18 18 36 36 36 36 f6 36 36 36     ........6666.666
    4d64:	00 00 00 00 fe 36 36 36 00 00 f8 18 f8 18 18 18     .....666........
    4d74:	36 36 f6 06 f6 36 36 36 36 36 36 36 36 36 36 36     66...66666666666
    4d84:	00 00 fe 06 f6 36 36 36 36 36 f6 06 fe 00 00 00     .....66666......
    4d94:	36 36 36 36 fe 00 00 00 18 18 f8 18 f8 00 00 00     6666............
    4da4:	00 00 00 00 f8 18 18 18 18 18 18 18 1f 00 00 00     ................
    4db4:	18 18 18 18 ff 00 00 00 00 00 00 00 ff 18 18 18     ................
    4dc4:	18 18 18 18 1f 18 18 18 00 00 00 00 ff 00 00 00     ................
    4dd4:	18 18 18 18 ff 18 18 18 18 18 1f 18 1f 18 18 18     ................
    4de4:	36 36 36 36 37 36 36 36 36 36 37 30 3f 00 00 00     666676666670?...
    4df4:	00 00 3f 30 37 36 36 36 36 36 f7 00 ff 00 00 00     ..?0766666......
    4e04:	00 00 ff 00 f7 36 36 36 36 36 37 30 37 36 36 36     .....66666707666
    4e14:	00 00 ff 00 ff 00 00 00 36 36 f7 00 f7 36 36 36     ........66...666
    4e24:	18 18 ff 00 ff 00 00 00 36 36 36 36 ff 00 00 00     ........6666....
    4e34:	00 00 ff 00 ff 18 18 18 00 00 00 00 ff 36 36 36     .............666
    4e44:	36 36 36 36 3f 00 00 00 18 18 1f 18 1f 00 00 00     6666?...........
    4e54:	00 00 1f 18 1f 18 18 18 00 00 00 00 3f 36 36 36     ............?666
    4e64:	36 36 36 36 ff 36 36 36 18 18 ff 18 ff 18 18 18     6666.666........
    4e74:	18 18 18 18 f8 00 00 00 00 00 00 00 1f 18 18 18     ................
    4e84:	ff ff ff ff ff ff ff ff 00 00 00 00 ff ff ff ff     ................
    4e94:	f0 f0 f0 f0 f0 f0 f0 f0 0f 0f 0f 0f 0f 0f 0f 0f     ................
    4ea4:	ff ff ff ff 00 00 00 00 00 00 76 dc c8 dc 76 00     ..........v...v.
    4eb4:	78 cc cc d8 cc c6 cc 00 fe c6 c0 c0 c0 c0 c0 00     x...............
    4ec4:	00 00 fe 6c 6c 6c 6c 00 fe c6 60 30 60 c6 fe 00     ...llll...`0`...
    4ed4:	00 00 7e d8 d8 d8 70 00 00 00 66 66 66 66 7c c0     ..~...p...ffff|.
    4ee4:	00 76 dc 18 18 18 18 00 7e 18 3c 66 66 3c 18 7e     .v......~.<ff<.~
    4ef4:	38 6c c6 fe c6 6c 38 00 38 6c c6 c6 6c 6c ee 00     8l...l8.8l..ll..
    4f04:	0e 18 0c 3e 66 66 3c 00 00 00 7e db db 7e 00 00     ...>ff<...~..~..
    4f14:	06 0c 7e db db 7e 60 c0 1e 30 60 7e 60 30 1e 00     ..~..~`..0`~`0..
    4f24:	00 7c c6 c6 c6 c6 c6 00 00 fe 00 fe 00 fe 00 00     .|..............
    4f34:	18 18 7e 18 18 00 7e 00 30 18 0c 18 30 00 7e 00     ..~...~.0...0.~.
    4f44:	0c 18 30 18 0c 00 7e 00 0e 1b 1b 18 18 18 18 18     ..0...~.........
    4f54:	18 18 18 18 18 d8 d8 70 00 18 00 7e 00 18 00 00     .......p...~....
    4f64:	00 76 dc 00 76 dc 00 00 38 6c 6c 38 00 00 00 00     .v..v...8ll8....
    4f74:	00 00 00 18 18 00 00 00 00 00 00 18 00 00 00 00     ................
    4f84:	0f 0c 0c 0c ec 6c 3c 1c 6c 36 36 36 36 00 00 00     .....l<.l6666...
    4f94:	78 0c 18 30 7c 00 00 00 00 00 3c 3c 3c 3c 00 00     x..0|.....<<<<..
	...

00004fac <LSM6DS3Regmap.1>:
    4fac:	12 44 10 5a 11 5d 0a 28 06 60 07 00 08 09 09 aa     .D.Z.].(.`......
    4fbc:	0a 01 0b 60 0d 00 13 00 15 10 16 00 13 01 00 00     ...`............

00004fcc <ssd1306_init_array>:
    4fcc:	ae 00 10 b0 dc 00 81 6f 21 a4 a8 7f d3 00 d5 f0     .......o!.......
    4fdc:	d9 1d db 35 40 ad 80 a0 01 d9 06 81 fe db fe a8     ...5@...........
    4fec:	7f af ff 00                                         ....

00004ff0 <gameModes>:
    4ff0:	88 47 00 00 90 47 00 00 98 47 00 00 a0 47 00 00     .G...G...G...G..

00005000 <channel_map>:
    5000:	01 02 03 04 05 06 07 08 09 0a 0c 0d 0e 0f 10 11     ................
    5010:	12 13 14 15 16 17 18 19 1a 1b 1c 1d 1e 1f 20 21     .............. !
    5020:	22 23 24 25 26 00 0b 27                             "#$%&..'

00005028 <__clz_tab>:
    5028:	00 01 02 02 03 03 03 03 04 04 04 04 04 04 04 04     ................
    5038:	05 05 05 05 05 05 05 05 05 05 05 05 05 05 05 05     ................
    5048:	06 06 06 06 06 06 06 06 06 06 06 06 06 06 06 06     ................
    5058:	06 06 06 06 06 06 06 06 06 06 06 06 06 06 06 06     ................
    5068:	07 07 07 07 07 07 07 07 07 07 07 07 07 07 07 07     ................
    5078:	07 07 07 07 07 07 07 07 07 07 07 07 07 07 07 07     ................
    5088:	07 07 07 07 07 07 07 07 07 07 07 07 07 07 07 07     ................
    5098:	07 07 07 07 07 07 07 07 07 07 07 07 07 07 07 07     ................
    50a8:	08 08 08 08 08 08 08 08 08 08 08 08 08 08 08 08     ................
    50b8:	08 08 08 08 08 08 08 08 08 08 08 08 08 08 08 08     ................
    50c8:	08 08 08 08 08 08 08 08 08 08 08 08 08 08 08 08     ................
    50d8:	08 08 08 08 08 08 08 08 08 08 08 08 08 08 08 08     ................
    50e8:	08 08 08 08 08 08 08 08 08 08 08 08 08 08 08 08     ................
    50f8:	08 08 08 08 08 08 08 08 08 08 08 08 08 08 08 08     ................
    5108:	08 08 08 08 08 08 08 08 08 08 08 08 08 08 08 08     ................
    5118:	08 08 08 08 08 08 08 08 08 08 08 08 08 08 08 08     ................
