
firmware.elf:     file format elf32-littleriscv


Disassembly of section .init:

00000000 <InterruptVector>:
	void InterruptVector()         __attribute__((naked)) __attribute((section(".init"))) __attribute((weak,alias("InterruptVectorDefault"))) __attribute((naked));
	void InterruptVectorDefault()  __attribute__((naked)) __attribute((section(".init"))) __attribute((naked));
	void InterruptVectorDefault( void )
	{
		#if !defined(FUNCONF_TINYVECTOR) || !FUNCONF_TINYVECTOR
			asm volatile( DEFAULT_INTERRUPT_VECTOR_CONTENTS );
   0:	1160106f          	j	1116 <handle_reset>
   4:	00000000          	.word	0x00000000
   8:	000011c6          	.word	0x000011c6
   c:	000011c6          	.word	0x000011c6
  10:	f3f9bda9          	.word	0xf3f9bda9
  14:	000011c6          	.word	0x000011c6
	...
  20:	000011c6          	.word	0x000011c6
  24:	000011c6          	.word	0x000011c6
	...
  30:	000011c6          	.word	0x000011c6
  34:	00000000          	.word	0x00000000
  38:	000011c6          	.word	0x000011c6
  3c:	00000000          	.word	0x00000000
  40:	000011c6          	.word	0x000011c6
  44:	000011c6          	.word	0x000011c6
  48:	000011c6          	.word	0x000011c6
  4c:	000011c6          	.word	0x000011c6
  50:	000011c6          	.word	0x000011c6
  54:	000018c8          	.word	0x000018c8
  58:	000011c6          	.word	0x000011c6
  5c:	00000000          	.word	0x00000000
  60:	200002d2          	.word	0x200002d2
  64:	000011c6          	.word	0x000011c6
  68:	000011c6          	.word	0x000011c6
  6c:	000011c6          	.word	0x000011c6
  70:	000011c6          	.word	0x000011c6
  74:	000011c6          	.word	0x000011c6
  78:	000011c6          	.word	0x000011c6
  7c:	000011c6          	.word	0x000011c6
  80:	000011c6          	.word	0x000011c6
  84:	000011c6          	.word	0x000011c6
  88:	000011c6          	.word	0x000011c6
  8c:	000011c6          	.word	0x000011c6

Disassembly of section .highcode:

20000000 <EventRelease>:

// The timing on the setup has to be tight.
void EventRelease(void) __attribute__((section(".highcode"))) __attribute__((noinline));
void EventRelease(void)
{
	R8_TMR_CTRL_MOD = 0b00000010; // Reset Timer
20000000:	400027b7          	lui	a5,0x40002
20000004:	4709                	li	a4,2
20000006:	40e78023          	sb	a4,1024(a5) # 40002400 <_eusrstack+0x1ffff400>
	R8_TMR_CTRL_MOD = 0b11000101; // Capture mode rising edge
2000000a:	fc500713          	li	a4,-59
2000000e:	40e78023          	sb	a4,1024(a5)
#define funDigitalWrite( pin, value ) do{ if((value)==FUN_HIGH){GPIO_SetBits(pin);} else if((value)==FUN_LOW){GPIO_ResetBits(pin);} }while(0)
#define funGpioInitAll()              // funGpioInitAll() does not do anything on ch5xx, put here for consistency

RV_STATIC_INLINE void funPinMode(u32 pin, GPIOModeTypeDef mode)
{
	switch(mode) {
20000012:	4511                	li	a0,4
20000014:	e0001317          	auipc	t1,0xe0001
20000018:	dda30067          	jr	-550(t1) # dee <funPinMode.part.0>

2000001c <iSLERRSSI>:

__HIGH_CODE
int iSLERRSSI() {
#ifdef CH570_CH572
	uint8_t *tx_buf = (uint8_t*)LLE_BUF;
	int len = tx_buf[1];
2000001c:	200017b7          	lui	a5,0x20001
	return (int8_t)tx_buf[len +4];
20000020:	4717c783          	lbu	a5,1137(a5) # 20001471 <LLE_BUF+0x1>
20000024:	20001737          	lui	a4,0x20001
20000028:	47470713          	addi	a4,a4,1140 # 20001474 <LLE_BUF+0x4>
2000002c:	97ba                	add	a5,a5,a4
#else
	return (int8_t)(BB->RSSI >> 0xf);
#endif
}
2000002e:	00078503          	lb	a0,0(a5)
20000032:	8082                	ret

20000034 <iSLERCRCOK>:

__HIGH_CODE
int iSLERCRCOK() {
#ifdef CH570_CH572
	uint8_t *tx_buf = (uint8_t*)LLE_BUF;
	int len = tx_buf[1];
20000034:	200017b7          	lui	a5,0x20001
	return (int8_t)!(tx_buf[len + 5] & 0x10);
20000038:	4717c783          	lbu	a5,1137(a5) # 20001471 <LLE_BUF+0x1>
2000003c:	20001737          	lui	a4,0x20001
20000040:	47570713          	addi	a4,a4,1141 # 20001475 <LLE_BUF+0x5>
20000044:	97ba                	add	a5,a5,a4
20000046:	0007c503          	lbu	a0,0(a5)
2000004a:	8111                	srli	a0,a0,0x4
2000004c:	8905                	andi	a0,a0,1
#else
	// Unimplemented!
	return -1;
#endif
}
2000004e:	00154513          	xori	a0,a0,1
20000052:	8082                	ret

20000054 <iSLERTX>:

__HIGH_CODE
void iSLERTX(uint32_t access_address, uint8_t adv[], size_t len, uint8_t channel, uint8_t phy_mode) {
20000054:	1101                	addi	sp,sp,-32
20000056:	ca26                	sw	s1,20(sp)
	BB->CTRL_TX = (BB->CTRL_TX & 0xfffffffc) | 1;
20000058:	4000c4b7          	lui	s1,0x4000c
2000005c:	10048493          	addi	s1,s1,256 # 4000c100 <_eusrstack+0x20009100>
20000060:	58dc                	lw	a5,52(s1)
void iSLERTX(uint32_t access_address, uint8_t adv[], size_t len, uint8_t channel, uint8_t phy_mode) {
20000062:	ce06                	sw	ra,28(sp)
20000064:	cc22                	sw	s0,24(sp)
	BB->CTRL_TX = (BB->CTRL_TX & 0xfffffffc) | 1;
20000066:	9bf1                	andi	a5,a5,-4
20000068:	0017e793          	ori	a5,a5,1
void iSLERTX(uint32_t access_address, uint8_t adv[], size_t len, uint8_t channel, uint8_t phy_mode) {
2000006c:	c84a                	sw	s2,16(sp)
2000006e:	c64e                	sw	s3,12(sp)
20000070:	c452                	sw	s4,8(sp)
20000072:	89aa                	mv	s3,a0
	BB->CTRL_TX = (BB->CTRL_TX & 0xfffffffc) | 1;
20000074:	d8dc                	sw	a5,52(s1)

	DevSetChannel(channel);
20000076:	8536                	mv	a0,a3
void iSLERTX(uint32_t access_address, uint8_t adv[], size_t len, uint8_t channel, uint8_t phy_mode) {
20000078:	8a2e                	mv	s4,a1
2000007a:	843a                	mv	s0,a4
2000007c:	8932                	mv	s2,a2
	DevSetChannel(channel);
2000007e:	e0001097          	auipc	ra,0xe0001
20000082:	c38080e7          	jalr	-968(ra) # cb6 <DevSetChannel>

	// Uncomment to disable whitening to debug RF.
	//BB->CTRL_CFG |= (1<<6);
	DevSetMode(DEVSETMODE_TX);
20000086:	25800513          	li	a0,600
2000008a:	e0001097          	auipc	ra,0xe0001
2000008e:	b60080e7          	jalr	-1184(ra) # bea <DevSetMode>

	BB->ACCESSADDRESS1 = access_address; // access address
	BB->CRCINIT1 = 0x555555; // crc init
20000092:	005557b7          	lui	a5,0x555
	BB->ACCESSADDRESS1 = access_address; // access address
20000096:	0134a623          	sw	s3,12(s1)
	BB->CRCINIT1 = 0x555555; // crc init
2000009a:	55578793          	addi	a5,a5,1365 # 555555 <firmware.c.e6ea786d+0x55176e>
2000009e:	c0dc                	sw	a5,4(s1)
#ifdef CH570_CH572
	BB->ACCESSADDRESS2 = access_address;
200000a0:	0734a023          	sw	s3,96(s1)
	BB->CRCINIT2 = 0x555555;
200000a4:	ccbc                	sw	a5,88(s1)
	BB->CRCPOLY1 = (BB->CRCPOLY1 & 0xff000000) | 0x80032d; // crc poly
200000a6:	449c                	lw	a5,8(s1)
200000a8:	ff0006b7          	lui	a3,0xff000
200000ac:	00800737          	lui	a4,0x800
200000b0:	32d70713          	addi	a4,a4,813 # 80032d <firmware.c.e6ea786d+0x7fc546>
200000b4:	8ff5                	and	a5,a5,a3
200000b6:	8fd9                	or	a5,a5,a4
200000b8:	c49c                	sw	a5,8(s1)
	BB->CRCPOLY2 = (BB->CRCPOLY2 & 0xff000000) | 0x80032d;
200000ba:	4cfc                	lw	a5,92(s1)
200000bc:	8ff5                	and	a5,a5,a3
200000be:	8fd9                	or	a5,a5,a4
200000c0:	ccfc                	sw	a5,92(s1)
#endif

#if defined(CH571_CH573)
	DMA->TXBUF = (uint32_t)adv;
#else
	LL->TXBUF = (uint32_t)adv;
200000c2:	4000c7b7          	lui	a5,0x4000c
200000c6:	20078793          	addi	a5,a5,512 # 4000c200 <_eusrstack+0x20009200>
200000ca:	0747ac23          	sw	s4,120(a5)
#endif

	// Wait for tuning bit to clear.
	for( int timeout = 3000; !(RF->RF26 & 0x1000000) && timeout >= 0; timeout-- );
200000ce:	6785                	lui	a5,0x1
200000d0:	bba78793          	addi	a5,a5,-1094 # bba <ssd1306_drawPixel+0xc>
200000d4:	4000d737          	lui	a4,0x4000d
200000d8:	5734                	lw	a3,104(a4)
200000da:	00769613          	slli	a2,a3,0x7
200000de:	00064463          	bltz	a2,200000e6 <iSLERTX+0x92>
200000e2:	17fd                	addi	a5,a5,-1
200000e4:	fbf5                	bnez	a5,200000d8 <iSLERTX+0x84>
		BB->CTRL_CFG = (BB->CTRL_CFG & 0xffff3fff) | ((phy_mode == PHY_S2) ? 0x4000 : 0);
	}
#elif defined(CH571_CH573)
	BB->CTRL_CFG = CTRL_CFG_PHY_1M; // no 2M PHY on ch571/3
#else
	BB->CTRL_CFG = (phy_mode == PHY_2M) ? CTRL_CFG_PHY_2M:
200000e6:	4000c7b7          	lui	a5,0x4000c
200000ea:	4709                	li	a4,2
200000ec:	10078793          	addi	a5,a5,256 # 4000c100 <_eusrstack+0x20009100>
200000f0:	08e41863          	bne	s0,a4,20000180 <iSLERTX+0x12c>
200000f4:	4398                	lw	a4,0(a5)
200000f6:	cff77713          	andi	a4,a4,-769
200000fa:	4000c7b7          	lui	a5,0x4000c
200000fe:	10078793          	addi	a5,a5,256 # 4000c100 <_eusrstack+0x20009100>
20000102:	c398                	sw	a4,0(a5)
										  CTRL_CFG_PHY_1M; // default 1M for now
#endif

#if defined(CH570_CH572)
	BB->BB9 = (BB->BB9 & 0xf9ffffff) | ((phy_mode == PHY_2M) ? 0 : 0x2000000);
20000104:	53d8                	lw	a4,36(a5)
20000106:	1479                	addi	s0,s0,-2
20000108:	fa0006b7          	lui	a3,0xfa000
2000010c:	16fd                	addi	a3,a3,-1 # f9ffffff <_eusrstack+0xd9ffcfff>
2000010e:	00803433          	snez	s0,s0
20000112:	8f75                	and	a4,a4,a3
20000114:	0466                	slli	s0,s0,0x19
20000116:	8c59                	or	s0,s0,a4
20000118:	d3c0                	sw	s0,36(a5)
#if defined(CH571_CH573)
	BB->BB11 = (BB->BB11 & 0xfffffffc); // |2 for RX
#endif

	// This clears bit 17 (If set, seems to have no impact.)
	LL->LL4 &= 0xfffdffff;
2000011a:	4000c437          	lui	s0,0x4000c
2000011e:	20040413          	addi	s0,s0,512 # 4000c200 <_eusrstack+0x20009200>
20000122:	4818                	lw	a4,16(s0)
20000124:	7681                	lui	a3,0xfffe0
20000126:	16fd                	addi	a3,a3,-1 # fffdffff <_eusrstack+0xdffdcfff>
20000128:	8f75                	and	a4,a4,a3
2000012a:	c818                	sw	a4,16(s0)

#if !defined(CH571_CH573)
	LL->STATUS = LL_STATUS_TX;
2000012c:	00020737          	lui	a4,0x20
20000130:	c418                	sw	a4,8(s0)
#endif
	LL->TMR = (uint32_t)(len *512); // needs optimisation, per phy mode
20000132:	0926                	slli	s2,s2,0x9
20000134:	07242223          	sw	s2,100(s0)

	BB->CTRL_CFG |= CTRL_CFG_START_TX;
20000138:	4398                	lw	a4,0(a5)
2000013a:	010006b7          	lui	a3,0x1000
2000013e:	8f55                	or	a4,a4,a3
20000140:	c398                	sw	a4,0(a5)
	BB->CTRL_TX &= 0xfffffffc;
20000142:	5bd8                	lw	a4,52(a5)
20000144:	9b71                	andi	a4,a4,-4
20000146:	dbd8                	sw	a4,52(a5)

	LL->LL0 = 2; // Not sure what this does, but on RX it's 1
20000148:	4789                	li	a5,2
2000014a:	c01c                	sw	a5,0(s0)

	while(LL->TMR); // wait for tx buffer to empty
2000014c:	507c                	lw	a5,100(s0)
2000014e:	fffd                	bnez	a5,2000014c <iSLERTX+0xf8>
	DevSetMode(0);
20000150:	4501                	li	a0,0
20000152:	e0001097          	auipc	ra,0xe0001
20000156:	a98080e7          	jalr	-1384(ra) # bea <DevSetMode>
	if(LL->LL0 & 3) {
2000015a:	401c                	lw	a5,0(s0)
2000015c:	8b8d                	andi	a5,a5,3
2000015e:	cb89                	beqz	a5,20000170 <iSLERTX+0x11c>
		LL->CTRL_MOD &= CTRL_MOD_RFSTOP;
20000160:	483c                	lw	a5,80(s0)
20000162:	8ff7f793          	andi	a5,a5,-1793
20000166:	c83c                	sw	a5,80(s0)
		LL->LL0 |= 0x08;
20000168:	401c                	lw	a5,0(s0)
2000016a:	0087e793          	ori	a5,a5,8
2000016e:	c01c                	sw	a5,0(s0)
	}
}
20000170:	40f2                	lw	ra,28(sp)
20000172:	4462                	lw	s0,24(sp)
20000174:	44d2                	lw	s1,20(sp)
20000176:	4942                	lw	s2,16(sp)
20000178:	49b2                	lw	s3,12(sp)
2000017a:	4a22                	lw	s4,8(sp)
2000017c:	6105                	addi	sp,sp,32
2000017e:	8082                	ret
										  CTRL_CFG_PHY_1M; // default 1M for now
20000180:	4398                	lw	a4,0(a5)
20000182:	cff77713          	andi	a4,a4,-769
	BB->CTRL_CFG = (phy_mode == PHY_2M) ? CTRL_CFG_PHY_2M:
20000186:	10076713          	ori	a4,a4,256
2000018a:	bf85                	j	200000fa <iSLERTX+0xa6>

2000018c <iSLERRX>:

__HIGH_CODE
void iSLERRX(uint32_t access_address, uint8_t channel, uint8_t phy_mode) {
2000018c:	1141                	addi	sp,sp,-16
2000018e:	c226                	sw	s1,4(sp)
20000190:	84aa                	mv	s1,a0
	DevSetMode(0);
20000192:	4501                	li	a0,0
void iSLERRX(uint32_t access_address, uint8_t channel, uint8_t phy_mode) {
20000194:	c422                	sw	s0,8(sp)
20000196:	c04a                	sw	s2,0(sp)
20000198:	c606                	sw	ra,12(sp)
2000019a:	892e                	mv	s2,a1
2000019c:	8432                	mv	s0,a2
	DevSetMode(0);
2000019e:	e0001097          	auipc	ra,0xe0001
200001a2:	a4c080e7          	jalr	-1460(ra) # bea <DevSetMode>
	if(LL->LL0 & 3) {
200001a6:	4000c7b7          	lui	a5,0x4000c
200001aa:	20078793          	addi	a5,a5,512 # 4000c200 <_eusrstack+0x20009200>
200001ae:	4398                	lw	a4,0(a5)
200001b0:	8b0d                	andi	a4,a4,3
200001b2:	cb09                	beqz	a4,200001c4 <iSLERRX+0x38>
		LL->CTRL_MOD &= CTRL_MOD_RFSTOP;
200001b4:	4bb8                	lw	a4,80(a5)
200001b6:	8ff77713          	andi	a4,a4,-1793
200001ba:	cbb8                	sw	a4,80(a5)
		LL->LL0 |= 0x08;
200001bc:	4398                	lw	a4,0(a5)
200001be:	00876713          	ori	a4,a4,8
200001c2:	c398                	sw	a4,0(a5)
	}
	LL->TMR = 0;
200001c4:	4000c7b7          	lui	a5,0x4000c
200001c8:	20078793          	addi	a5,a5,512 # 4000c200 <_eusrstack+0x20009200>
200001cc:	0607a223          	sw	zero,100(a5)

	DevSetChannel(channel);
200001d0:	854a                	mv	a0,s2
200001d2:	e0001097          	auipc	ra,0xe0001
200001d6:	ae4080e7          	jalr	-1308(ra) # cb6 <DevSetChannel>
	DevSetMode(DEVSETMODE_RX);
200001da:	15800513          	li	a0,344
200001de:	e0001097          	auipc	ra,0xe0001
200001e2:	a0c080e7          	jalr	-1524(ra) # bea <DevSetMode>
		BB->CTRL_CFG = (BB->CTRL_CFG & 0xffff3fff) | ((phy_mode == PHY_S2) ? 0x4000 : 0);
	}
#elif defined(CH571_CH573)
	BB->CTRL_CFG = CTRL_CFG_PHY_1M; // no 2M PHY on ch571/3
#else
	BB->CTRL_CFG = (phy_mode == PHY_2M) ? CTRL_CFG_PHY_2M:
200001e6:	4000c7b7          	lui	a5,0x4000c
200001ea:	10078793          	addi	a5,a5,256 # 4000c100 <_eusrstack+0x20009100>
200001ee:	439c                	lw	a5,0(a5)
200001f0:	4709                	li	a4,2
200001f2:	cff7f793          	andi	a5,a5,-769
200001f6:	0ce41863          	bne	s0,a4,200002c6 <iSLERRX+0x13a>
200001fa:	4000c737          	lui	a4,0x4000c
200001fe:	10070713          	addi	a4,a4,256 # 4000c100 <_eusrstack+0x20009100>
20000202:	c31c                	sw	a5,0(a4)
										  CTRL_CFG_PHY_1M; // default 1M for now
#endif

#ifdef CH570_CH572
	BB->BB9 = (BB->BB9 & 0xf9ffffff) | ((phy_mode == PHY_2M) ? 0 : 0x2000000);
20000204:	5354                	lw	a3,36(a4)
20000206:	ffe40793          	addi	a5,s0,-2
2000020a:	fa000637          	lui	a2,0xfa000
2000020e:	00f037b3          	snez	a5,a5
20000212:	167d                	addi	a2,a2,-1 # f9ffffff <_eusrstack+0xd9ffcfff>
20000214:	07e6                	slli	a5,a5,0x19
20000216:	8ef1                	and	a3,a3,a2
20000218:	8fd5                	or	a5,a5,a3
2000021a:	d35c                	sw	a5,36(a4)
	RF->RF20 = (RF->RF20 & 0xffffffe0) | ((phy_mode == PHY_2M) ? (tuneFilter2M & 0x1f) : (tuneFilter & 0x1f));
2000021c:	4000d7b7          	lui	a5,0x4000d
20000220:	4bbc                	lw	a5,80(a5)
20000222:	fe07f713          	andi	a4,a5,-32
20000226:	4789                	li	a5,2
20000228:	0af41263          	bne	s0,a5,200002cc <iSLERRX+0x140>
2000022c:	6a01a783          	lw	a5,1696(gp) # 2000144c <tuneFilter2M>
20000230:	8bfd                	andi	a5,a5,31
20000232:	8fd9                	or	a5,a5,a4
20000234:	4000d737          	lui	a4,0x4000d
20000238:	cb3c                	sw	a5,80(a4)
	BB->BB5 = (BB->BB5 & 0xffffffc0) | ((phy_mode == PHY_2M) ? 0xd : 0xb);
2000023a:	4000c7b7          	lui	a5,0x4000c
2000023e:	10078793          	addi	a5,a5,256 # 4000c100 <_eusrstack+0x20009100>
20000242:	4bd8                	lw	a4,20(a5)
20000244:	4609                	li	a2,2
20000246:	46ad                	li	a3,11
20000248:	fc077713          	andi	a4,a4,-64
2000024c:	00c41363          	bne	s0,a2,20000252 <iSLERRX+0xc6>
20000250:	46b5                	li	a3,13
20000252:	8f55                	or	a4,a4,a3
20000254:	cbd8                	sw	a4,20(a5)
	BB->BB7 = (BB->BB7 & 0xff00fc00) | ((phy_mode == PHY_2M) ? 0x7f00a0 : 0x79009c);
20000256:	4fd8                	lw	a4,28(a5)
20000258:	ff0107b7          	lui	a5,0xff010
2000025c:	c0078793          	addi	a5,a5,-1024 # ff00fc00 <_eusrstack+0xdf00cc00>
20000260:	8f7d                	and	a4,a4,a5
20000262:	4689                	li	a3,2
20000264:	007907b7          	lui	a5,0x790
20000268:	09c78793          	addi	a5,a5,156 # 79009c <firmware.c.e6ea786d+0x78c2b5>
2000026c:	00d41663          	bne	s0,a3,20000278 <iSLERRX+0xec>
20000270:	007f07b7          	lui	a5,0x7f0
20000274:	0a078793          	addi	a5,a5,160 # 7f00a0 <firmware.c.e6ea786d+0x7ec2b9>
20000278:	8f5d                	or	a4,a4,a5
2000027a:	4000c7b7          	lui	a5,0x4000c
2000027e:	10078793          	addi	a5,a5,256 # 4000c100 <_eusrstack+0x20009100>
20000282:	cfd8                	sw	a4,28(a5)
	BB->BB6 = (BB->BB6 & 0xfffffc00) | ((phy_mode == PHY_2M) ? 0x13a : 0x132);
	BB->BB4 = (BB->BB4 & 0x00ffffff) | ((phy_mode == PHY_2M) ? 0x78000000 : 0x7f000000);
#endif

	BB->ACCESSADDRESS1 = access_address; // access address
	BB->CRCINIT1 = 0x555555; // crc init
20000284:	00555737          	lui	a4,0x555
	BB->ACCESSADDRESS1 = access_address; // access address
20000288:	c7c4                	sw	s1,12(a5)
	BB->CRCINIT1 = 0x555555; // crc init
2000028a:	55570713          	addi	a4,a4,1365 # 555555 <firmware.c.e6ea786d+0x55176e>
2000028e:	c3d8                	sw	a4,4(a5)
#ifdef CH570_CH572
	BB->ACCESSADDRESS2 = access_address;
20000290:	d3a4                	sw	s1,96(a5)
	BB->CRCINIT2 = 0x555555;
20000292:	cfb8                	sw	a4,88(a5)
	BB->CRCPOLY1 = (BB->CRCPOLY1 & 0xff000000) | 0x80032d; // crc poly
20000294:	4798                	lw	a4,8(a5)
20000296:	ff000637          	lui	a2,0xff000
2000029a:	008006b7          	lui	a3,0x800
2000029e:	32d68693          	addi	a3,a3,813 # 80032d <firmware.c.e6ea786d+0x7fc546>
200002a2:	8f71                	and	a4,a4,a2
200002a4:	8f55                	or	a4,a4,a3
200002a6:	c798                	sw	a4,8(a5)
	BB->CRCPOLY2 = (BB->CRCPOLY2 & 0xff000000) | 0x80032d;
200002a8:	4ff8                	lw	a4,92(a5)

	LL->LL0 = 1; // Not sure what this does, but on TX it's 2
#ifndef ISLER_CALLBACK
	rx_ready = 0;
#endif
}
200002aa:	40b2                	lw	ra,12(sp)
200002ac:	4422                	lw	s0,8(sp)
	BB->CRCPOLY2 = (BB->CRCPOLY2 & 0xff000000) | 0x80032d;
200002ae:	8f71                	and	a4,a4,a2
200002b0:	8f55                	or	a4,a4,a3
200002b2:	cff8                	sw	a4,92(a5)
	LL->LL0 = 1; // Not sure what this does, but on TX it's 2
200002b4:	4000c7b7          	lui	a5,0x4000c
200002b8:	4705                	li	a4,1
200002ba:	20e7a023          	sw	a4,512(a5) # 4000c200 <_eusrstack+0x20009200>
}
200002be:	4492                	lw	s1,4(sp)
200002c0:	4902                	lw	s2,0(sp)
200002c2:	0141                	addi	sp,sp,16
200002c4:	8082                	ret
	BB->CTRL_CFG = (phy_mode == PHY_2M) ? CTRL_CFG_PHY_2M:
200002c6:	1007e793          	ori	a5,a5,256
200002ca:	bf05                	j	200001fa <iSLERRX+0x6e>
	RF->RF20 = (RF->RF20 & 0xffffffe0) | ((phy_mode == PHY_2M) ? (tuneFilter2M & 0x1f) : (tuneFilter & 0x1f));
200002cc:	69c1a783          	lw	a5,1692(gp) # 20001448 <tuneFilter>
200002d0:	b785                	j	20000230 <iSLERRX+0xa4>

200002d2 <TMR1_IRQHandler>:
{
200002d2:	7139                	addi	sp,sp,-64
200002d4:	d62a                	sw	a0,44(sp)
200002d6:	ce3a                	sw	a4,28(sp)
200002d8:	cc3e                	sw	a5,24(sp)
200002da:	de06                	sw	ra,60(sp)
200002dc:	dc16                	sw	t0,56(sp)
200002de:	da1a                	sw	t1,52(sp)
200002e0:	d81e                	sw	t2,48(sp)
200002e2:	d42e                	sw	a1,40(sp)
200002e4:	d232                	sw	a2,36(sp)
200002e6:	d036                	sw	a3,32(sp)
200002e8:	ca42                	sw	a6,20(sp)
200002ea:	c846                	sw	a7,16(sp)
200002ec:	c672                	sw	t3,12(sp)
200002ee:	c476                	sw	t4,8(sp)
200002f0:	c27a                	sw	t5,4(sp)
200002f2:	c07e                	sw	t6,0(sp)
	R8_TMR_INT_FLAG = 2;
200002f4:	400027b7          	lui	a5,0x40002
200002f8:	4709                	li	a4,2
200002fa:	40e78323          	sb	a4,1030(a5) # 40002406 <_eusrstack+0x1ffff406>
	lastfifo = R32_TMR_FIFO;
200002fe:	4107a703          	lw	a4,1040(a5)
	funPinMode( PA2, GPIO_ModeOut_PP_20mA );
20000302:	4511                	li	a0,4
	lastfifo = R32_TMR_FIFO;
20000304:	68e1ac23          	sw	a4,1688(gp) # 20001444 <lastfifo>
	funPinMode( PA2, GPIO_ModeOut_PP_20mA );
20000308:	e0001097          	auipc	ra,0xe0001
2000030c:	df0080e7          	jalr	-528(ra) # 10f8 <funPinMode.constprop.0>
}
20000310:	50f2                	lw	ra,60(sp)
20000312:	52e2                	lw	t0,56(sp)
20000314:	5352                	lw	t1,52(sp)
20000316:	53c2                	lw	t2,48(sp)
20000318:	5532                	lw	a0,44(sp)
2000031a:	55a2                	lw	a1,40(sp)
2000031c:	5612                	lw	a2,36(sp)
2000031e:	5682                	lw	a3,32(sp)
20000320:	4772                	lw	a4,28(sp)
20000322:	47e2                	lw	a5,24(sp)
20000324:	4852                	lw	a6,20(sp)
20000326:	48c2                	lw	a7,16(sp)
20000328:	4e32                	lw	t3,12(sp)
2000032a:	4ea2                	lw	t4,8(sp)
2000032c:	4f12                	lw	t5,4(sp)
2000032e:	4f82                	lw	t6,0(sp)
20000330:	6121                	addi	sp,sp,64
20000332:	30200073          	mret

20000336 <ConfigI2C>:
	#define DSDA_DONE_INPUT
#endif

I2CCODE void I2CFNCOLLAPSE(I2CPREFIX, ConfigI2C)()
{
	DSDA_IHIGH
20000336:	400017b7          	lui	a5,0x40001
2000033a:	0b878793          	addi	a5,a5,184 # 400010b8 <_eusrstack+0x1fffe0b8>
2000033e:	40000713          	li	a4,1024
20000342:	c398                	sw	a4,0(a5)
	DSCL_IHIGH
20000344:	6705                	lui	a4,0x1
20000346:	80070713          	addi	a4,a4,-2048 # 800 <_einit+0x770>
2000034a:	c398                	sw	a4,0(a5)
}
2000034c:	8082                	ret

2000034e <SendStart>:

I2CCODE void I2CFNCOLLAPSE(I2CPREFIX, SendStart)()
{
	DSDA_IHIGH
2000034e:	400017b7          	lui	a5,0x40001
20000352:	0b878793          	addi	a5,a5,184 # 400010b8 <_eusrstack+0x1fffe0b8>
20000356:	40000693          	li	a3,1024
2000035a:	c394                	sw	a3,0(a5)
	DELAY1
2000035c:	0001                	nop
2000035e:	0001                	nop
20000360:	0001                	nop
20000362:	0001                	nop
20000364:	0001                	nop
20000366:	0001                	nop
20000368:	0001                	nop
2000036a:	0001                	nop
2000036c:	0001                	nop
	DSCL_IHIGH
2000036e:	6705                	lui	a4,0x1
20000370:	80070713          	addi	a4,a4,-2048 # 800 <_einit+0x770>
20000374:	c398                	sw	a4,0(a5)
	DELAY1
20000376:	0001                	nop
20000378:	0001                	nop
2000037a:	0001                	nop
2000037c:	0001                	nop
2000037e:	0001                	nop
20000380:	0001                	nop
20000382:	0001                	nop
20000384:	0001                	nop
20000386:	0001                	nop
	DSDA_OUTPUT
20000388:	400017b7          	lui	a5,0x40001
2000038c:	0ac78793          	addi	a5,a5,172 # 400010ac <_eusrstack+0x1fffe0ac>
20000390:	c394                	sw	a3,0(a5)
	DELAY1
20000392:	0001                	nop
20000394:	0001                	nop
20000396:	0001                	nop
20000398:	0001                	nop
2000039a:	0001                	nop
2000039c:	0001                	nop
2000039e:	0001                	nop
200003a0:	0001                	nop
200003a2:	0001                	nop
	DSCL_OUTPUT
200003a4:	c398                	sw	a4,0(a5)
	DELAY1
200003a6:	0001                	nop
200003a8:	0001                	nop
200003aa:	0001                	nop
200003ac:	0001                	nop
200003ae:	0001                	nop
200003b0:	0001                	nop
200003b2:	0001                	nop
200003b4:	0001                	nop
200003b6:	0001                	nop
}
200003b8:	8082                	ret

200003ba <SendStop>:

I2CCODE void I2CFNCOLLAPSE(I2CPREFIX, SendStop)()
{
	DELAY1
200003ba:	0001                	nop
200003bc:	0001                	nop
200003be:	0001                	nop
200003c0:	0001                	nop
200003c2:	0001                	nop
200003c4:	0001                	nop
200003c6:	0001                	nop
200003c8:	0001                	nop
200003ca:	0001                	nop
	DSDA_OUTPUT
200003cc:	400017b7          	lui	a5,0x40001
200003d0:	0ac78793          	addi	a5,a5,172 # 400010ac <_eusrstack+0x1fffe0ac>
200003d4:	40000613          	li	a2,1024
200003d8:	c390                	sw	a2,0(a5)
	DELAY1
200003da:	0001                	nop
200003dc:	0001                	nop
200003de:	0001                	nop
200003e0:	0001                	nop
200003e2:	0001                	nop
200003e4:	0001                	nop
200003e6:	0001                	nop
200003e8:	0001                	nop
200003ea:	0001                	nop
	DSCL_IHIGH
200003ec:	400016b7          	lui	a3,0x40001
200003f0:	6705                	lui	a4,0x1
200003f2:	0b868693          	addi	a3,a3,184 # 400010b8 <_eusrstack+0x1fffe0b8>
200003f6:	80070713          	addi	a4,a4,-2048 # 800 <_einit+0x770>
200003fa:	c298                	sw	a4,0(a3)
	DELAY1
200003fc:	0001                	nop
200003fe:	0001                	nop
20000400:	0001                	nop
20000402:	0001                	nop
20000404:	0001                	nop
20000406:	0001                	nop
20000408:	0001                	nop
2000040a:	0001                	nop
2000040c:	0001                	nop
	DSDA_IHIGH
2000040e:	c290                	sw	a2,0(a3)
	DELAY1
20000410:	0001                	nop
20000412:	0001                	nop
20000414:	0001                	nop
20000416:	0001                	nop
20000418:	0001                	nop
2000041a:	0001                	nop
2000041c:	0001                	nop
2000041e:	0001                	nop
20000420:	0001                	nop
	DSCL_OUTPUT
20000422:	c398                	sw	a4,0(a5)
	DELAY1
20000424:	0001                	nop
20000426:	0001                	nop
20000428:	0001                	nop
2000042a:	0001                	nop
2000042c:	0001                	nop
2000042e:	0001                	nop
20000430:	0001                	nop
20000432:	0001                	nop
20000434:	0001                	nop
	DSDA_OUTPUT
20000436:	c390                	sw	a2,0(a5)
}
20000438:	8082                	ret

2000043a <SendByte>:
        {
            DSDA_IHIGH
        }
        else
        {
            DSDA_OUTPUT
2000043a:	400016b7          	lui	a3,0x40001
            DSDA_IHIGH
2000043e:	40001737          	lui	a4,0x40001
        }
        data <<= 1;
        DELAY2
        DSCL_IHIGH
20000442:	6785                	lui	a5,0x1
{
20000444:	4621                	li	a2,8
20000446:	40000593          	li	a1,1024
            DSDA_OUTPUT
2000044a:	0ac68693          	addi	a3,a3,172 # 400010ac <_eusrstack+0x1fffe0ac>
            DSDA_IHIGH
2000044e:	0b870713          	addi	a4,a4,184 # 400010b8 <_eusrstack+0x1fffe0b8>
        DSCL_IHIGH
20000452:	80078793          	addi	a5,a5,-2048 # 800 <_einit+0x770>
        if (data & 0x80)
20000456:	01851813          	slli	a6,a0,0x18
2000045a:	41885813          	srai	a6,a6,0x18
2000045e:	0a085563          	bgez	a6,20000508 <SendByte+0xce>
            DSDA_IHIGH
20000462:	c30c                	sw	a1,0(a4)
        data <<= 1;
20000464:	0506                	slli	a0,a0,0x1
20000466:	0ff57513          	zext.b	a0,a0
        DELAY2
2000046a:	0001                	nop
2000046c:	0001                	nop
2000046e:	0001                	nop
20000470:	0001                	nop
20000472:	0001                	nop
20000474:	0001                	nop
20000476:	0001                	nop
20000478:	0001                	nop
2000047a:	0001                	nop
        DSCL_IHIGH
2000047c:	c31c                	sw	a5,0(a4)
        DELAY1
2000047e:	0001                	nop
20000480:	0001                	nop
20000482:	0001                	nop
20000484:	0001                	nop
20000486:	0001                	nop
20000488:	0001                	nop
2000048a:	0001                	nop
2000048c:	0001                	nop
2000048e:	0001                	nop
        DSCL_OUTPUT
20000490:	c29c                	sw	a5,0(a3)
    for (i = 0; i < 8; i++)
20000492:	167d                	addi	a2,a2,-1 # feffffff <_eusrstack+0xdeffcfff>
20000494:	f269                	bnez	a2,20000456 <SendByte+0x1c>
    }

    // Immediately after sending last bit, open up DDDR for control.
    DELAY1
20000496:	0001                	nop
20000498:	0001                	nop
2000049a:	0001                	nop
2000049c:	0001                	nop
2000049e:	0001                	nop
200004a0:	0001                	nop
200004a2:	0001                	nop
200004a4:	0001                	nop
200004a6:	0001                	nop
    DSDA_INPUT
200004a8:	40000613          	li	a2,1024
200004ac:	c310                	sw	a2,0(a4)
    DELAY1
200004ae:	0001                	nop
200004b0:	0001                	nop
200004b2:	0001                	nop
200004b4:	0001                	nop
200004b6:	0001                	nop
200004b8:	0001                	nop
200004ba:	0001                	nop
200004bc:	0001                	nop
200004be:	0001                	nop
    DSCL_IHIGH
200004c0:	c31c                	sw	a5,0(a4)
    DELAY1
200004c2:	0001                	nop
200004c4:	0001                	nop
200004c6:	0001                	nop
200004c8:	0001                	nop
200004ca:	0001                	nop
200004cc:	0001                	nop
200004ce:	0001                	nop
200004d0:	0001                	nop
200004d2:	0001                	nop
    i = READ_DSDA;
200004d4:	40001737          	lui	a4,0x40001
200004d8:	0a472503          	lw	a0,164(a4) # 400010a4 <_eusrstack+0x1fffe0a4>
    DELAY1
200004dc:	0001                	nop
200004de:	0001                	nop
200004e0:	0001                	nop
200004e2:	0001                	nop
200004e4:	0001                	nop
200004e6:	0001                	nop
200004e8:	0001                	nop
200004ea:	0001                	nop
200004ec:	0001                	nop
	DSDA_DONE_INPUT
    DSCL_OUTPUT
200004ee:	c29c                	sw	a5,0(a3)
    DELAY1
200004f0:	0001                	nop
200004f2:	0001                	nop
200004f4:	0001                	nop
200004f6:	0001                	nop
200004f8:	0001                	nop
200004fa:	0001                	nop
200004fc:	0001                	nop
200004fe:	0001                	nop
20000500:	0001                	nop
    return !!i;
20000502:	8129                	srli	a0,a0,0xa
}
20000504:	8905                	andi	a0,a0,1
20000506:	8082                	ret
            DSDA_OUTPUT
20000508:	c28c                	sw	a1,0(a3)
2000050a:	bfa9                	j	20000464 <SendByte+0x2a>

2000050c <SendByteNoAck>:
        {
            DSDA_IHIGH
        }
        else
        {
            DSDA_OUTPUT
2000050c:	400017b7          	lui	a5,0x40001
            DSDA_IHIGH
20000510:	400016b7          	lui	a3,0x40001
        }
        data <<= 1;
        DELAY2
        DSCL_IHIGH
20000514:	6705                	lui	a4,0x1
{
20000516:	4621                	li	a2,8
20000518:	40000593          	li	a1,1024
            DSDA_OUTPUT
2000051c:	0ac78793          	addi	a5,a5,172 # 400010ac <_eusrstack+0x1fffe0ac>
            DSDA_IHIGH
20000520:	0b868693          	addi	a3,a3,184 # 400010b8 <_eusrstack+0x1fffe0b8>
        DSCL_IHIGH
20000524:	80070713          	addi	a4,a4,-2048 # 800 <_einit+0x770>
        if (data & 0x80)
20000528:	01851813          	slli	a6,a0,0x18
2000052c:	41885813          	srai	a6,a6,0x18
20000530:	0a085363          	bgez	a6,200005d6 <SendByteNoAck+0xca>
            DSDA_IHIGH
20000534:	c28c                	sw	a1,0(a3)
        data <<= 1;
20000536:	0506                	slli	a0,a0,0x1
20000538:	0ff57513          	zext.b	a0,a0
        DELAY2
2000053c:	0001                	nop
2000053e:	0001                	nop
20000540:	0001                	nop
20000542:	0001                	nop
20000544:	0001                	nop
20000546:	0001                	nop
20000548:	0001                	nop
2000054a:	0001                	nop
2000054c:	0001                	nop
        DSCL_IHIGH
2000054e:	c298                	sw	a4,0(a3)
        DELAY1
20000550:	0001                	nop
20000552:	0001                	nop
20000554:	0001                	nop
20000556:	0001                	nop
20000558:	0001                	nop
2000055a:	0001                	nop
2000055c:	0001                	nop
2000055e:	0001                	nop
20000560:	0001                	nop
        DSCL_OUTPUT
20000562:	c398                	sw	a4,0(a5)
    for (i = 0; i < 8; i++)
20000564:	167d                	addi	a2,a2,-1
20000566:	f269                	bnez	a2,20000528 <SendByteNoAck+0x1c>
    }

    // Immediately after sending last bit, open up DDDR for control.
    DELAY1
20000568:	0001                	nop
2000056a:	0001                	nop
2000056c:	0001                	nop
2000056e:	0001                	nop
20000570:	0001                	nop
20000572:	0001                	nop
20000574:	0001                	nop
20000576:	0001                	nop
20000578:	0001                	nop
    DSDA_OUTPUT
2000057a:	40000613          	li	a2,1024
2000057e:	c390                	sw	a2,0(a5)
    DELAY1
20000580:	0001                	nop
20000582:	0001                	nop
20000584:	0001                	nop
20000586:	0001                	nop
20000588:	0001                	nop
2000058a:	0001                	nop
2000058c:	0001                	nop
2000058e:	0001                	nop
20000590:	0001                	nop
    DSCL_IHIGH
20000592:	c298                	sw	a4,0(a3)
    DELAY1
20000594:	0001                	nop
20000596:	0001                	nop
20000598:	0001                	nop
2000059a:	0001                	nop
2000059c:	0001                	nop
2000059e:	0001                	nop
200005a0:	0001                	nop
200005a2:	0001                	nop
200005a4:	0001                	nop
    i = READ_DSDA;
200005a6:	400016b7          	lui	a3,0x40001
200005aa:	0a46a683          	lw	a3,164(a3) # 400010a4 <_eusrstack+0x1fffe0a4>
    DELAY1
200005ae:	0001                	nop
200005b0:	0001                	nop
200005b2:	0001                	nop
200005b4:	0001                	nop
200005b6:	0001                	nop
200005b8:	0001                	nop
200005ba:	0001                	nop
200005bc:	0001                	nop
200005be:	0001                	nop
    DSCL_OUTPUT
200005c0:	c398                	sw	a4,0(a5)
    DELAY1
200005c2:	0001                	nop
200005c4:	0001                	nop
200005c6:	0001                	nop
200005c8:	0001                	nop
200005ca:	0001                	nop
200005cc:	0001                	nop
200005ce:	0001                	nop
200005d0:	0001                	nop
200005d2:	0001                	nop
}
200005d4:	8082                	ret
            DSDA_OUTPUT
200005d6:	c38c                	sw	a1,0(a5)
200005d8:	bfb9                	j	20000536 <SendByteNoAck+0x2a>

200005da <GetByte>:
I2CCODE unsigned char I2CFNCOLLAPSE(I2CPREFIX, GetByte)(uint8_t send_nak)
{
    unsigned char i;
    unsigned char ret = 0;

    DSDA_INPUT
200005da:	400015b7          	lui	a1,0x40001
200005de:	0b858593          	addi	a1,a1,184 # 400010b8 <_eusrstack+0x1fffe0b8>
200005e2:	40000793          	li	a5,1024

    for (i = 0; i < 8; i++)
    {
        DELAY1
        DELAY1
        DSCL_IHIGH
200005e6:	6605                	lui	a2,0x1
        DELAY1
        ret <<= 1;
        if (READ_DSDA)
200005e8:	400018b7          	lui	a7,0x40001
            ret |= 1;
        DSCL_OUTPUT
200005ec:	400016b7          	lui	a3,0x40001
{
200005f0:	882a                	mv	a6,a0
    DSDA_INPUT
200005f2:	c19c                	sw	a5,0(a1)
200005f4:	4721                	li	a4,8
    unsigned char ret = 0;
200005f6:	4501                	li	a0,0
        DSCL_IHIGH
200005f8:	80060613          	addi	a2,a2,-2048 # 800 <_einit+0x770>
        if (READ_DSDA)
200005fc:	0a488893          	addi	a7,a7,164 # 400010a4 <_eusrstack+0x1fffe0a4>
        DSCL_OUTPUT
20000600:	0ac68693          	addi	a3,a3,172 # 400010ac <_eusrstack+0x1fffe0ac>
        DELAY1
20000604:	0001                	nop
20000606:	0001                	nop
20000608:	0001                	nop
2000060a:	0001                	nop
2000060c:	0001                	nop
2000060e:	0001                	nop
20000610:	0001                	nop
20000612:	0001                	nop
20000614:	0001                	nop
        DELAY1
20000616:	0001                	nop
20000618:	0001                	nop
2000061a:	0001                	nop
2000061c:	0001                	nop
2000061e:	0001                	nop
20000620:	0001                	nop
20000622:	0001                	nop
20000624:	0001                	nop
20000626:	0001                	nop
        DSCL_IHIGH
20000628:	c190                	sw	a2,0(a1)
        DELAY1
2000062a:	0001                	nop
2000062c:	0001                	nop
2000062e:	0001                	nop
20000630:	0001                	nop
20000632:	0001                	nop
20000634:	0001                	nop
20000636:	0001                	nop
20000638:	0001                	nop
2000063a:	0001                	nop
        ret <<= 1;
2000063c:	00151793          	slli	a5,a0,0x1
20000640:	0ff7f513          	zext.b	a0,a5
        if (READ_DSDA)
20000644:	0008a783          	lw	a5,0(a7)
20000648:	4007f793          	andi	a5,a5,1024
2000064c:	c399                	beqz	a5,20000652 <GetByte+0x78>
            ret |= 1;
2000064e:	00156513          	ori	a0,a0,1
    for (i = 0; i < 8; i++)
20000652:	177d                	addi	a4,a4,-1
        DSCL_OUTPUT
20000654:	c290                	sw	a2,0(a3)
    for (i = 0; i < 8; i++)
20000656:	0ff77713          	zext.b	a4,a4
2000065a:	f74d                	bnez	a4,20000604 <GetByte+0x2a>
    }

	DSDA_DONE_INPUT

    // Send ack.
    if (send_nak)
2000065c:	40000793          	li	a5,1024
20000660:	04080f63          	beqz	a6,200006be <GetByte+0xe4>
    {
		DSDA_IHIGH
20000664:	40001737          	lui	a4,0x40001
20000668:	0af72c23          	sw	a5,184(a4) # 400010b8 <_eusrstack+0x1fffe0b8>
    else
    {
        DSDA_OUTPUT
    }

    DELAY1
2000066c:	0001                	nop
2000066e:	0001                	nop
20000670:	0001                	nop
20000672:	0001                	nop
20000674:	0001                	nop
20000676:	0001                	nop
20000678:	0001                	nop
2000067a:	0001                	nop
2000067c:	0001                	nop
    DSCL_IHIGH
2000067e:	6705                	lui	a4,0x1
20000680:	400017b7          	lui	a5,0x40001
20000684:	80070713          	addi	a4,a4,-2048 # 800 <_einit+0x770>
20000688:	0ae7ac23          	sw	a4,184(a5) # 400010b8 <_eusrstack+0x1fffe0b8>
    DELAY2
2000068c:	0001                	nop
2000068e:	0001                	nop
20000690:	0001                	nop
20000692:	0001                	nop
20000694:	0001                	nop
20000696:	0001                	nop
20000698:	0001                	nop
2000069a:	0001                	nop
2000069c:	0001                	nop
    DSCL_OUTPUT
2000069e:	0ac78793          	addi	a5,a5,172
200006a2:	c398                	sw	a4,0(a5)
    DELAY1
200006a4:	0001                	nop
200006a6:	0001                	nop
200006a8:	0001                	nop
200006aa:	0001                	nop
200006ac:	0001                	nop
200006ae:	0001                	nop
200006b0:	0001                	nop
200006b2:	0001                	nop
200006b4:	0001                	nop
        DSDA_OUTPUT
200006b6:	40000713          	li	a4,1024
200006ba:	c398                	sw	a4,0(a5)
//    DSDA_IHIGH

    return ret;
}
200006bc:	8082                	ret
        DSDA_OUTPUT
200006be:	c29c                	sw	a5,0(a3)
200006c0:	b775                	j	2000066c <GetByte+0x92>

200006c2 <ProcessLSM6DS3>:

}

void ProcessLSM6DS3() __HIGH_CODE;
void ProcessLSM6DS3()
{
200006c2:	7139                	addi	sp,sp,-64
200006c4:	de06                	sw	ra,60(sp)
200006c6:	dc22                	sw	s0,56(sp)
200006c8:	da26                	sw	s1,52(sp)
200006ca:	d84a                	sw	s2,48(sp)
200006cc:	d64e                	sw	s3,44(sp)
200006ce:	d452                	sw	s4,40(sp)
200006d0:	d256                	sw	s5,36(sp)
200006d2:	d05a                	sw	s6,32(sp)
200006d4:	ce5e                	sw	s7,28(sp)
	SendStart();
200006d6:	39a5                	jal	2000034e <SendStart>
	SendByteNoAck( LSM6DS3_ADDRESS<<1 );
200006d8:	0d400513          	li	a0,212
200006dc:	3d05                	jal	2000050c <SendByteNoAck>
	SendByteNoAck( 0x3a );
200006de:	03a00513          	li	a0,58
200006e2:	352d                	jal	2000050c <SendByteNoAck>
	SendStart();
200006e4:	31ad                	jal	2000034e <SendStart>
	SendByteNoAck( (LSM6DS3_ADDRESS<<1)|1 );
200006e6:	0d500513          	li	a0,213
200006ea:	350d                	jal	2000050c <SendByteNoAck>

	uint32_t sw = 0;
	sw = GetByte( 0 );
200006ec:	4501                	li	a0,0
200006ee:	35f5                	jal	200005da <GetByte>
200006f0:	84aa                	mv	s1,a0
	sw |= GetByte( 0 ) << 8ULL;
200006f2:	4501                	li	a0,0
200006f4:	35dd                	jal	200005da <GetByte>
200006f6:	842a                	mv	s0,a0
	sw |= GetByte( 1 ) << 16ULL;
200006f8:	4505                	li	a0,1
200006fa:	35c5                	jal	200005da <GetByte>
200006fc:	0542                	slli	a0,a0,0x10
	sw |= GetByte( 0 ) << 8ULL;
200006fe:	0422                	slli	s0,s0,0x8
	sw |= GetByte( 1 ) << 16ULL;
20000700:	8c49                	or	s0,s0,a0
20000702:	8c45                	or	s0,s0,s1

	SendStop();
20000704:	395d                	jal	200003ba <SendStop>

	if( sw & 0x4000 )
20000706:	01141793          	slli	a5,s0,0x11
	{
		printf( "Full SW: %06x\n", (int)sw );
2000070a:	85a2                	mv	a1,s0
	if( sw & 0x4000 )
2000070c:	0407d463          	bgez	a5,20000754 <ProcessLSM6DS3+0x92>
		printf( "Full SW: %06x\n", (int)sw );
20000710:	650d                	lui	a0,0x3
20000712:	ca050513          	addi	a0,a0,-864 # 2ca0 <__clzsi2+0x134>
20000716:	e0001097          	auipc	ra,0xe0001
2000071a:	c9a080e7          	jalr	-870(ra) # 13b0 <printf>
		// Need to reset fifo.

		SetupRegisterMap( LSM6DS3_ADDRESS, 
			(const uint8_t[]){ 0x0a, 0x28, 0x0a, 0x2e },
2000071e:	2e0a37b7          	lui	a5,0x2e0a3
		SetupRegisterMap( LSM6DS3_ADDRESS, 
20000722:	668d                	lui	a3,0x3
			(const uint8_t[]){ 0x0a, 0x28, 0x0a, 0x2e },
20000724:	80a78793          	addi	a5,a5,-2038 # 2e0a280a <_eusrstack+0xe09f80a>
		SetupRegisterMap( LSM6DS3_ADDRESS, 
20000728:	cb068693          	addi	a3,a3,-848 # 2cb0 <__clzsi2+0x144>
2000072c:	4609                	li	a2,2
2000072e:	006c                	addi	a1,sp,12
20000730:	06a00513          	li	a0,106
			(const uint8_t[]){ 0x0a, 0x28, 0x0a, 0x2e },
20000734:	c63e                	sw	a5,12(sp)
		SetupRegisterMap( LSM6DS3_ADDRESS, 
20000736:	e0001097          	auipc	ra,0xe0001
2000073a:	400080e7          	jalr	1024(ra) # 1b36 <SetupRegisterMap.isra.0>
		//printf( "\n" );
	}
	printf( "\n" );

	SendStop();
}
2000073e:	50f2                	lw	ra,60(sp)
20000740:	5462                	lw	s0,56(sp)
20000742:	54d2                	lw	s1,52(sp)
20000744:	5942                	lw	s2,48(sp)
20000746:	59b2                	lw	s3,44(sp)
20000748:	5a22                	lw	s4,40(sp)
2000074a:	5a92                	lw	s5,36(sp)
2000074c:	5b02                	lw	s6,32(sp)
2000074e:	4bf2                	lw	s7,28(sp)
20000750:	6121                	addi	sp,sp,64
20000752:	8082                	ret
	printf( "%06x ", (unsigned int)sw );
20000754:	650d                	lui	a0,0x3
20000756:	cc450513          	addi	a0,a0,-828 # 2cc4 <__clzsi2+0x158>
2000075a:	e0001097          	auipc	ra,0xe0001
2000075e:	c56080e7          	jalr	-938(ra) # 13b0 <printf>
	if( samps > 63 ) samps = 63;
20000762:	7c047793          	andi	a5,s0,1984
20000766:	efc9                	bnez	a5,20000800 <ProcessLSM6DS3+0x13e>
20000768:	7ff47413          	andi	s0,s0,2047
	if( samps == 0 )
2000076c:	d869                	beqz	s0,2000073e <ProcessLSM6DS3+0x7c>
	SendStart();
2000076e:	36c5                	jal	2000034e <SendStart>
	SendByteNoAck( LSM6DS3_ADDRESS<<1 );
20000770:	0d400513          	li	a0,212
20000774:	3b61                	jal	2000050c <SendByteNoAck>
	SendByteNoAck( 0x20 );
20000776:	02000513          	li	a0,32
2000077a:	3b49                	jal	2000050c <SendByteNoAck>
	SendStart();
2000077c:	3ec9                	jal	2000034e <SendStart>
	SendByteNoAck( (LSM6DS3_ADDRESS<<1)|1 );
2000077e:	0d500513          	li	a0,213
20000782:	3369                	jal	2000050c <SendByteNoAck>
	uint32_t ta = GetByte( 0 );
20000784:	4501                	li	a0,0
20000786:	3d91                	jal	200005da <GetByte>
	ta |= GetByte( 0 )<<8; // Ignore FIFO status 4
20000788:	4501                	li	a0,0
2000078a:	3d81                	jal	200005da <GetByte>
	for( samp = 0; samp < samps; samp++ )
2000078c:	4481                	li	s1,0
			int end = (i==5 && samp == samps-1);
2000078e:	4a15                	li	s4,5
20000790:	fff40b13          	addi	s6,s0,-1
				printf( "%04x ", val );
20000794:	6b8d                	lui	s7,0x3
		for( i = 0; i < 6; i++ )
20000796:	4a99                	li	s5,6
20000798:	4901                	li	s2,0
			uint16_t val = GetByte( 0 );
2000079a:	4501                	li	a0,0
2000079c:	3d3d                	jal	200005da <GetByte>
2000079e:	89aa                	mv	s3,a0
			int end = (i==5 && samp == samps-1);
200007a0:	4501                	li	a0,0
200007a2:	01491b63          	bne	s2,s4,200007b8 <ProcessLSM6DS3+0xf6>
200007a6:	009b1963          	bne	s6,s1,200007b8 <ProcessLSM6DS3+0xf6>
			if( end ) printf( "." );
200007aa:	02e00513          	li	a0,46
200007ae:	e0001097          	auipc	ra,0xe0001
200007b2:	fda080e7          	jalr	-38(ra) # 1788 <putchar>
			int end = (i==5 && samp == samps-1);
200007b6:	4505                	li	a0,1
			val |= GetByte( end ) << 8;
200007b8:	350d                	jal	200005da <GetByte>
			if( samp == 0 )
200007ba:	ec89                	bnez	s1,200007d4 <ProcessLSM6DS3+0x112>
			val |= GetByte( end ) << 8;
200007bc:	00851593          	slli	a1,a0,0x8
200007c0:	0135e5b3          	or	a1,a1,s3
				printf( "%04x ", val );
200007c4:	05c2                	slli	a1,a1,0x10
200007c6:	81c1                	srli	a1,a1,0x10
200007c8:	cccb8513          	addi	a0,s7,-820 # 2ccc <__clzsi2+0x160>
200007cc:	e0001097          	auipc	ra,0xe0001
200007d0:	be4080e7          	jalr	-1052(ra) # 13b0 <printf>
		for( i = 0; i < 6; i++ )
200007d4:	0905                	addi	s2,s2,1
200007d6:	fd5912e3          	bne	s2,s5,2000079a <ProcessLSM6DS3+0xd8>
	for( samp = 0; samp < samps; samp++ )
200007da:	0485                	addi	s1,s1,1
200007dc:	fa941ee3          	bne	s0,s1,20000798 <ProcessLSM6DS3+0xd6>
	printf( "\n" );
200007e0:	4529                	li	a0,10
200007e2:	e0001097          	auipc	ra,0xe0001
200007e6:	fa6080e7          	jalr	-90(ra) # 1788 <putchar>
}
200007ea:	5462                	lw	s0,56(sp)
200007ec:	50f2                	lw	ra,60(sp)
200007ee:	54d2                	lw	s1,52(sp)
200007f0:	5942                	lw	s2,48(sp)
200007f2:	59b2                	lw	s3,44(sp)
200007f4:	5a22                	lw	s4,40(sp)
200007f6:	5a92                	lw	s5,36(sp)
200007f8:	5b02                	lw	s6,32(sp)
200007fa:	4bf2                	lw	s7,28(sp)
200007fc:	6121                	addi	sp,sp,64
	SendStop();
200007fe:	be75                	j	200003ba <SendStop>
	if( samps > 63 ) samps = 63;
20000800:	03f00413          	li	s0,63
20000804:	b7ad                	j	2000076e <ProcessLSM6DS3+0xac>

20000806 <CoreLoop>:


void CoreLoop() __HIGH_CODE;

void CoreLoop()
{
20000806:	7179                	addi	sp,sp,-48
20000808:	c85a                	sw	s6,16(sp)

	uint32_t cimutag;
	uint32_t cimudat;
	int16_t cimu[3];

	unsigned nextdeadline = SysTick->CNT;
2000080a:	e000fb37          	lui	s6,0xe000f
{
2000080e:	c266                	sw	s9,4(sp)
	unsigned nextdeadline = SysTick->CNT;
20000810:	008b2c83          	lw	s9,8(s6) # e000f008 <_eusrstack+0xc000c008>
{
20000814:	d04a                	sw	s2,32(sp)
20000816:	cc52                	sw	s4,24(sp)
20000818:	ca56                	sw	s5,20(sp)
2000081a:	c65e                	sw	s7,12(sp)
	R16_SPI0_TOTAL_CNT = 4;
2000081c:	40004ab7          	lui	s5,0x40004
20000820:	6b85                	lui	s7,0x1
{
20000822:	ce4e                	sw	s3,28(sp)
20000824:	c462                	sw	s8,8(sp)
	void * nextjump = &&lsm6_getcimu;
20000826:	b0018793          	addi	a5,gp,-1280 # 200008ac <CoreLoop+0xa6>
{
2000082a:	d606                	sw	ra,44(sp)
2000082c:	d422                	sw	s0,40(sp)
2000082e:	d226                	sw	s1,36(sp)
20000830:	c06a                	sw	s10,0(sp)
	uint32_t fn = 0;
20000832:	4981                	li	s3,0
20000834:	b0018913          	addi	s2,gp,-1280 # 200008ac <CoreLoop+0xa6>
20000838:	9c4b8b93          	addi	s7,s7,-1596 # 9c4 <_einit+0x934>
	funDigitalWrite( SSD1306_CS_PIN, FUN_LOW );
2000083c:	4c41                	li	s8,16
	R16_SPI0_TOTAL_CNT = 4;
2000083e:	0ab1                	addi	s5,s5,12 # 4000400c <_eusrstack+0x2000100c>
20000840:	bf618a13          	addi	s4,gp,-1034 # 200009a2 <CoreLoop+0x19c>
20000844:	037986b3          	mul	a3,s3,s7
20000848:	96e6                	add	a3,a3,s9

	cont:
		// Target 16.697 kHz
		while( ((int32_t)( SysTick->CNT - nextdeadline )) < 0  );
2000084a:	008b2703          	lw	a4,8(s6)
2000084e:	8f15                	sub	a4,a4,a3
20000850:	fe074de3          	bltz	a4,2000084a <CoreLoop+0x44>
	funDigitalWrite( SSD1306_DC_PIN, FUN_LOW );
20000854:	40001737          	lui	a4,0x40001
20000858:	0ac70713          	addi	a4,a4,172 # 400010ac <_eusrstack+0x1fffe0ac>
2000085c:	40000693          	li	a3,1024
20000860:	c314                	sw	a3,0(a4)
	funDigitalWrite( SSD1306_CS_PIN, FUN_LOW );
20000862:	01872023          	sw	s8,0(a4)
	R16_SPI0_TOTAL_CNT = 4;
20000866:	4711                	li	a4,4
20000868:	00ea9023          	sh	a4,0(s5)
	R8_SPI0_FIFO = 0xd3;
2000086c:	fd300693          	li	a3,-45
20000870:	40004737          	lui	a4,0x40004
20000874:	00d70823          	sb	a3,16(a4) # 40004010 <_eusrstack+0x20001010>
	R8_SPI0_FIFO = x;
20000878:	07f9f693          	andi	a3,s3,127
2000087c:	00d70823          	sb	a3,16(a4)
	R8_SPI0_FIFO = 0xdc;
20000880:	fdc00693          	li	a3,-36
20000884:	00d70823          	sb	a3,16(a4)
		nextdeadline += 2500;
		spi_send_command_fast( fn&0x7f, fn>>7 );
20000888:	0079d693          	srli	a3,s3,0x7
	R8_SPI0_FIFO = y;
2000088c:	0ff6f693          	zext.b	a3,a3
20000890:	00d70823          	sb	a3,16(a4)
	while( R16_SPI0_TOTAL_CNT );
20000894:	000ad703          	lhu	a4,0(s5)
20000898:	ff75                	bnez	a4,20000894 <CoreLoop+0x8e>
	funDigitalWrite( SSD1306_CS_PIN, FUN_HIGH );
2000089a:	40001737          	lui	a4,0x40001
2000089e:	0b872c23          	sw	s8,184(a4) # 400010b8 <_eusrstack+0x1fffe0b8>
		fn++;
200008a2:	0985                	addi	s3,s3,1
		goto *nextjump;
200008a4:	8782                	jr	a5
		cimudat |= GetByte( 0 ) << 8ULL;
		cimudat |= GetByte( 1 ) << 16ULL;
		SendStop();
		if( cimudat & 0x4000 )
		{
			nextjump = &&lsm6_force_fifo_reset;
200008a6:	b4818793          	addi	a5,gp,-1208 # 200008f4 <CoreLoop+0xee>
200008aa:	bf69                	j	20000844 <CoreLoop+0x3e>
		SendStart();
200008ac:	344d                	jal	2000034e <SendStart>
		SendByteNoAck( LSM6DS3_ADDRESS<<1 );
200008ae:	0d400513          	li	a0,212
200008b2:	39a9                	jal	2000050c <SendByteNoAck>
		SendByteNoAck( 0x3a );
200008b4:	03a00513          	li	a0,58
200008b8:	3991                	jal	2000050c <SendByteNoAck>
		SendStart();
200008ba:	3c51                	jal	2000034e <SendStart>
		SendByteNoAck( (LSM6DS3_ADDRESS<<1)|1 );
200008bc:	0d500513          	li	a0,213
200008c0:	31b1                	jal	2000050c <SendByteNoAck>
		cimudat = GetByte( 0 );
200008c2:	4501                	li	a0,0
200008c4:	3b19                	jal	200005da <GetByte>
200008c6:	8d2a                	mv	s10,a0
		cimudat |= GetByte( 0 ) << 8ULL;
200008c8:	4501                	li	a0,0
200008ca:	3b01                	jal	200005da <GetByte>
200008cc:	842a                	mv	s0,a0
		cimudat |= GetByte( 1 ) << 16ULL;
200008ce:	4505                	li	a0,1
200008d0:	3329                	jal	200005da <GetByte>
200008d2:	0542                	slli	a0,a0,0x10
		cimudat |= GetByte( 0 ) << 8ULL;
200008d4:	0422                	slli	s0,s0,0x8
		cimudat |= GetByte( 1 ) << 16ULL;
200008d6:	8c49                	or	s0,s0,a0
200008d8:	01a46433          	or	s0,s0,s10
		SendStop();
200008dc:	3cf9                	jal	200003ba <SendStop>
		if( cimudat & 0x4000 )
200008de:	01141793          	slli	a5,s0,0x11
200008e2:	fc07c2e3          	bltz	a5,200008a6 <CoreLoop+0xa0>
			goto cont;
		}
		else if( ( cimudat & 0x7ff ) > 0 )
200008e6:	01541793          	slli	a5,s0,0x15
200008ea:	0a078c63          	beqz	a5,200009a2 <CoreLoop+0x19c>
		{
			nextjump = &&lsm6_pull0;
200008ee:	b8418793          	addi	a5,gp,-1148 # 20000930 <CoreLoop+0x12a>
200008f2:	bf89                	j	20000844 <CoreLoop+0x3e>
		}
		nextjump = &&lsm6_1;
		goto cont;

	lsm6_force_fifo_reset:
		SendStart();
200008f4:	3ca9                	jal	2000034e <SendStart>
		SendByteNoAck( LSM6DS3_ADDRESS<<1 );
200008f6:	0d400513          	li	a0,212
200008fa:	3909                	jal	2000050c <SendByteNoAck>
		SendByteNoAck( 0x0a );
200008fc:	4529                	li	a0,10
200008fe:	3139                	jal	2000050c <SendByteNoAck>
		SendByteNoAck( 0x28 );
20000900:	02800513          	li	a0,40
20000904:	3121                	jal	2000050c <SendByteNoAck>
		SendStop();
20000906:	3c55                	jal	200003ba <SendStop>
		SendStart();
20000908:	3499                	jal	2000034e <SendStart>
		SendByteNoAck( LSM6DS3_ADDRESS<<1 );
2000090a:	0d400513          	li	a0,212
2000090e:	3efd                	jal	2000050c <SendByteNoAck>
		SendByteNoAck( 0x0a );
20000910:	4529                	li	a0,10
20000912:	3eed                	jal	2000050c <SendByteNoAck>
		SendByteNoAck( 0x2e );
20000914:	02e00513          	li	a0,46
20000918:	3ed5                	jal	2000050c <SendByteNoAck>
		SendStop();
2000091a:	3445                	jal	200003ba <SendStop>
		Delay_Ms(20);
2000091c:	00125537          	lui	a0,0x125
20000920:	f8050513          	addi	a0,a0,-128 # 124f80 <firmware.c.e6ea786d+0x121199>
20000924:	e0000097          	auipc	ra,0xe0000
20000928:	1e8080e7          	jalr	488(ra) # b0c <DelaySysTick>
	lsm6_1:
		nextjump = &&lsm6_2;
		goto cont;

	lsm6_2:
		nextjump = &&lsm6_getcimu;
2000092c:	87ca                	mv	a5,s2
		goto cont;
2000092e:	bf19                	j	20000844 <CoreLoop+0x3e>
		SendStart();
20000930:	3c39                	jal	2000034e <SendStart>
		SendByteNoAck( LSM6DS3_ADDRESS<<1 );
20000932:	0d400513          	li	a0,212
20000936:	3ed9                	jal	2000050c <SendByteNoAck>
		SendByteNoAck( 0x78 );
20000938:	07800513          	li	a0,120
2000093c:	3ec1                	jal	2000050c <SendByteNoAck>
		SendStart();
2000093e:	3c01                	jal	2000034e <SendStart>
		SendByteNoAck( (LSM6DS3_ADDRESS<<1)|1 );
20000940:	0d500513          	li	a0,213
20000944:	36e1                	jal	2000050c <SendByteNoAck>
		cimutag = GetByte( 0 ); // FIFO Tag
20000946:	4501                	li	a0,0
20000948:	3949                	jal	200005da <GetByte>
2000094a:	84aa                	mv	s1,a0
		nextjump = &&lsm6_pull1;
2000094c:	ba618793          	addi	a5,gp,-1114 # 20000952 <CoreLoop+0x14c>
		goto cont;
20000950:	bdd5                	j	20000844 <CoreLoop+0x3e>
		tmp = GetByte( 0 );
20000952:	4501                	li	a0,0
20000954:	3159                	jal	200005da <GetByte>
		cimu[0] = tmp | GetByte( 0 ) << 8;
20000956:	4501                	li	a0,0
20000958:	3149                	jal	200005da <GetByte>
		tmp = GetByte( 0 );
2000095a:	4501                	li	a0,0
2000095c:	39bd                	jal	200005da <GetByte>
		cimu[1] = tmp | GetByte( 0 ) << 8;
2000095e:	4501                	li	a0,0
20000960:	39ad                	jal	200005da <GetByte>
		tmp = GetByte( 0 );
20000962:	4501                	li	a0,0
20000964:	399d                	jal	200005da <GetByte>
		cimu[2] = tmp | GetByte( 1 ) << 8;
20000966:	4505                	li	a0,1
20000968:	398d                	jal	200005da <GetByte>
		SendStop();
2000096a:	3c81                	jal	200003ba <SendStop>
		nextjump = &&lsm6_pull2;
2000096c:	bc618793          	addi	a5,gp,-1082 # 20000972 <CoreLoop+0x16c>
		goto cont;
20000970:	bdd1                	j	20000844 <CoreLoop+0x3e>
		cimutag >>= 3;
20000972:	808d                	srli	s1,s1,0x3
		if( cimutag == 1 )
20000974:	4785                	li	a5,1
20000976:	00f49663          	bne	s1,a5,20000982 <CoreLoop+0x17c>
			uint32_t now = SysTick->CNT;
2000097a:	008b2783          	lw	a5,8(s6)
		nextjump = &&lsm6_process;
2000097e:	87d2                	mv	a5,s4
20000980:	b5d1                	j	20000844 <CoreLoop+0x3e>
		else if( cimutag == 2 )
20000982:	4709                	li	a4,2
		nextjump = &&lsm6_process;
20000984:	87d2                	mv	a5,s4
		else if( cimutag == 2 )
20000986:	eae48fe3          	beq	s1,a4,20000844 <CoreLoop+0x3e>
		else if( cimutag == 3 )
2000098a:	478d                	li	a5,3
2000098c:	fef489e3          	beq	s1,a5,2000097e <CoreLoop+0x178>
			printf( "Confusing tag: %d\n", cimutag );
20000990:	650d                	lui	a0,0x3
20000992:	85a6                	mv	a1,s1
20000994:	cd450513          	addi	a0,a0,-812 # 2cd4 <__clzsi2+0x168>
20000998:	e0001097          	auipc	ra,0xe0001
2000099c:	a18080e7          	jalr	-1512(ra) # 13b0 <printf>
200009a0:	bff9                	j	2000097e <CoreLoop+0x178>
		nextjump = &&lsm6_1;
200009a2:	bfc18793          	addi	a5,gp,-1028 # 200009a8 <CoreLoop+0x1a2>
200009a6:	bd79                	j	20000844 <CoreLoop+0x3e>
		nextjump = &&lsm6_2;
200009a8:	b8018793          	addi	a5,gp,-1152 # 2000092c <CoreLoop+0x126>
		goto cont;
200009ac:	bd61                	j	20000844 <CoreLoop+0x3e>
	...

Disassembly of section .text:

00000a40 <mini_pad>:
	if(pad_to == 0) pad_to = len;
     a40:	c699                	beqz	a3,a4e <mini_pad+0xe>
	int overflow = 0;
     a42:	4801                	li	a6,0
	if(len > pad_to) {
     a44:	00b6d763          	bge	a3,a1,a52 <mini_pad+0x12>
		len = pad_to;
     a48:	85b6                	mv	a1,a3
		overflow = 1;
     a4a:	4805                	li	a6,1
     a4c:	a019                	j	a52 <mini_pad+0x12>
	int overflow = 0;
     a4e:	4801                	li	a6,0
	if(pad_to == 0) pad_to = len;
     a50:	86ae                	mv	a3,a1
	for(i = pad_to - len; i > 0; i --) {
     a52:	8e8d                	sub	a3,a3,a1
	char * pbuffer = buffer;
     a54:	87ba                	mv	a5,a4
     a56:	00e68333          	add	t1,a3,a4
	for(i = pad_to - len; i > 0; i --) {
     a5a:	40f308b3          	sub	a7,t1,a5
     a5e:	05104a63          	bgtz	a7,ab2 <mini_pad+0x72>
     a62:	fff6c793          	not	a5,a3
     a66:	87fd                	srai	a5,a5,0x1f
     a68:	8efd                	and	a3,a3,a5
     a6a:	96ba                	add	a3,a3,a4
     a6c:	4781                	li	a5,0
	for(i = len; i > 0; i --) {
     a6e:	40f58633          	sub	a2,a1,a5
     a72:	00f688b3          	add	a7,a3,a5
     a76:	04c04263          	bgtz	a2,aba <mini_pad+0x7a>
     a7a:	fff5c793          	not	a5,a1
     a7e:	87fd                	srai	a5,a5,0x1f
     a80:	8dfd                	and	a1,a1,a5
     a82:	95b6                	add	a1,a1,a3
	len = pbuffer - buffer;
     a84:	40e58533          	sub	a0,a1,a4
	if(overflow) {
     a88:	02080463          	beqz	a6,ab0 <mini_pad+0x70>
		for (i = 0; i < 3 && pbuffer > buffer; i ++) {
     a8c:	02b77263          	bgeu	a4,a1,ab0 <mini_pad+0x70>
			*(pbuffer-- - 1) = '*';
     a90:	02a00793          	li	a5,42
     a94:	fef58fa3          	sb	a5,-1(a1)
     a98:	fff58693          	addi	a3,a1,-1
		for (i = 0; i < 3 && pbuffer > buffer; i ++) {
     a9c:	00d77a63          	bgeu	a4,a3,ab0 <mini_pad+0x70>
			*(pbuffer-- - 1) = '*';
     aa0:	fef58f23          	sb	a5,-2(a1)
     aa4:	ffe58693          	addi	a3,a1,-2
		for (i = 0; i < 3 && pbuffer > buffer; i ++) {
     aa8:	00d77463          	bgeu	a4,a3,ab0 <mini_pad+0x70>
			*(pbuffer-- - 1) = '*';
     aac:	fef58ea3          	sb	a5,-3(a1)
}
     ab0:	8082                	ret
		*(pbuffer++) = pad_char;
     ab2:	0785                	addi	a5,a5,1
     ab4:	fec78fa3          	sb	a2,-1(a5)
	for(i = pad_to - len; i > 0; i --) {
     ab8:	b74d                	j	a5a <mini_pad+0x1a>
		*(pbuffer++) = *(ptr++);
     aba:	00f50633          	add	a2,a0,a5
     abe:	00064603          	lbu	a2,0(a2)
     ac2:	0785                	addi	a5,a5,1
     ac4:	00c88023          	sb	a2,0(a7)
	for(i = len; i > 0; i --) {
     ac8:	b75d                	j	a6e <mini_pad+0x2e>

00000aca <_puts>:
{
     aca:	86aa                	mv	a3,a0
     acc:	852e                	mv	a0,a1
	if(!buf) return len;
     ace:	ce01                	beqz	a2,ae6 <_puts+0x1c>
	char * p0 = b->buffer;
     ad0:	00062883          	lw	a7,0(a2)
	for (i = 0; i < len; i++) {
     ad4:	4701                	li	a4,0
		if(b->pbuffer == b->buffer + b->buffer_len - 1) {
     ad6:	425c                	lw	a5,4(a2)
	for (i = 0; i < len; i++) {
     ad8:	00a74863          	blt	a4,a0,ae8 <_puts+0x1e>
	*(b->pbuffer) = 0;
     adc:	00078023          	sb	zero,0(a5)
	return b->pbuffer - p0;
     ae0:	4248                	lw	a0,4(a2)
     ae2:	41150533          	sub	a0,a0,a7
}
     ae6:	8082                	ret
		if(b->pbuffer == b->buffer + b->buffer_len - 1) {
     ae8:	00862803          	lw	a6,8(a2)
     aec:	420c                	lw	a1,0(a2)
     aee:	187d                	addi	a6,a6,-1
     af0:	95c2                	add	a1,a1,a6
     af2:	feb785e3          	beq	a5,a1,adc <_puts+0x12>
		*(b->pbuffer ++) = s[i];
     af6:	00178593          	addi	a1,a5,1
     afa:	c24c                	sw	a1,4(a2)
     afc:	00e685b3          	add	a1,a3,a4
     b00:	0005c583          	lbu	a1,0(a1)
	for (i = 0; i < len; i++) {
     b04:	0705                	addi	a4,a4,1
		*(b->pbuffer ++) = s[i];
     b06:	00b78023          	sb	a1,0(a5)
	for (i = 0; i < len; i++) {
     b0a:	b7f1                	j	ad6 <_puts+0xc>

00000b0c <DelaySysTick>:
	while( ((int32_t)( SysTick->CNT - targend )) < 0 );
#elif defined(CH32V20x) || defined(CH32V30x) || defined(CH32X03x) || defined(CH32L103) || defined(CH582_CH583) || defined(CH591_CH592) || defined(CH32H41x)
	uint64_t targend = SysTick->CNT + n;
	while( ((int64_t)( SysTick->CNT - targend )) < 0 );
#elif defined(CH32V10x) || defined(CH570_CH572) || defined(CH584_CH585)
	uint32_t targend = SysTick->CNTL + n;
     b0c:	e000f737          	lui	a4,0xe000f
     b10:	471c                	lw	a5,8(a4)
     b12:	953e                	add	a0,a0,a5
	while( ((int32_t)( SysTick->CNTL - targend )) < 0 );
     b14:	471c                	lw	a5,8(a4)
     b16:	8f89                	sub	a5,a5,a0
     b18:	fe07cee3          	bltz	a5,b14 <DelaySysTick+0x8>
	uint64_t targend = SysTick->CNT - n;
	while( ((int64_t)( SysTick->CNT - targend )) > 0 );
#else
	#error DelaySysTick not defined.
#endif
}
     b1c:	8082                	ret

00000b1e <mini_itoa.part.0>:
	int	negative = 0;
     b1e:	4881                	li	a7,0
	if (value < 0 && !unsig) {
     b20:	00055663          	bgez	a0,b2c <mini_itoa.part.0+0xe>
     b24:	e681                	bnez	a3,b2c <mini_itoa.part.0+0xe>
		value = -value;
     b26:	40a00533          	neg	a0,a0
		negative = 1;
     b2a:	4885                	li	a7,1
     b2c:	8a05                	andi	a2,a2,1
     b2e:	06100793          	li	a5,97
     b32:	c219                	beqz	a2,b38 <mini_itoa.part.0+0x1a>
     b34:	04100793          	li	a5,65
	int	negative = 0;
     b38:	883a                	mv	a6,a4
		*(pbuffer++) = (digit < 10 ? '0' + digit : (uppercase ? 'A' : 'a') + digit - 10);
     b3a:	4e25                	li	t3,9
     b3c:	ff678613          	addi	a2,a5,-10
		int digit = value % radix;
     b40:	02b577b3          	remu	a5,a0,a1
     b44:	832a                	mv	t1,a0
		*(pbuffer++) = (digit < 10 ? '0' + digit : (uppercase ? 'A' : 'a') + digit - 10);
     b46:	0ff7f693          	zext.b	a3,a5
     b4a:	04fe6463          	bltu	t3,a5,b92 <mini_itoa.part.0+0x74>
     b4e:	03068693          	addi	a3,a3,48
     b52:	0ff6f693          	zext.b	a3,a3
     b56:	00d80023          	sb	a3,0(a6)
     b5a:	00180793          	addi	a5,a6,1
		value /= radix;
     b5e:	02b55533          	divu	a0,a0,a1
	} while (value > 0);
     b62:	02b37663          	bgeu	t1,a1,b8e <mini_itoa.part.0+0x70>
	if (negative)
     b66:	00088863          	beqz	a7,b76 <mini_itoa.part.0+0x58>
		*(pbuffer++) = '-';
     b6a:	02d00693          	li	a3,45
     b6e:	00d78023          	sb	a3,0(a5)
     b72:	00280793          	addi	a5,a6,2
	len = (pbuffer - buffer);
     b76:	40e78533          	sub	a0,a5,a4
	for (i = 0; i < len / 2; i++) {
     b7a:	4609                	li	a2,2
	*(pbuffer) = '\0';
     b7c:	00078023          	sb	zero,0(a5)
	for (i = 0; i < len / 2; i++) {
     b80:	4681                	li	a3,0
     b82:	02c54633          	div	a2,a0,a2
     b86:	17fd                	addi	a5,a5,-1
     b88:	00c6c763          	blt	a3,a2,b96 <mini_itoa.part.0+0x78>
}
     b8c:	8082                	ret
		*(pbuffer++) = (digit < 10 ? '0' + digit : (uppercase ? 'A' : 'a') + digit - 10);
     b8e:	883e                	mv	a6,a5
     b90:	bf45                	j	b40 <mini_itoa.part.0+0x22>
     b92:	96b2                	add	a3,a3,a2
     b94:	bf7d                	j	b52 <mini_itoa.part.0+0x34>
		char j = buffer[i];
     b96:	00d705b3          	add	a1,a4,a3
		buffer[i] = buffer[len-i-1];
     b9a:	0007c883          	lbu	a7,0(a5)
		char j = buffer[i];
     b9e:	0005c803          	lbu	a6,0(a1)
	for (i = 0; i < len / 2; i++) {
     ba2:	0685                	addi	a3,a3,1
		buffer[i] = buffer[len-i-1];
     ba4:	01158023          	sb	a7,0(a1)
		buffer[len-i-1] = j;
     ba8:	01078023          	sb	a6,0(a5)
	for (i = 0; i < len / 2; i++) {
     bac:	bfe9                	j	b86 <mini_itoa.part.0+0x68>

00000bae <ssd1306_drawPixel>:
void ssd1306_drawPixel(uint32_t x, uint32_t y, int color)
{
	uint32_t addr;
	
	/* clip */
	if(x >= SSD1306_W)
     bae:	00b56733          	or	a4,a0,a1
     bb2:	07f00793          	li	a5,127
     bb6:	02e7e563          	bltu	a5,a4,be0 <ssd1306_drawPixel+0x32>
		return;
	if(y >= SSD1306_H)
		return;
	
	/* compute buffer address */
	addr = x + SSD1306_W*(y/8);
     bba:	0035d793          	srli	a5,a1,0x3
     bbe:	079e                	slli	a5,a5,0x7
     bc0:	97aa                	add	a5,a5,a0
	
	/* set/clear bit in buffer */
	if(color)
		ssd1306_buffer[addr] |= (1<<(y&7));
     bc2:	20002537          	lui	a0,0x20002
     bc6:	8b050513          	addi	a0,a0,-1872 # 200018b0 <ssd1306_buffer>
     bca:	953e                	add	a0,a0,a5
     bcc:	899d                	andi	a1,a1,7
     bce:	4705                	li	a4,1
     bd0:	00054783          	lbu	a5,0(a0)
     bd4:	00b71733          	sll	a4,a4,a1
	if(color)
     bd8:	c609                	beqz	a2,be2 <ssd1306_drawPixel+0x34>
		ssd1306_buffer[addr] |= (1<<(y&7));
     bda:	8fd9                	or	a5,a5,a4
	else
		ssd1306_buffer[addr] &= ~(1<<(y&7));
     bdc:	00f50023          	sb	a5,0(a0)
}
     be0:	8082                	ret
		ssd1306_buffer[addr] &= ~(1<<(y&7));
     be2:	fff74713          	not	a4,a4
     be6:	8ff9                	and	a5,a5,a4
     be8:	bfd5                	j	bdc <ssd1306_drawPixel+0x2e>

00000bea <DevSetMode>:
	if(mode) {
     bea:	4000c7b7          	lui	a5,0x4000c
     bee:	10078793          	addi	a5,a5,256 # 4000c100 <_eusrstack+0x20009100>
		BB->CTRL_CFG = DEVSETMODE_ON;
     bf2:	4398                	lw	a4,0(a5)
     bf4:	fffd06b7          	lui	a3,0xfffd0
     bf8:	16fd                	addi	a3,a3,-1 # fffcffff <_eusrstack+0xdffccfff>
     bfa:	8f75                	and	a4,a4,a3
	if(mode) {
     bfc:	c115                	beqz	a0,c20 <DevSetMode+0x36>
		BB->CTRL_CFG = DEVSETMODE_ON;
     bfe:	000206b7          	lui	a3,0x20
     c02:	8f55                	or	a4,a4,a3
     c04:	c398                	sw	a4,0(a5)
		RF->RF2 |= 0x330000;
     c06:	4000d737          	lui	a4,0x4000d
     c0a:	471c                	lw	a5,8(a4)
     c0c:	003306b7          	lui	a3,0x330
     c10:	8fd5                	or	a5,a5,a3
     c12:	c71c                	sw	a5,8(a4)
	LL->CTRL_MOD = mode;
     c14:	4000c7b7          	lui	a5,0x4000c
     c18:	20078793          	addi	a5,a5,512 # 4000c200 <_eusrstack+0x20009200>
     c1c:	cba8                	sw	a0,80(a5)
}
     c1e:	8082                	ret
		BB->CTRL_CFG = DEVSETMODE_OFF;
     c20:	66c1                	lui	a3,0x10
     c22:	8f55                	or	a4,a4,a3
     c24:	c398                	sw	a4,0(a5)
		RF->RF2 &= 0xffcdffff;
     c26:	4000d6b7          	lui	a3,0x4000d
     c2a:	469c                	lw	a5,8(a3)
     c2c:	ffce0737          	lui	a4,0xffce0
     c30:	177d                	addi	a4,a4,-1 # ffcdffff <_eusrstack+0xdfcdcfff>
     c32:	8ff9                	and	a5,a5,a4
     c34:	c69c                	sw	a5,8(a3)
     c36:	bff9                	j	c14 <DevSetMode+0x2a>

00000c38 <RFEND_TXCTune>:
	RF->RF1 &= 0xfffffffe;
     c38:	4000d7b7          	lui	a5,0x4000d
     c3c:	43d8                	lw	a4,4(a5)
	RF->TXTUNE_CTRL = (RF->TXTUNE_CTRL & 0xfffe00ff) | (0xbf00 + (channel_map[channel] << 8));
     c3e:	6631                	lui	a2,0xc
     c40:	f0060613          	addi	a2,a2,-256 # bf00 <firmware.c.e6ea786d+0x8119>
	RF->RF1 &= 0xfffffffe;
     c44:	9b79                	andi	a4,a4,-2
     c46:	c3d8                	sw	a4,4(a5)
	RF->TXTUNE_CTRL = (RF->TXTUNE_CTRL & 0xfffe00ff) | (0xbf00 + (channel_map[channel] << 8));
     c48:	670d                	lui	a4,0x3
     c4a:	56470713          	addi	a4,a4,1380 # 3564 <channel_map>
     c4e:	972a                	add	a4,a4,a0
     c50:	00074703          	lbu	a4,0(a4)
     c54:	5f94                	lw	a3,56(a5)
     c56:	0722                	slli	a4,a4,0x8
     c58:	9732                	add	a4,a4,a2
     c5a:	7601                	lui	a2,0xfffe0
     c5c:	0ff60613          	addi	a2,a2,255 # fffe00ff <_eusrstack+0xdffdd0ff>
     c60:	8ef1                	and	a3,a3,a2
     c62:	8f55                	or	a4,a4,a3
     c64:	df98                	sw	a4,56(a5)
	RF->RF1 |= 1;
     c66:	43d8                	lw	a4,4(a5)
	LL->TMR = 8000;
     c68:	6689                	lui	a3,0x2
     c6a:	f4068693          	addi	a3,a3,-192 # 1f40 <main+0x386>
	RF->RF1 |= 1;
     c6e:	00176713          	ori	a4,a4,1
     c72:	c3d8                	sw	a4,4(a5)
	LL->TMR = 8000;
     c74:	4000c737          	lui	a4,0x4000c
     c78:	20070713          	addi	a4,a4,512 # 4000c200 <_eusrstack+0x20009200>
     c7c:	d374                	sw	a3,100(a4)
	while(!(RF->TXCTUNE_CO_CTRL & (1 << 25)) || !(RF->TXCTUNE_CO_CTRL & (1 << 26))) {
     c7e:	0907a683          	lw	a3,144(a5) # 4000d090 <_eusrstack+0x2000a090>
     c82:	00669613          	slli	a2,a3,0x6
     c86:	00065863          	bgez	a2,c96 <RFEND_TXCTune+0x5e>
     c8a:	0907a683          	lw	a3,144(a5)
     c8e:	00569613          	slli	a2,a3,0x5
     c92:	00064463          	bltz	a2,c9a <RFEND_TXCTune+0x62>
		if(LL->TMR == 0) {
     c96:	5374                	lw	a3,100(a4)
     c98:	f2fd                	bnez	a3,c7e <RFEND_TXCTune+0x46>
	uint8_t nCO = (uint8_t)RF->TXCTUNE_CO_CTRL & 0x3f;
     c9a:	4000d7b7          	lui	a5,0x4000d
     c9e:	0907a503          	lw	a0,144(a5) # 4000d090 <_eusrstack+0x2000a090>
	uint8_t nGA = (uint8_t)(RF->TXCTUNE_GA_CTRL >> 10) & 0x7f;
     ca2:	0947a783          	lw	a5,148(a5)
	return (nGA << 24) | nCO;
     ca6:	03f57513          	andi	a0,a0,63
	uint8_t nGA = (uint8_t)(RF->TXCTUNE_GA_CTRL >> 10) & 0x7f;
     caa:	83a9                	srli	a5,a5,0xa
	return (nGA << 24) | nCO;
     cac:	07f7f793          	andi	a5,a5,127
     cb0:	07e2                	slli	a5,a5,0x18
}
     cb2:	8d5d                	or	a0,a0,a5
     cb4:	8082                	ret

00000cb6 <DevSetChannel>:
	RF->RF11 &= 0xfffffffd;
     cb6:	4000d737          	lui	a4,0x4000d
     cba:	575c                	lw	a5,44(a4)
	BB->CTRL_CFG = (BB->CTRL_CFG & 0xffffff80) | (channel & 0x7f);
     cbc:	07f57513          	andi	a0,a0,127
	RF->RF11 &= 0xfffffffd;
     cc0:	9bf5                	andi	a5,a5,-3
     cc2:	d75c                	sw	a5,44(a4)
	BB->CTRL_CFG = (BB->CTRL_CFG & 0xffffff80) | (channel & 0x7f);
     cc4:	4000c737          	lui	a4,0x4000c
     cc8:	10070713          	addi	a4,a4,256 # 4000c100 <_eusrstack+0x20009100>
     ccc:	431c                	lw	a5,0(a4)
     cce:	f807f793          	andi	a5,a5,-128
     cd2:	8fc9                	or	a5,a5,a0
     cd4:	c31c                	sw	a5,0(a4)
}
     cd6:	8082                	ret

00000cd8 <RenderBSprite>:
	int sw = spr->w;
     cd8:	00051303          	lh	t1,0(a0)
{
     cdc:	1101                	addi	sp,sp,-32
     cde:	ca4a                	sw	s2,20(sp)
     ce0:	c84e                	sw	s3,16(sp)
     ce2:	ce22                	sw	s0,28(sp)
     ce4:	cc26                	sw	s1,24(sp)
     ce6:	c652                	sw	s4,12(sp)
     ce8:	c456                	sw	s5,8(sp)
     cea:	c25a                	sw	s6,4(sp)
     cec:	c05e                	sw	s7,0(sp)
	int sh = spr->h;
     cee:	00251903          	lh	s2,2(a0)
			bin += sw;
     cf2:	00231993          	slli	s3,t1,0x2
	const uint32_t * bin = &spr->data[0];
     cf6:	0511                	addi	a0,a0,4
	for( y = 0; y < sh; y++, outy++ )
     cf8:	4781                	li	a5,0
     cfa:	00034363          	bltz	t1,d00 <RenderBSprite+0x28>
     cfe:	879a                	mv	a5,t1
     d00:	07c2                	slli	a5,a5,0x10
     d02:	87c1                	srai	a5,a5,0x10
     d04:	00279813          	slli	a6,a5,0x2
		else if( outy >= SSD1306_H )
     d08:	07f00413          	li	s0,127
	for( y = 0; y < sh; y++, outy++ )
     d0c:	87b2                	mv	a5,a2
		uint8_t * bout = &ssd1306_buffer[(outy>>3)*SSD1306_W + outx];
     d0e:	20002a37          	lui	s4,0x20002
		int boutshiftmaskinv = ~(1<<boutshift);
     d12:	4a85                	li	s5,1
			for( x = 0; x < 16; x++, tx++, input >>= 1 )
     d14:	4b41                	li	s6,16
	for( y = 0; y < sh; y++, outy++ )
     d16:	40c78733          	sub	a4,a5,a2
     d1a:	01274c63          	blt	a4,s2,d32 <RenderBSprite+0x5a>
}
     d1e:	4472                	lw	s0,28(sp)
     d20:	44e2                	lw	s1,24(sp)
     d22:	4952                	lw	s2,20(sp)
     d24:	49c2                	lw	s3,16(sp)
     d26:	4a32                	lw	s4,12(sp)
     d28:	4aa2                	lw	s5,8(sp)
     d2a:	4b12                	lw	s6,4(sp)
     d2c:	4b82                	lw	s7,0(sp)
     d2e:	6105                	addi	sp,sp,32
     d30:	8082                	ret
		if( outy < 0 )
     d32:	0007d563          	bgez	a5,d3c <RenderBSprite+0x64>
			bin += sw;
     d36:	954e                	add	a0,a0,s3
	for( y = 0; y < sh; y++, outy++ )
     d38:	0785                	addi	a5,a5,1
     d3a:	bff1                	j	d16 <RenderBSprite+0x3e>
		else if( outy >= SSD1306_H )
     d3c:	fef441e3          	blt	s0,a5,d1e <RenderBSprite+0x46>
		uint8_t * bout = &ssd1306_buffer[(outy>>3)*SSD1306_W + outx];
     d40:	4037d713          	srai	a4,a5,0x3
		int boutshift = outy&7;
     d44:	0077f493          	andi	s1,a5,7
		uint8_t * bout = &ssd1306_buffer[(outy>>3)*SSD1306_W + outx];
     d48:	071e                	slli	a4,a4,0x7
     d4a:	8b0a0f93          	addi	t6,s4,-1872 # 200018b0 <ssd1306_buffer>
		int boutshiftmaskinv = ~(1<<boutshift);
     d4e:	009a92b3          	sll	t0,s5,s1
     d52:	fff2c293          	not	t0,t0
		int tx = outx;
     d56:	8eae                	mv	t4,a1
		for( group = 0; group < sw; group++ )
     d58:	4e01                	li	t3,0
     d5a:	9fba                	add	t6,t6,a4
     d5c:	01df8bb3          	add	s7,t6,t4
     d60:	006e4463          	blt	t3,t1,d68 <RenderBSprite+0x90>
     d64:	9542                	add	a0,a0,a6
     d66:	bfc9                	j	d38 <RenderBSprite+0x60>
			uint32_t input = *(bin++);
     d68:	002e1713          	slli	a4,t3,0x2
     d6c:	972a                	add	a4,a4,a0
     d6e:	00072f03          	lw	t5,0(a4)
			for( x = 0; x < 16; x++, tx++, input >>= 1 )
     d72:	4881                	li	a7,0
				if( tx < 0 || tx >= SSD1306_W ) continue;
     d74:	01d88733          	add	a4,a7,t4
     d78:	02e46463          	bltu	s0,a4,da0 <RenderBSprite+0xc8>
				if( input & 1 )
     d7c:	001f7713          	andi	a4,t5,1
     d80:	c305                	beqz	a4,da0 <RenderBSprite+0xc8>
					bout[x] = ( bout[x] & boutshiftmaskinv ) | (((input>>16)&1)<< ( boutshift));
     d82:	011b86b3          	add	a3,s7,a7
     d86:	0006c383          	lbu	t2,0(a3)
     d8a:	010f5713          	srli	a4,t5,0x10
     d8e:	8b05                	andi	a4,a4,1
     d90:	00971733          	sll	a4,a4,s1
     d94:	0053f3b3          	and	t2,t2,t0
     d98:	00776733          	or	a4,a4,t2
     d9c:	00e68023          	sb	a4,0(a3)
			for( x = 0; x < 16; x++, tx++, input >>= 1 )
     da0:	0885                	addi	a7,a7,1
     da2:	001f5f13          	srli	t5,t5,0x1
     da6:	fd6897e3          	bne	a7,s6,d74 <RenderBSprite+0x9c>
     daa:	0ec1                	addi	t4,t4,16
		for( group = 0; group < sw; group++ )
     dac:	0e05                	addi	t3,t3,1
     dae:	b77d                	j	d5c <RenderBSprite+0x84>

00000db0 <_rand_gen_32b>:
uint32_t _rand_gen_32b(void)
{
	uint32_t rand_out = 0;
	
	uint8_t bits = 32;
	while(bits--)
     db0:	c041a703          	lw	a4,-1020(gp) # 200009b0 <_rand_lfsr>
{
     db4:	02000693          	li	a3,32
	uint32_t rand_out = 0;
     db8:	4501                	li	a0,0
	uint32_t msb = bit_31 ^ bit_21 ^ bit_01 ^ bit_00;
     dba:	80000837          	lui	a6,0x80000
	uint32_t bit_01 = (_rand_lfsr << 30) & 0x80000000;
     dbe:	01e71593          	slli	a1,a4,0x1e
	uint32_t bit_21 = (_rand_lfsr << 10) & 0x80000000;
     dc2:	00a71793          	slli	a5,a4,0xa
	uint32_t msb = bit_31 ^ bit_21 ^ bit_01 ^ bit_00;
     dc6:	8fad                	xor	a5,a5,a1
     dc8:	8fb9                	xor	a5,a5,a4
	uint32_t bit_00 = (_rand_lfsr << 31) & 0x80000000;
     dca:	01f71593          	slli	a1,a4,0x1f
	uint32_t msb = bit_31 ^ bit_21 ^ bit_01 ^ bit_00;
     dce:	0107f7b3          	and	a5,a5,a6
     dd2:	8fad                	xor	a5,a5,a1
	_rand_lfsr = (_rand_lfsr >> 1) | msb;
     dd4:	8305                	srli	a4,a4,0x1
	while(bits--)
     dd6:	16fd                	addi	a3,a3,-1
	{
		// Shift the current rand value for the new LSB
		rand_out = rand_out << 1;
     dd8:	0506                	slli	a0,a0,0x1
	_rand_lfsr = (_rand_lfsr >> 1) | msb;
     dda:	8f5d                	or	a4,a4,a5
	while(bits--)
     ddc:	0ff6f693          	zext.b	a3,a3
	return msb >> 31;
     de0:	83fd                	srli	a5,a5,0x1f
		// Append the LSB
		rand_out |= _rand_lfsr_update();
     de2:	8d5d                	or	a0,a0,a5
	while(bits--)
     de4:	fee9                	bnez	a3,dbe <_rand_gen_32b+0xe>
     de6:	c0e1a223          	sw	a4,-1020(gp) # 200009b0 <_rand_lfsr>
	}
	
	return rand_out;
}
     dea:	8082                	ret

00000dec <ModePufferWirelessRX>:
void ModePufferWirelessRX( uint8_t * txmac, uint8_t * message, int messageLength, int rssi )
{
	//Note to self, this is bad but it works
	ModePuffer *m = (ModePuffer*) game;
	//Include this in modes to handle incoming traffic from the internet
}
     dec:	8082                	ret

00000dee <funPinMode.part.0>:
	case GPIO_ModeIN_Floating:
		*(&R32_PA_PD_DRV + OFFSET_FOR_GPIOB(pin)) &= ~(pin & ~PB);
     dee:	400017b7          	lui	a5,0x40001
     df2:	0b478793          	addi	a5,a5,180 # 400010b4 <_eusrstack+0x1fffe0b4>
     df6:	4398                	lw	a4,0(a5)
     df8:	fff54513          	not	a0,a0
     dfc:	8f69                	and	a4,a4,a0
     dfe:	c398                	sw	a4,0(a5)
		*(&R32_PA_PU + OFFSET_FOR_GPIOB(pin))     &= ~(pin & ~PB);
     e00:	400017b7          	lui	a5,0x40001
     e04:	0b078793          	addi	a5,a5,176 # 400010b0 <_eusrstack+0x1fffe0b0>
     e08:	4398                	lw	a4,0(a5)
     e0a:	8f69                	and	a4,a4,a0
     e0c:	c398                	sw	a4,0(a5)
		*(&R32_PA_DIR + OFFSET_FOR_GPIOB(pin))    &= ~(pin & ~PB);
     e0e:	400017b7          	lui	a5,0x40001
     e12:	0a078793          	addi	a5,a5,160 # 400010a0 <_eusrstack+0x1fffe0a0>
     e16:	4398                	lw	a4,0(a5)
     e18:	8d79                	and	a0,a0,a4
     e1a:	c388                	sw	a0,0(a5)
	case GPIO_ModeOut_PP_20mA:
		*(&R32_PA_PD_DRV + OFFSET_FOR_GPIOB(pin)) |= (pin & ~PB);
		*(&R32_PA_DIR + OFFSET_FOR_GPIOB(pin))    |= (pin & ~PB);
		break;
	}
}
     e1c:	8082                	ret

00000e1e <ssd1306_drawstr_sz.constprop.0>:
}

/*
 * draw a string to the display buffer, scaled to size
 */
void ssd1306_drawstr_sz(uint8_t x, uint8_t y, char *str, uint8_t color, font_size_t font_size)
     e1e:	711d                	addi	sp,sp,-96
     e20:	cca2                	sw	s0,88(sp)
	
	while((c=*str++))
	{
		ssd1306_drawchar_sz(x, y, c, color, font_size);
		x += 8 * font_size;
		if(x>128 - 8 * font_size)
     e22:	4409                	li	s0,2
     e24:	8c11                	sub	s0,s0,a2
void ssd1306_drawstr_sz(uint8_t x, uint8_t y, char *str, uint8_t color, font_size_t font_size)
     e26:	c0da                	sw	s6,64(sp)
		if(x>128 - 8 * font_size)
     e28:	00803433          	snez	s0,s0
    uint8_t font_scale = (uint8_t)font_size;
     e2c:	0ff67b13          	zext.b	s6,a2
void ssd1306_drawstr_sz(uint8_t x, uint8_t y, char *str, uint8_t color, font_size_t font_size)
     e30:	c4d2                	sw	s4,72(sp)
		if(x>128 - 8 * font_size)
     e32:	040e                	slli	s0,s0,0x3
		x += 8 * font_size;
     e34:	003b1a13          	slli	s4,s6,0x3
void ssd1306_drawstr_sz(uint8_t x, uint8_t y, char *str, uint8_t color, font_size_t font_size)
     e38:	caa6                	sw	s1,84(sp)
     e3a:	d86a                	sw	s10,48(sp)
     e3c:	d66e                	sw	s11,44(sp)
     e3e:	ce86                	sw	ra,92(sp)
     e40:	c8ca                	sw	s2,80(sp)
     e42:	c6ce                	sw	s3,76(sp)
     e44:	c2d6                	sw	s5,68(sp)
     e46:	de5e                	sw	s7,60(sp)
     e48:	dc62                	sw	s8,56(sp)
     e4a:	da66                	sw	s9,52(sp)
     e4c:	c82a                	sw	a0,16(sp)
     e4e:	8d2e                	mv	s10,a1
     e50:	8db2                	mv	s11,a2
		x += 8 * font_size;
     e52:	0ffa7a13          	zext.b	s4,s4
		if(x>128 - 8 * font_size)
     e56:	07040413          	addi	s0,s0,112
     e5a:	4481                	li	s1,0
	while((c=*str++))
     e5c:	000d4983          	lbu	s3,0(s10)
     e60:	0d05                	addi	s10,s10,1
     e62:	06098f63          	beqz	s3,ee0 <ssd1306_drawstr_sz.constprop.0+0xc2>
     e66:	4bc2                	lw	s7,16(sp)
        d = fontdata[(chr << 3) + i];
     e68:	00399793          	slli	a5,s3,0x3
	while((c=*str++))
     e6c:	4a81                	li	s5,0
        d = fontdata[(chr << 3) + i];
     e6e:	ca3e                	sw	a5,20(sp)
     e70:	47d2                	lw	a5,20(sp)
     e72:	670d                	lui	a4,0x3
     e74:	d1070613          	addi	a2,a4,-752 # 2d10 <fontdata>
     e78:	97d6                	add	a5,a5,s5
     e7a:	97b2                	add	a5,a5,a2
     e7c:	0007cc83          	lbu	s9,0(a5)
                    ssd1306_drawPixel(x + (j * font_scale) + k, y + (i * font_scale) + l, col);
     e80:	001b8793          	addi	a5,s7,1
     e84:	8c26                	mv	s8,s1
        d = fontdata[(chr << 3) + i];
     e86:	4921                	li	s2,8
                    ssd1306_drawPixel(x + (j * font_scale) + k, y + (i * font_scale) + l, col);
     e88:	cc3e                	sw	a5,24(sp)
            if (d & 0x80)
     e8a:	007cd793          	srli	a5,s9,0x7
     e8e:	c63e                	sw	a5,12(sp)
     e90:	4981                	li	s3,0
                    ssd1306_drawPixel(x + (j * font_scale) + k, y + (i * font_scale) + l, col);
     e92:	4632                	lw	a2,12(sp)
     e94:	01898533          	add	a0,s3,s8
     e98:	85de                	mv	a1,s7
     e9a:	ce2a                	sw	a0,28(sp)
     e9c:	3b09                	jal	bae <ssd1306_drawPixel>
                for (uint8_t l = 0; l < font_scale; l++) {
     e9e:	4789                	li	a5,2
     ea0:	4572                	lw	a0,28(sp)
     ea2:	00fd9563          	bne	s11,a5,eac <ssd1306_drawstr_sz.constprop.0+0x8e>
                    ssd1306_drawPixel(x + (j * font_scale) + k, y + (i * font_scale) + l, col);
     ea6:	4632                	lw	a2,12(sp)
     ea8:	45e2                	lw	a1,24(sp)
     eaa:	3311                	jal	bae <ssd1306_drawPixel>
     eac:	00198613          	addi	a2,s3,1
     eb0:	4985                	li	s3,1
            for (uint8_t k = 0; k < font_scale; k++) {
     eb2:	ff6660e3          	bltu	a2,s6,e92 <ssd1306_drawstr_sz.constprop.0+0x74>
        for (j = 0; j < 8; j++)
     eb6:	197d                	addi	s2,s2,-1
     eb8:	0942                	slli	s2,s2,0x10
            d <<= 1;
     eba:	001c9793          	slli	a5,s9,0x1
        for (j = 0; j < 8; j++)
     ebe:	01095913          	srli	s2,s2,0x10
            d <<= 1;
     ec2:	0ff7fc93          	zext.b	s9,a5
        for (j = 0; j < 8; j++)
     ec6:	9c6e                	add	s8,s8,s11
     ec8:	fc0911e3          	bnez	s2,e8a <ssd1306_drawstr_sz.constprop.0+0x6c>
    for (i = 0; i < 8; i++)
     ecc:	0a85                	addi	s5,s5,1
     ece:	47a1                	li	a5,8
     ed0:	9bee                	add	s7,s7,s11
     ed2:	f8fa9fe3          	bne	s5,a5,e70 <ssd1306_drawstr_sz.constprop.0+0x52>
		x += 8 * font_size;
     ed6:	94d2                	add	s1,s1,s4
     ed8:	0ff4f493          	zext.b	s1,s1
		if(x>128 - 8 * font_size)
     edc:	f89470e3          	bgeu	s0,s1,e5c <ssd1306_drawstr_sz.constprop.0+0x3e>
			break;
	}
}
     ee0:	40f6                	lw	ra,92(sp)
     ee2:	4466                	lw	s0,88(sp)
     ee4:	44d6                	lw	s1,84(sp)
     ee6:	4946                	lw	s2,80(sp)
     ee8:	49b6                	lw	s3,76(sp)
     eea:	4a26                	lw	s4,72(sp)
     eec:	4a96                	lw	s5,68(sp)
     eee:	4b06                	lw	s6,64(sp)
     ef0:	5bf2                	lw	s7,60(sp)
     ef2:	5c62                	lw	s8,56(sp)
     ef4:	5cd2                	lw	s9,52(sp)
     ef6:	5d42                	lw	s10,48(sp)
     ef8:	5db2                	lw	s11,44(sp)
     efa:	6125                	addi	sp,sp,96
     efc:	8082                	ret

00000efe <internal_handle_input.constprop.0>:
	uint32_t dmd0 = *dmdata0;
     efe:	e00007b7          	lui	a5,0xe0000
     f02:	3407a783          	lw	a5,832(a5) # e0000340 <_eusrstack+0xbfffd340>
}
     f06:	8082                	ret

00000f08 <_write.constprop.0>:
WEAK int _write(int fd, const char *buf, int size)
     f08:	7139                	addi	sp,sp,-64
     f0a:	dc22                	sw	s0,56(sp)
	if( ( *DMDATA0 & 0xc0 ) == 0xc0 ) return 0;
     f0c:	e0000437          	lui	s0,0xe0000
     f10:	34040413          	addi	s0,s0,832 # e0000340 <_eusrstack+0xbfffd340>
     f14:	401c                	lw	a5,0(s0)
WEAK int _write(int fd, const char *buf, int size)
     f16:	de06                	sw	ra,60(sp)
     f18:	da26                	sw	s1,52(sp)
     f1a:	d84a                	sw	s2,48(sp)
     f1c:	d64e                	sw	s3,44(sp)
     f1e:	d452                	sw	s4,40(sp)
     f20:	d256                	sw	s5,36(sp)
     f22:	d05a                	sw	s6,32(sp)
     f24:	ce5e                	sw	s7,28(sp)
	if( ( *DMDATA0 & 0xc0 ) == 0xc0 ) return 0;
     f26:	0c07f793          	andi	a5,a5,192
     f2a:	0c000713          	li	a4,192
     f2e:	00e78b63          	beq	a5,a4,f44 <_write.constprop.0+0x3c>
	char buffer[4] = { 0 };
     f32:	c602                	sw	zero,12(sp)
     f34:	84ae                	mv	s1,a1
	if( size == 0 )
     f36:	e5d5                	bnez	a1,fe2 <_write.constprop.0+0xda>
		lastdmd = (*DMDATA0);
     f38:	401c                	lw	a5,0(s0)
		if( lastdmd && !(lastdmd&0x80) ) internal_handle_input( (uint32_t*)DMDATA0 );
     f3a:	c789                	beqz	a5,f44 <_write.constprop.0+0x3c>
     f3c:	0807f793          	andi	a5,a5,128
     f40:	e391                	bnez	a5,f44 <_write.constprop.0+0x3c>
     f42:	3f75                	jal	efe <internal_handle_input.constprop.0>
	if( ( *DMDATA0 & 0xc0 ) == 0xc0 ) return 0;
     f44:	4481                	li	s1,0
}
     f46:	50f2                	lw	ra,60(sp)
     f48:	5462                	lw	s0,56(sp)
     f4a:	5942                	lw	s2,48(sp)
     f4c:	59b2                	lw	s3,44(sp)
     f4e:	5a22                	lw	s4,40(sp)
     f50:	5a92                	lw	s5,36(sp)
     f52:	5b02                	lw	s6,32(sp)
     f54:	4bf2                	lw	s7,28(sp)
     f56:	8526                	mv	a0,s1
     f58:	54d2                	lw	s1,52(sp)
     f5a:	6121                	addi	sp,sp,64
     f5c:	8082                	ret
		int tosend = size - place;
     f5e:	412489b3          	sub	s3,s1,s2
		if( tosend > 7 ) tosend = 7;
     f62:	013b5363          	bge	s6,s3,f68 <_write.constprop.0+0x60>
     f66:	499d                	li	s3,7
     f68:	001007b7          	lui	a5,0x100
     f6c:	0785                	addi	a5,a5,1 # 100001 <firmware.c.e6ea786d+0xfc21a>
		while( ( lastdmd = (*DMDATA0) ) & 0x80 )
     f6e:	4018                	lw	a4,0(s0)
     f70:	08077693          	andi	a3,a4,128
     f74:	e6b1                	bnez	a3,fc0 <_write.constprop.0+0xb8>
		if( lastdmd ) internal_handle_input( (uint32_t*)DMDATA0 );
     f76:	c311                	beqz	a4,f7a <_write.constprop.0+0x72>
     f78:	3759                	jal	efe <internal_handle_input.constprop.0>
     f7a:	0078                	addi	a4,sp,12
		if( tosend > 7 ) tosend = 7;
     f7c:	478d                	li	a5,3
     f7e:	863a                	mv	a2,a4
		while( t < tosend )
     f80:	0537c763          	blt	a5,s3,fce <_write.constprop.0+0xc6>
		*DMDATA1 = *(uint32_t*)&(buffer[0]);
     f84:	47b2                	lw	a5,12(sp)
     f86:	012a0733          	add	a4,s4,s2
     f8a:	00faa023          	sw	a5,0(s5)
		t = 0;
     f8e:	4781                	li	a5,0
			buffer[t+1] = buf[t+place];
     f90:	00074583          	lbu	a1,0(a4)
     f94:	0785                	addi	a5,a5,1
     f96:	00f606b3          	add	a3,a2,a5
     f9a:	00b68023          	sb	a1,0(a3)
		while( t < tosend && t < 3 )
     f9e:	00f98563          	beq	s3,a5,fa8 <_write.constprop.0+0xa0>
     fa2:	0705                	addi	a4,a4,1
     fa4:	ff7796e3          	bne	a5,s7,f90 <_write.constprop.0+0x88>
		buffer[0] = 0x80 | (tosend + 4);
     fa8:	00498793          	addi	a5,s3,4
     fac:	f807e793          	ori	a5,a5,-128
     fb0:	00f10623          	sb	a5,12(sp)
		*DMDATA0 = *(uint32_t*)&(buffer[0]);
     fb4:	47b2                	lw	a5,12(sp)
		place += tosend;
     fb6:	994e                	add	s2,s2,s3
		*DMDATA0 = *(uint32_t*)&(buffer[0]);
     fb8:	c01c                	sw	a5,0(s0)
	while( place < size )
     fba:	fa9942e3          	blt	s2,s1,f5e <_write.constprop.0+0x56>
     fbe:	b761                	j	f46 <_write.constprop.0+0x3e>
			if( timeout-- == 0 )
     fc0:	17fd                	addi	a5,a5,-1
     fc2:	f7d5                	bnez	a5,f6e <_write.constprop.0+0x66>
				*DMDATA0 |= 0xc0;
     fc4:	401c                	lw	a5,0(s0)
     fc6:	0c07e793          	ori	a5,a5,192
     fca:	c01c                	sw	a5,0(s0)
				return 0;
     fcc:	bfa5                	j	f44 <_write.constprop.0+0x3c>
			buffer[t-3] = buf[t+place];
     fce:	00f906b3          	add	a3,s2,a5
     fd2:	96d2                	add	a3,a3,s4
     fd4:	0006c683          	lbu	a3,0(a3)
			t++;
     fd8:	0785                	addi	a5,a5,1
     fda:	0705                	addi	a4,a4,1
			buffer[t-3] = buf[t+place];
     fdc:	fed70fa3          	sb	a3,-1(a4)
     fe0:	b745                	j	f80 <_write.constprop.0+0x78>
		*DMDATA1 = *(uint32_t*)&(buffer[0]);
     fe2:	e0000ab7          	lui	s5,0xe0000
     fe6:	8a2a                	mv	s4,a0
     fe8:	4901                	li	s2,0
		if( tosend > 7 ) tosend = 7;
     fea:	4b1d                	li	s6,7
		*DMDATA1 = *(uint32_t*)&(buffer[0]);
     fec:	344a8a93          	addi	s5,s5,836 # e0000344 <_eusrstack+0xbfffd344>
		while( t < tosend && t < 3 )
     ff0:	4b8d                	li	s7,3
     ff2:	b7e1                	j	fba <_write.constprop.0+0xb2>

00000ff4 <__puts_uart>:
{
     ff4:	1141                	addi	sp,sp,-16
     ff6:	c422                	sw	s0,8(sp)
     ff8:	c606                	sw	ra,12(sp)
     ffa:	842e                	mv	s0,a1
	_write( 0, s, len );
     ffc:	3731                	jal	f08 <_write.constprop.0>
}
     ffe:	40b2                	lw	ra,12(sp)
    1000:	8522                	mv	a0,s0
    1002:	4422                	lw	s0,8(sp)
    1004:	0141                	addi	sp,sp,16
    1006:	8082                	ret

00001008 <ssd1306_pkt_send.isra.0>:
}

/*
 * packet send for blocking polled operation via spi
 */
uint8_t ssd1306_pkt_send(const uint8_t *data, int sz, uint8_t cmd)
    1008:	400017b7          	lui	a5,0x40001
    100c:	0ac78793          	addi	a5,a5,172 # 400010ac <_eusrstack+0x1fffe0ac>
    1010:	40000713          	li	a4,1024
{
	if(cmd)
    1014:	ca1d                	beqz	a2,104a <ssd1306_pkt_send.isra.0+0x42>
	{
		funDigitalWrite( SSD1306_DC_PIN, FUN_LOW );
    1016:	c398                	sw	a4,0(a5)
	else
	{
		funDigitalWrite( SSD1306_DC_PIN, FUN_HIGH );
	}

	funDigitalWrite( SSD1306_CS_PIN, FUN_LOW );
    1018:	4741                	li	a4,16
    101a:	c398                	sw	a4,0(a5)
			funDigitalWrite( SSD1306_SCK_PIN, FUN_HIGH );      ADD_N_NOPS(1)
			c<<=1;
		} while( --i );

#elif defined( CH5xx )
		while(! (R8_SPI0_INT_FLAG & RB_SPI_FREE) );
    101c:	400047b7          	lui	a5,0x40004
		R8_SPI0_BUFFER = *data++;
    1020:	40004737          	lui	a4,0x40004
    1024:	95aa                	add	a1,a1,a0
		while(! (R8_SPI0_INT_FLAG & RB_SPI_FREE) );
    1026:	0799                	addi	a5,a5,6 # 40004006 <_eusrstack+0x20001006>
		R8_SPI0_BUFFER = *data++;
    1028:	0711                	addi	a4,a4,4 # 40004004 <_eusrstack+0x20001004>
	while(sz--)
    102a:	02b51563          	bne	a0,a1,1054 <ssd1306_pkt_send.isra.0+0x4c>
	
	// wait for not busy before exiting
#if SSD1306_SOFT_SPI
	// Nothing needed here.
#elif defined( CH5xx )
	while( !(R8_SPI0_INT_FLAG & RB_SPI_FREE)) { }
    102e:	40004737          	lui	a4,0x40004
    1032:	0719                	addi	a4,a4,6 # 40004006 <_eusrstack+0x20001006>
    1034:	00074783          	lbu	a5,0(a4)
    1038:	0407f793          	andi	a5,a5,64
    103c:	dfe5                	beqz	a5,1034 <ssd1306_pkt_send.isra.0+0x2c>
#else
	while(SPI1->STATR & SPI_STATR_BSY) { }
#endif

	funDigitalWrite( SSD1306_CS_PIN, FUN_HIGH );
    103e:	400017b7          	lui	a5,0x40001
    1042:	4741                	li	a4,16
    1044:	0ae7ac23          	sw	a4,184(a5) # 400010b8 <_eusrstack+0x1fffe0b8>
	
	// we're happy
	return 0;
}
    1048:	8082                	ret
		funDigitalWrite( SSD1306_DC_PIN, FUN_HIGH );
    104a:	400016b7          	lui	a3,0x40001
    104e:	0ae6ac23          	sw	a4,184(a3) # 400010b8 <_eusrstack+0x1fffe0b8>
    1052:	b7d9                	j	1018 <ssd1306_pkt_send.isra.0+0x10>
		while(! (R8_SPI0_INT_FLAG & RB_SPI_FREE) );
    1054:	0007c683          	lbu	a3,0(a5)
    1058:	0406f693          	andi	a3,a3,64
    105c:	dee5                	beqz	a3,1054 <ssd1306_pkt_send.isra.0+0x4c>
		R8_SPI0_BUFFER = *data++;
    105e:	00054683          	lbu	a3,0(a0)
    1062:	0505                	addi	a0,a0,1
    1064:	00d70023          	sb	a3,0(a4)
    1068:	b7c9                	j	102a <ssd1306_pkt_send.isra.0+0x22>

0000106a <ssd1306_cmd.isra.0>:
uint8_t ssd1306_cmd(uint8_t cmd)
    106a:	1101                	addi	sp,sp,-32
	return ssd1306_pkt_send(&cmd, 1, 1);
    106c:	4605                	li	a2,1
uint8_t ssd1306_cmd(uint8_t cmd)
    106e:	00a107a3          	sb	a0,15(sp)
	return ssd1306_pkt_send(&cmd, 1, 1);
    1072:	85b2                	mv	a1,a2
    1074:	00f10513          	addi	a0,sp,15
uint8_t ssd1306_cmd(uint8_t cmd)
    1078:	ce06                	sw	ra,28(sp)
	return ssd1306_pkt_send(&cmd, 1, 1);
    107a:	3779                	jal	1008 <ssd1306_pkt_send.isra.0>
}
    107c:	40f2                	lw	ra,28(sp)
    107e:	6105                	addi	sp,sp,32
    1080:	8082                	ret

00001082 <ssd1306_refresh>:
{
    1082:	1141                	addi	sp,sp,-16
    1084:	c422                	sw	s0,8(sp)
	ssd1306_cmd(SSD1306_MEMORYMODE); // vertical addressing mode.
    1086:	02000513          	li	a0,32
    108a:	20002437          	lui	s0,0x20002
{
    108e:	c226                	sw	s1,4(sp)
    1090:	c04a                	sw	s2,0(sp)
    1092:	c606                	sw	ra,12(sp)
    1094:	8b040413          	addi	s0,s0,-1872 # 200018b0 <ssd1306_buffer>
	ssd1306_cmd(SSD1306_MEMORYMODE); // vertical addressing mode.
    1098:	3fc9                	jal	106a <ssd1306_cmd.isra.0>
	for(i=0;i<SSD1306_H/8;i++)
    109a:	4481                	li	s1,0
		ssd1306_cmd( 0x10 | (0>>4) );
    109c:	4941                	li	s2,16
		ssd1306_cmd(0xb0 | i);
    109e:	fb04e513          	ori	a0,s1,-80
    10a2:	0ff57513          	zext.b	a0,a0
    10a6:	37d1                	jal	106a <ssd1306_cmd.isra.0>
		ssd1306_cmd( 0x00 | (0&0xf) ); 
    10a8:	4501                	li	a0,0
    10aa:	37c1                	jal	106a <ssd1306_cmd.isra.0>
		ssd1306_cmd( 0x10 | (0>>4) );
    10ac:	4541                	li	a0,16
    10ae:	3f75                	jal	106a <ssd1306_cmd.isra.0>
	return ssd1306_pkt_send(data, sz, 0);
    10b0:	8522                	mv	a0,s0
    10b2:	4601                	li	a2,0
    10b4:	02000593          	li	a1,32
    10b8:	3f81                	jal	1008 <ssd1306_pkt_send.isra.0>
    10ba:	02000593          	li	a1,32
    10be:	00b40533          	add	a0,s0,a1
    10c2:	4601                	li	a2,0
    10c4:	3791                	jal	1008 <ssd1306_pkt_send.isra.0>
    10c6:	04040513          	addi	a0,s0,64
    10ca:	4601                	li	a2,0
    10cc:	02000593          	li	a1,32
	for(i=0;i<SSD1306_H/8;i++)
    10d0:	0485                	addi	s1,s1,1
	return ssd1306_pkt_send(data, sz, 0);
    10d2:	3f1d                	jal	1008 <ssd1306_pkt_send.isra.0>
	for(i=0;i<SSD1306_H/8;i++)
    10d4:	04c2                	slli	s1,s1,0x10
	return ssd1306_pkt_send(data, sz, 0);
    10d6:	06040513          	addi	a0,s0,96
    10da:	4601                	li	a2,0
    10dc:	02000593          	li	a1,32
	for(i=0;i<SSD1306_H/8;i++)
    10e0:	80c1                	srli	s1,s1,0x10
	return ssd1306_pkt_send(data, sz, 0);
    10e2:	371d                	jal	1008 <ssd1306_pkt_send.isra.0>
	for(i=0;i<SSD1306_H/8;i++)
    10e4:	08040413          	addi	s0,s0,128
    10e8:	fb249be3          	bne	s1,s2,109e <ssd1306_refresh+0x1c>
}
    10ec:	40b2                	lw	ra,12(sp)
    10ee:	4422                	lw	s0,8(sp)
    10f0:	4492                	lw	s1,4(sp)
    10f2:	4902                	lw	s2,0(sp)
    10f4:	0141                	addi	sp,sp,16
    10f6:	8082                	ret

000010f8 <funPinMode.constprop.0>:
		*(&R32_PA_PD_DRV + OFFSET_FOR_GPIOB(pin)) |= (pin & ~PB);
    10f8:	400017b7          	lui	a5,0x40001
    10fc:	0b478793          	addi	a5,a5,180 # 400010b4 <_eusrstack+0x1fffe0b4>
    1100:	4398                	lw	a4,0(a5)
    1102:	8f49                	or	a4,a4,a0
    1104:	c398                	sw	a4,0(a5)
		*(&R32_PA_DIR + OFFSET_FOR_GPIOB(pin))    |= (pin & ~PB);
    1106:	400017b7          	lui	a5,0x40001
    110a:	0a078793          	addi	a5,a5,160 # 400010a0 <_eusrstack+0x1fffe0a0>
    110e:	4398                	lw	a4,0(a5)
    1110:	8d59                	or	a0,a0,a4
    1112:	c388                	sw	a0,0(a5)
}
    1114:	8082                	ret

00001116 <handle_reset>:
	asm volatile( "\n\
    1116:	20000197          	auipc	gp,0x20000
    111a:	c9618193          	addi	gp,gp,-874 # 20000dac <__global_pointer$>
    111e:	20002117          	auipc	sp,0x20002
    1122:	ee210113          	addi	sp,sp,-286 # 20003000 <_eusrstack>
	asm volatile(
    1126:	69418513          	addi	a0,gp,1684 # 20001440 <iSLERChannel>
    112a:	20001597          	auipc	a1,0x20001
    112e:	f8658593          	addi	a1,a1,-122 # 200020b0 <_ebss>
    1132:	00b57763          	bgeu	a0,a1,1140 <handle_reset+0x2a>
    1136:	00052023          	sw	zero,0(a0)
    113a:	0511                	addi	a0,a0,4
    113c:	feb56de3          	bltu	a0,a1,1136 <handle_reset+0x20>
    1140:	09000513          	li	a0,144
    1144:	1ffff597          	auipc	a1,0x1ffff
    1148:	ebc58593          	addi	a1,a1,-324 # 20000000 <EventRelease>
    114c:	20000617          	auipc	a2,0x20000
    1150:	86460613          	addi	a2,a2,-1948 # 200009b0 <_rand_lfsr>
    1154:	00c5fa63          	bgeu	a1,a2,1168 <handle_reset+0x52>
    1158:	00052283          	lw	t0,0(a0)
    115c:	0055a023          	sw	t0,0(a1)
    1160:	0511                	addi	a0,a0,4
    1162:	0591                	addi	a1,a1,4
    1164:	fec5eae3          	bltu	a1,a2,1158 <handle_reset+0x42>
    1168:	00002517          	auipc	a0,0x2
    116c:	52450513          	addi	a0,a0,1316 # 368c <_data_lma>
    1170:	c0418593          	addi	a1,gp,-1020 # 200009b0 <_rand_lfsr>
    1174:	69018613          	addi	a2,gp,1680 # 2000143c <_edata>
    1178:	00c58a63          	beq	a1,a2,118c <handle_reset+0x76>
    117c:	00052283          	lw	t0,0(a0)
    1180:	0055a023          	sw	t0,0(a1)
    1184:	0511                	addi	a0,a0,4
    1186:	0591                	addi	a1,a1,4
    1188:	fec5eae3          	bltu	a1,a2,117c <handle_reset+0x66>
	asm volatile(
    118c:	00000793          	li	a5,0
    1190:	42fd                	li	t0,31
    1192:	bc029073          	csrw	0xbc0,t0
    1196:	6289                	lui	t0,0x2
    1198:	88828293          	addi	t0,t0,-1912 # 1888 <SystemInit+0x3c>
    119c:	3002a073          	csrs	mstatus,t0
    11a0:	fffff297          	auipc	t0,0xfffff
    11a4:	e6028293          	addi	t0,t0,-416 # 0 <InterruptVector>
    11a8:	0032e293          	ori	t0,t0,3
    11ac:	30529073          	csrw	mtvec,t0
	SysTick->CTLR = 5;
    11b0:	e000f7b7          	lui	a5,0xe000f
    11b4:	4715                	li	a4,5
    11b6:	c398                	sw	a4,0(a5)
	asm volatile(
    11b8:	6789                	lui	a5,0x2
    11ba:	bba78793          	addi	a5,a5,-1094 # 1bba <main>
    11be:	34179073          	csrw	mepc,a5
    11c2:	30200073          	mret

000011c6 <ADC1_2_IRQHandler>:
	asm volatile( "1: j 1b" );
    11c6:	a001                	j	11c6 <ADC1_2_IRQHandler>

000011c8 <strlen>:
	for (; *s; s++);
    11c8:	87aa                	mv	a5,a0
    11ca:	0007c703          	lbu	a4,0(a5)
    11ce:	e701                	bnez	a4,11d6 <strlen+0xe>
}
    11d0:	40a78533          	sub	a0,a5,a0
    11d4:	8082                	ret
	for (; *s; s++);
    11d6:	0785                	addi	a5,a5,1
    11d8:	bfcd                	j	11ca <strlen+0x2>

000011da <mini_vpprintf>:
{
    11da:	7175                	addi	sp,sp,-144
    11dc:	c522                	sw	s0,136(sp)
    11de:	d2e6                	sw	s9,100(sp)
    11e0:	c706                	sw	ra,140(sp)
    11e2:	c326                	sw	s1,132(sp)
    11e4:	c14a                	sw	s2,128(sp)
    11e6:	dece                	sw	s3,124(sp)
    11e8:	dcd2                	sw	s4,120(sp)
    11ea:	dad6                	sw	s5,116(sp)
    11ec:	d8da                	sw	s6,112(sp)
    11ee:	d6de                	sw	s7,108(sp)
    11f0:	d4e2                	sw	s8,104(sp)
    11f2:	d0ea                	sw	s10,96(sp)
    11f4:	ceee                	sw	s11,92(sp)
    11f6:	8432                	mv	s0,a2
    11f8:	8cb6                	mv	s9,a3
	if(puts == (void*)0) {
    11fa:	e139                	bnez	a0,1240 <mini_vpprintf+0x66>
		puts = _puts; buf = (void*)0;
    11fc:	6485                	lui	s1,0x1
    11fe:	4901                	li	s2,0
    1200:	aca48493          	addi	s1,s1,-1334 # aca <_puts>
	int n = 0;
    1204:	4981                	li	s3,0
		if (ch!='%') {
    1206:	02500a93          	li	s5,37
			if (ch == '0') pad_char = '0';
    120a:	03000a13          	li	s4,48
			while (ch >= '0' && ch <= '9') {
    120e:	4b25                	li	s6,9
				pad_to = pad_to * 10 + (ch - '0');
    1210:	4ba9                	li	s7,10
	while ((ch=*(fmt++))) {
    1212:	00044783          	lbu	a5,0(s0)
    1216:	00140d13          	addi	s10,s0,1
    121a:	00f10fa3          	sb	a5,31(sp)
    121e:	e785                	bnez	a5,1246 <mini_vpprintf+0x6c>
}
    1220:	40ba                	lw	ra,140(sp)
    1222:	442a                	lw	s0,136(sp)
    1224:	449a                	lw	s1,132(sp)
    1226:	490a                	lw	s2,128(sp)
    1228:	5a66                	lw	s4,120(sp)
    122a:	5ad6                	lw	s5,116(sp)
    122c:	5b46                	lw	s6,112(sp)
    122e:	5bb6                	lw	s7,108(sp)
    1230:	5c26                	lw	s8,104(sp)
    1232:	5c96                	lw	s9,100(sp)
    1234:	5d06                	lw	s10,96(sp)
    1236:	4df6                	lw	s11,92(sp)
    1238:	854e                	mv	a0,s3
    123a:	59f6                	lw	s3,124(sp)
    123c:	6149                	addi	sp,sp,144
    123e:	8082                	ret
    1240:	84aa                	mv	s1,a0
    1242:	892e                	mv	s2,a1
    1244:	b7c1                	j	1204 <mini_vpprintf+0x2a>
		if (ch!='%') {
    1246:	01578c63          	beq	a5,s5,125e <mini_vpprintf+0x84>
			len = puts(&ch, len, buf);
    124a:	864a                	mv	a2,s2
    124c:	4585                	li	a1,1
    124e:	01f10513          	addi	a0,sp,31
    1252:	9482                	jalr	s1
    1254:	8c66                	mv	s8,s9
	while ((ch=*(fmt++))) {
    1256:	846a                	mv	s0,s10
		n = n + len;
    1258:	99aa                	add	s3,s3,a0
    125a:	8ce2                	mv	s9,s8
    125c:	bf5d                	j	1212 <mini_vpprintf+0x38>
			ch=*(fmt++);
    125e:	00144703          	lbu	a4,1(s0)
    1262:	00240793          	addi	a5,s0,2
			if (ch == '0') pad_char = '0';
    1266:	8d52                	mv	s10,s4
			ch=*(fmt++);
    1268:	00e10fa3          	sb	a4,31(sp)
			if (ch == '0') pad_char = '0';
    126c:	07471e63          	bne	a4,s4,12e8 <mini_vpprintf+0x10e>
				ch=*(fmt++);
    1270:	843e                	mv	s0,a5
    1272:	4681                	li	a3,0
    1274:	4781                	li	a5,0
    1276:	a801                	j	1286 <mini_vpprintf+0xac>
				pad_to = pad_to * 10 + (ch - '0');
    1278:	037787b3          	mul	a5,a5,s7
				ch=*(fmt++);
    127c:	00044703          	lbu	a4,0(s0)
    1280:	0405                	addi	s0,s0,1
    1282:	4685                	li	a3,1
				pad_to = pad_to * 10 + (ch - '0');
    1284:	97b2                	add	a5,a5,a2
			while (ch >= '0' && ch <= '9') {
    1286:	fd070613          	addi	a2,a4,-48
    128a:	0ff67593          	zext.b	a1,a2
    128e:	febb75e3          	bgeu	s6,a1,1278 <mini_vpprintf+0x9e>
    1292:	c299                	beqz	a3,1298 <mini_vpprintf+0xbe>
    1294:	00e10fa3          	sb	a4,31(sp)
			if(pad_to > (signed int) sizeof(bf)) {
    1298:	46e1                	li	a3,24
    129a:	8dbe                	mv	s11,a5
    129c:	00f6d363          	bge	a3,a5,12a2 <mini_vpprintf+0xc8>
    12a0:	8db6                	mv	s11,a3
			if (ch == 'l') {
    12a2:	06c00693          	li	a3,108
			char l = 0;
    12a6:	4601                	li	a2,0
			if (ch == 'l') {
    12a8:	00d71863          	bne	a4,a3,12b8 <mini_vpprintf+0xde>
				ch=*(fmt++);
    12ac:	00044703          	lbu	a4,0(s0)
				l = 1;
    12b0:	4605                	li	a2,1
				ch=*(fmt++);
    12b2:	0405                	addi	s0,s0,1
    12b4:	00e10fa3          	sb	a4,31(sp)
			switch (ch) {
    12b8:	01f14683          	lbu	a3,31(sp)
    12bc:	06400713          	li	a4,100
    12c0:	06e68363          	beq	a3,a4,1326 <mini_vpprintf+0x14c>
    12c4:	02d76563          	bltu	a4,a3,12ee <mini_vpprintf+0x114>
    12c8:	05800793          	li	a5,88
    12cc:	0af68063          	beq	a3,a5,136c <mini_vpprintf+0x192>
    12d0:	06300793          	li	a5,99
    12d4:	0af68e63          	beq	a3,a5,1390 <mini_vpprintf+0x1b6>
    12d8:	d6a1                	beqz	a3,1220 <mini_vpprintf+0x46>
					len = puts(&ch, len, buf);
    12da:	864a                	mv	a2,s2
    12dc:	4585                	li	a1,1
    12de:	01f10513          	addi	a0,sp,31
    12e2:	9482                	jalr	s1
					break;
    12e4:	8c66                	mv	s8,s9
    12e6:	bf8d                	j	1258 <mini_vpprintf+0x7e>
			char pad_char = ' ';
    12e8:	02000d13          	li	s10,32
    12ec:	b751                	j	1270 <mini_vpprintf+0x96>
			switch (ch) {
    12ee:	07500713          	li	a4,117
    12f2:	02e68a63          	beq	a3,a4,1326 <mini_vpprintf+0x14c>
    12f6:	07800713          	li	a4,120
    12fa:	06e68963          	beq	a3,a4,136c <mini_vpprintf+0x192>
    12fe:	07300713          	li	a4,115
    1302:	fce69ce3          	bne	a3,a4,12da <mini_vpprintf+0x100>
					ptr = va_arg(va, char*);
    1306:	004c8c13          	addi	s8,s9,4
    130a:	000cac83          	lw	s9,0(s9)
    130e:	c63e                	sw	a5,12(sp)
					len = mini_strlen(ptr);
    1310:	8566                	mv	a0,s9
    1312:	3d5d                	jal	11c8 <strlen>
					if (pad_to > 0) {
    1314:	47b2                	lw	a5,12(sp)
					len = mini_strlen(ptr);
    1316:	85aa                	mv	a1,a0
					if (pad_to > 0) {
    1318:	08f05963          	blez	a5,13aa <mini_vpprintf+0x1d0>
						len = mini_pad(ptr, len, pad_char, pad_to, bf);
    131c:	1838                	addi	a4,sp,56
    131e:	86ee                	mv	a3,s11
    1320:	866a                	mv	a2,s10
    1322:	8566                	mv	a0,s9
    1324:	a025                	j	134c <mini_vpprintf+0x172>
						len = mini_itoa(va_arg(va, unsigned long), 10, 0, (ch=='u'), bf2);
    1326:	004c8c13          	addi	s8,s9,4
					if(l) {
    132a:	ca05                	beqz	a2,135a <mini_vpprintf+0x180>
						len = mini_itoa(va_arg(va, unsigned long), 10, 0, (ch=='u'), bf2);
    132c:	f8b68693          	addi	a3,a3,-117
    1330:	1018                	addi	a4,sp,32
    1332:	0016b693          	seqz	a3,a3
    1336:	000ca503          	lw	a0,0(s9)
    133a:	4601                	li	a2,0
    133c:	45a9                	li	a1,10
    133e:	fe0ff0ef          	jal	b1e <mini_itoa.part.0>
					len = mini_pad(bf2, len, pad_char, pad_to, bf);
    1342:	1838                	addi	a4,sp,56
    1344:	86ee                	mv	a3,s11
    1346:	866a                	mv	a2,s10
    1348:	85aa                	mv	a1,a0
					len = mini_pad(bf2, len, pad_char, pad_to, bf);
    134a:	1008                	addi	a0,sp,32
    134c:	ef4ff0ef          	jal	a40 <mini_pad>
    1350:	85aa                	mv	a1,a0
					len = puts(bf, len, buf);
    1352:	864a                	mv	a2,s2
    1354:	1828                	addi	a0,sp,56
    1356:	9482                	jalr	s1
					break;
    1358:	b701                	j	1258 <mini_vpprintf+0x7e>
						if(ch == 'u') {
    135a:	07500793          	li	a5,117
    135e:	1018                	addi	a4,sp,32
    1360:	00f69463          	bne	a3,a5,1368 <mini_vpprintf+0x18e>
	if (radix > 16)
    1364:	4685                	li	a3,1
    1366:	bfc1                	j	1336 <mini_vpprintf+0x15c>
    1368:	4681                	li	a3,0
    136a:	b7f1                	j	1336 <mini_vpprintf+0x15c>
					if(l) {
    136c:	000ca503          	lw	a0,0(s9)
						len = mini_itoa(va_arg(va, unsigned long), 16, (ch=='X'), 1, bf2);
    1370:	fa868613          	addi	a2,a3,-88
    1374:	1018                	addi	a4,sp,32
    1376:	4685                	li	a3,1
    1378:	00163613          	seqz	a2,a2
    137c:	45c1                	li	a1,16
    137e:	fa0ff0ef          	jal	b1e <mini_itoa.part.0>
						len = mini_itoa(va_arg(va, unsigned long), 10, 0, (ch=='u'), bf2);
    1382:	004c8c13          	addi	s8,s9,4
	if (radix > 16)
    1386:	85aa                	mv	a1,a0
					len = mini_pad(bf2, len, pad_char, pad_to, bf);
    1388:	1838                	addi	a4,sp,56
    138a:	86ee                	mv	a3,s11
    138c:	866a                	mv	a2,s10
    138e:	bf75                	j	134a <mini_vpprintf+0x170>
					ch = (char)(va_arg(va, int));
    1390:	000ca783          	lw	a5,0(s9)
    1394:	004c8c13          	addi	s8,s9,4
					len = mini_pad(&ch, 1, pad_char, pad_to, bf);
    1398:	1838                	addi	a4,sp,56
					ch = (char)(va_arg(va, int));
    139a:	00f10fa3          	sb	a5,31(sp)
					len = mini_pad(&ch, 1, pad_char, pad_to, bf);
    139e:	86ee                	mv	a3,s11
    13a0:	866a                	mv	a2,s10
    13a2:	4585                	li	a1,1
    13a4:	01f10513          	addi	a0,sp,31
    13a8:	b755                	j	134c <mini_vpprintf+0x172>
						len = puts(ptr, len, buf);
    13aa:	864a                	mv	a2,s2
    13ac:	8566                	mv	a0,s9
    13ae:	b765                	j	1356 <mini_vpprintf+0x17c>

000013b0 <printf>:
{
    13b0:	7139                	addi	sp,sp,-64
    13b2:	d432                	sw	a2,40(sp)
	int ret_status = mini_vpprintf(__puts_uart, 0, format, args);
    13b4:	862a                	mv	a2,a0
    13b6:	6505                	lui	a0,0x1
{
    13b8:	d22e                	sw	a1,36(sp)
    13ba:	d636                	sw	a3,44(sp)
	int ret_status = mini_vpprintf(__puts_uart, 0, format, args);
    13bc:	4581                	li	a1,0
	va_start( args, format );
    13be:	1054                	addi	a3,sp,36
	int ret_status = mini_vpprintf(__puts_uart, 0, format, args);
    13c0:	ff450513          	addi	a0,a0,-12 # ff4 <__puts_uart>
{
    13c4:	ce06                	sw	ra,28(sp)
    13c6:	d83a                	sw	a4,48(sp)
    13c8:	da3e                	sw	a5,52(sp)
    13ca:	dc42                	sw	a6,56(sp)
    13cc:	de46                	sw	a7,60(sp)
	va_start( args, format );
    13ce:	c636                	sw	a3,12(sp)
	int ret_status = mini_vpprintf(__puts_uart, 0, format, args);
    13d0:	3529                	jal	11da <mini_vpprintf>
}
    13d2:	40f2                	lw	ra,28(sp)
    13d4:	6121                	addi	sp,sp,64
    13d6:	8082                	ret

000013d8 <mini_vsnprintf>:
{
    13d8:	1101                	addi	sp,sp,-32
    13da:	ce06                	sw	ra,28(sp)
    13dc:	cc22                	sw	s0,24(sp)
	b.buffer = buffer;
    13de:	c22a                	sw	a0,4(sp)
	b.pbuffer = buffer;
    13e0:	c42a                	sw	a0,8(sp)
	b.buffer_len = buffer_len;
    13e2:	c62e                	sw	a1,12(sp)
	if(buffer_len == 0) buffer = (void*) 0;
    13e4:	c585                	beqz	a1,140c <mini_vsnprintf+0x34>
	int n = mini_vpprintf(_puts, (buffer != (void*)0)?&b:(void*)0, fmt, va);
    13e6:	00a037b3          	snez	a5,a0
    13ea:	004c                	addi	a1,sp,4
    13ec:	40f007b3          	neg	a5,a5
    13f0:	842a                	mv	s0,a0
    13f2:	8dfd                	and	a1,a1,a5
    13f4:	6505                	lui	a0,0x1
    13f6:	aca50513          	addi	a0,a0,-1334 # aca <_puts>
    13fa:	33c5                	jal	11da <mini_vpprintf>
	if(buffer == (void*) 0) {
    13fc:	c401                	beqz	s0,1404 <mini_vsnprintf+0x2c>
	return b.pbuffer - b.buffer;
    13fe:	4522                	lw	a0,8(sp)
    1400:	4792                	lw	a5,4(sp)
    1402:	8d1d                	sub	a0,a0,a5
}
    1404:	40f2                	lw	ra,28(sp)
    1406:	4462                	lw	s0,24(sp)
    1408:	6105                	addi	sp,sp,32
    140a:	8082                	ret
    140c:	4401                	li	s0,0
	int n = mini_vpprintf(_puts, (buffer != (void*)0)?&b:(void*)0, fmt, va);
    140e:	4581                	li	a1,0
    1410:	b7d5                	j	13f4 <mini_vsnprintf+0x1c>

00001412 <sprintf>:
{
    1412:	7139                	addi	sp,sp,-64
    1414:	d432                	sw	a2,40(sp)
	int ret = mini_vsnprintf( buffer, INT_MAX, format, args );
    1416:	862e                	mv	a2,a1
    1418:	800005b7          	lui	a1,0x80000
{
    141c:	d636                	sw	a3,44(sp)
	int ret = mini_vsnprintf( buffer, INT_MAX, format, args );
    141e:	15fd                	addi	a1,a1,-1 # 7fffffff <_eusrstack+0x5fffcfff>
	va_start( args, format );
    1420:	1034                	addi	a3,sp,40
{
    1422:	ce06                	sw	ra,28(sp)
    1424:	d83a                	sw	a4,48(sp)
    1426:	da3e                	sw	a5,52(sp)
    1428:	dc42                	sw	a6,56(sp)
    142a:	de46                	sw	a7,60(sp)
	va_start( args, format );
    142c:	c636                	sw	a3,12(sp)
	int ret = mini_vsnprintf( buffer, INT_MAX, format, args );
    142e:	376d                	jal	13d8 <mini_vsnprintf>
}
    1430:	40f2                	lw	ra,28(sp)
    1432:	6121                	addi	sp,sp,64
    1434:	8082                	ret

00001436 <memset>:
WEAK void *memset(void *dest, int c, size_t n) { unsigned char *s = dest; for (; n; n--, s++) *s = c; return dest; }
    1436:	962a                	add	a2,a2,a0
    1438:	87aa                	mv	a5,a0
    143a:	00c79363          	bne	a5,a2,1440 <memset+0xa>
    143e:	8082                	ret
    1440:	00b78023          	sb	a1,0(a5)
    1444:	0785                	addi	a5,a5,1
    1446:	bfd5                	j	143a <memset+0x4>

00001448 <ssd1306_setbuf.constprop.0>:
	memset(ssd1306_buffer, color ? 0xFF : 0x00, sizeof(ssd1306_buffer));
    1448:	6605                	lui	a2,0x1
    144a:	20002537          	lui	a0,0x20002
    144e:	80060613          	addi	a2,a2,-2048 # 800 <_einit+0x770>
    1452:	4581                	li	a1,0
    1454:	8b050513          	addi	a0,a0,-1872 # 200018b0 <ssd1306_buffer>
    1458:	bff9                	j	1436 <memset>

0000145a <ModePufferLoop>:
int getRandExtraPokes(){
	return (rand() % 7);
}

void ModePufferLoop( void * mode, uint32_t deltaTime, uint32_t * pressures, uint32_t clickedMask, uint32_t lastClickMask )
{
    145a:	7135                	addi	sp,sp,-160
    145c:	cd22                	sw	s0,152(sp)
    145e:	c74e                	sw	s3,140(sp)
    1460:	842a                	mv	s0,a0
	ModePuffer * m = (ModePuffer *)mode;
	uint32_t newClickedMask = (clickedMask & ( clickedMask ^ lastClickMask ) );
    1462:	fff74993          	not	s3,a4
{
    1466:	cb26                	sw	s1,148(sp)
    1468:	c94a                	sw	s2,144(sp)
    146a:	c15a                	sw	s6,128(sp)
    146c:	cf06                	sw	ra,156(sp)
    146e:	c552                	sw	s4,136(sp)
    1470:	c356                	sw	s5,132(sp)
    1472:	892e                	mv	s2,a1
	uint32_t newClickedMask = (clickedMask & ( clickedMask ^ lastClickMask ) );
    1474:	00d9f9b3          	and	s3,s3,a3
    ssd1306_setbuf(0x00); // Clear screen
    1478:	3fc1                	jal	1448 <ssd1306_setbuf.constprop.0>

	if(m->curPoke < m->popNum){
    147a:	01a41b03          	lh	s6,26(s0)
    147e:	01841483          	lh	s1,24(s0)
    1482:	069b5263          	bge	s6,s1,14e6 <ModePufferLoop+0x8c>
		//Only update frame information if the game is still playing
		m->curTime += deltaTime;
    1486:	01042a83          	lw	s5,16(s0)
    148a:	485c                	lw	a5,20(s0)
		m->frameNum += (int)(m->curTime / TimePerTick);
    148c:	6615                	lui	a2,0x5
		m->curTime += deltaTime;
    148e:	9aca                	add	s5,s5,s2
    1490:	012ab933          	sltu	s2,s5,s2
    1494:	993e                	add	s2,s2,a5
		m->frameNum += (int)(m->curTime / TimePerTick);
    1496:	e2060613          	addi	a2,a2,-480 # 4e20 <firmware.c.e6ea786d+0x1039>
    149a:	4681                	li	a3,0
    149c:	8556                	mv	a0,s5
    149e:	85ca                	mv	a1,s2
    14a0:	5b9000ef          	jal	2258 <__divdi3>
    14a4:	00845a03          	lhu	s4,8(s0)
		m->curTime = m->curTime % TimePerTick;
    14a8:	6615                	lui	a2,0x5
    14aa:	e2060613          	addi	a2,a2,-480 # 4e20 <firmware.c.e6ea786d+0x1039>
		m->frameNum += (int)(m->curTime / TimePerTick);
    14ae:	9a2a                	add	s4,s4,a0
		m->curTime = m->curTime % TimePerTick;
    14b0:	4681                	li	a3,0
    14b2:	8556                	mv	a0,s5
    14b4:	85ca                	mv	a1,s2
    14b6:	184010ef          	jal	263a <__moddi3>
		m->frameNum += (int)(m->curTime / TimePerTick);
    14ba:	0a42                	slli	s4,s4,0x10
    14bc:	410a5a13          	srai	s4,s4,0x10
		m->curPoke += (int)(m->frameNum / TicksPerLoop);
    14c0:	02000793          	li	a5,32
    14c4:	02fa47b3          	div	a5,s4,a5
		m->curTime = m->curTime % TimePerTick;
    14c8:	c808                	sw	a0,16(s0)
    14ca:	c84c                	sw	a1,20(s0)
		m->curPoke += (int)(m->frameNum / TicksPerLoop);
    14cc:	97da                	add	a5,a5,s6
    14ce:	00f41d23          	sh	a5,26(s0)
		m->frameNum = m->frameNum % TicksPerLoop;
    14d2:	01fa7793          	andi	a5,s4,31
    14d6:	000a5663          	bgez	s4,14e2 <ModePufferLoop+0x88>
    14da:	17fd                	addi	a5,a5,-1
    14dc:	fe07e793          	ori	a5,a5,-32
    14e0:	0785                	addi	a5,a5,1
    14e2:	00f41423          	sh	a5,8(s0)
	}
    

	if(newClickedMask & 2){
    14e6:	0029f793          	andi	a5,s3,2
    14ea:	c791                	beqz	a5,14f6 <ModePufferLoop+0x9c>
		//Pressed the button
		m->curPoke++;
    14ec:	01a45783          	lhu	a5,26(s0)
    14f0:	0785                	addi	a5,a5,1
    14f2:	00f41d23          	sh	a5,26(s0)
	}
	if(newClickedMask & 4 && m->curPoke >= m->popNum){
    14f6:	0049f993          	andi	s3,s3,4
    14fa:	04098e63          	beqz	s3,1556 <ModePufferLoop+0xfc>
    14fe:	01a41783          	lh	a5,26(s0)
    1502:	0497ca63          	blt	a5,s1,1556 <ModePufferLoop+0xfc>
		m->curPoke = 0;
		m->frameNum = 0;
		m->curTime = 0;
    1506:	4781                	li	a5,0
    1508:	4801                	li	a6,0
    150a:	c81c                	sw	a5,16(s0)
		m->curPoke = 0;
    150c:	00041d23          	sh	zero,26(s0)
		m->frameNum = 0;
    1510:	00041423          	sh	zero,8(s0)
		m->curTime = 0;
    1514:	01042a23          	sw	a6,20(s0)
	#endif

	// If RANDOM_STRENGTH is level 2, generate a 32-bit output, using 32 random
	// bits from the LFSR
	#if RANDOM_STRENGTH == 2
	rand_out = _rand_gen_32b();
    1518:	899ff0ef          	jal	db0 <_rand_gen_32b>
	return (rand() % 15 + 4);
    151c:	47bd                	li	a5,15
    151e:	02f574b3          	remu	s1,a0,a5
		m->popNum = getNewPufferPokes();
    1522:	0491                	addi	s1,s1,4
    1524:	00941c23          	sh	s1,24(s0)
	}

    if(m->popNum == 0){
		ssd1306_drawstr_sz(0,0,NewGameText1,1,1);
		ssd1306_drawstr_sz(0,20,NewGameText2,1,1);
	}else if(m->curPoke >= m->popNum){
    1528:	01a41903          	lh	s2,26(s0)
    152c:	08994863          	blt	s2,s1,15bc <ModePufferLoop+0x162>
		ssd1306_drawstr_sz(0,0,GameOverText,1,1);
    1530:	658d                	lui	a1,0x3
    1532:	4605                	li	a2,1
    1534:	bf858593          	addi	a1,a1,-1032 # 2bf8 <__clzsi2+0x8c>
    1538:	4501                	li	a0,0
    153a:	30d5                	jal	e1e <ssd1306_drawstr_sz.constprop.0>
		ssd1306_drawstr_sz(0,20,NewGameText1,1,1);
    153c:	658d                	lui	a1,0x3
    153e:	4605                	li	a2,1
    1540:	bdc58593          	addi	a1,a1,-1060 # 2bdc <__clzsi2+0x70>
    1544:	4551                	li	a0,20
    1546:	38e1                	jal	e1e <ssd1306_drawstr_sz.constprop.0>
		ssd1306_drawstr_sz(0,40,NewGameText2,1,1);
    1548:	658d                	lui	a1,0x3
    154a:	4605                	li	a2,1
    154c:	bec58593          	addi	a1,a1,-1044 # 2bec <__clzsi2+0x80>
    1550:	02800513          	li	a0,40
    1554:	a831                	j	1570 <ModePufferLoop+0x116>
    if(m->popNum == 0){
    1556:	f8e9                	bnez	s1,1528 <ModePufferLoop+0xce>
		ssd1306_drawstr_sz(0,0,NewGameText1,1,1);
    1558:	658d                	lui	a1,0x3
    155a:	4605                	li	a2,1
    155c:	bdc58593          	addi	a1,a1,-1060 # 2bdc <__clzsi2+0x70>
    1560:	4501                	li	a0,0
    1562:	8bdff0ef          	jal	e1e <ssd1306_drawstr_sz.constprop.0>
		ssd1306_drawstr_sz(0,20,NewGameText2,1,1);
    1566:	658d                	lui	a1,0x3
    1568:	4605                	li	a2,1
    156a:	bec58593          	addi	a1,a1,-1044 # 2bec <__clzsi2+0x80>
    156e:	4551                	li	a0,20
		ssd1306_drawstr_sz(0,40,NewGameText2,1,1);
    1570:	8afff0ef          	jal	e1e <ssd1306_drawstr_sz.constprop.0>
	}
    
	char st[128];
	//sprintf( st, "%d", m->frameNum );
	//ssd1306_drawstr_sz(0, 60, st, 1, 2 );
	sprintf( st, "%d", m->curPoke );
    1574:	01a41603          	lh	a2,26(s0)
    1578:	648d                	lui	s1,0x3
    157a:	c4848593          	addi	a1,s1,-952 # 2c48 <__clzsi2+0xdc>
    157e:	850a                	mv	a0,sp
    1580:	3d49                	jal	1412 <sprintf>
	ssd1306_drawstr_sz(0, 80, st, 1, 2 );
    1582:	858a                	mv	a1,sp
    1584:	4609                	li	a2,2
    1586:	05000513          	li	a0,80
    158a:	895ff0ef          	jal	e1e <ssd1306_drawstr_sz.constprop.0>
	sprintf( st, "%d", m->popNum );
    158e:	01841603          	lh	a2,24(s0)
    1592:	c4848593          	addi	a1,s1,-952
    1596:	850a                	mv	a0,sp
    1598:	3dad                	jal	1412 <sprintf>
	ssd1306_drawstr_sz(0, 100, st, 1, 2 );
    159a:	858a                	mv	a1,sp
    159c:	4609                	li	a2,2
    159e:	06400513          	li	a0,100
    15a2:	87dff0ef          	jal	e1e <ssd1306_drawstr_sz.constprop.0>
	
	ssd1306_refresh();
    15a6:	3cf1                	jal	1082 <ssd1306_refresh>
}
    15a8:	40fa                	lw	ra,156(sp)
    15aa:	446a                	lw	s0,152(sp)
    15ac:	44da                	lw	s1,148(sp)
    15ae:	494a                	lw	s2,144(sp)
    15b0:	49ba                	lw	s3,140(sp)
    15b2:	4a2a                	lw	s4,136(sp)
    15b4:	4a9a                	lw	s5,132(sp)
    15b6:	4b0a                	lw	s6,128(sp)
    15b8:	610d                	addi	sp,sp,160
    15ba:	8082                	ret
    15bc:	ff4ff0ef          	jal	db0 <_rand_gen_32b>
	return (rand() % 7);
    15c0:	479d                	li	a5,7
    15c2:	02f57533          	remu	a0,a0,a5
		if(  (float)((m->curPoke + getRandExtraPokes()) / m->popNum)  >  0.9f  ){
    15c6:	954a                	add	a0,a0,s2
    15c8:	02954533          	div	a0,a0,s1
    15cc:	4c6010ef          	jal	2a92 <__floatsisf>
    15d0:	c0c1a583          	lw	a1,-1012(gp) # 200009b8 <_rand_lfsr+0x8>
    15d4:	424010ef          	jal	29f8 <__gesf2>
			RenderBSprite(&bubble, 32,32);
    15d8:	02000613          	li	a2,32
    15dc:	85b2                	mv	a1,a2
		if(  (float)((m->curPoke + getRandExtraPokes()) / m->popNum)  >  0.9f  ){
    15de:	00a05763          	blez	a0,15ec <ModePufferLoop+0x192>
			RenderBSprite(&bubble, 32,32);
    15e2:	58c18513          	addi	a0,gp,1420 # 20001338 <bubble>
			RenderBSprite(&fish1, 32, 32);
    15e6:	ef2ff0ef          	jal	cd8 <RenderBSprite>
    15ea:	b769                	j	1574 <ModePufferLoop+0x11a>
    15ec:	20001537          	lui	a0,0x20001
    15f0:	9c050513          	addi	a0,a0,-1600 # 200009c0 <fish1>
    15f4:	bfcd                	j	15e6 <ModePufferLoop+0x18c>

000015f6 <ModeMenuLoop>:

	int selectedEntry;
} ModeMenu;

void ModeMenuLoop( void * mode, uint32_t deltaTime, uint32_t * pressures, uint32_t clickedMask, uint32_t lastClickMask )
{
    15f6:	7135                	addi	sp,sp,-160
    15f8:	cd22                	sw	s0,152(sp)
    15fa:	843a                	mv	s0,a4
    15fc:	c94a                	sw	s2,144(sp)
    15fe:	c74e                	sw	s3,140(sp)
    1600:	8936                	mv	s2,a3
	ModeMenu *m  = (ModeMenu*)mode;
	ssd1306_setbuf(0x00); // Clear screen

	uint32_t newClickedMask = (clickedMask & ( clickedMask ^ lastClickMask ) );
    1602:	fff44413          	not	s0,s0
    1606:	698d                	lui	s3,0x3
{
    1608:	cb26                	sw	s1,148(sp)
    160a:	c552                	sw	s4,136(sp)
    160c:	c356                	sw	s5,132(sp)
    160e:	c15a                	sw	s6,128(sp)
    1610:	cf06                	sw	ra,156(sp)
    1612:	84aa                	mv	s1,a0
	uint32_t newClickedMask = (clickedMask & ( clickedMask ^ lastClickMask ) );
    1614:	01247433          	and	s0,s0,s2
	ssd1306_setbuf(0x00); // Clear screen
    1618:	3d05                	jal	1448 <ssd1306_setbuf.constprop.0>

	int i;
	for( i = 1; i < sizeof(gameModes)/sizeof(gameModes[0]); i++ )
    161a:	55498993          	addi	s3,s3,1364 # 3554 <gameModes>
    161e:	4905                	li	s2,1
	{
		// Draw stuff to screen
		char st[128];
		sprintf( st, "%c%s", m->selectedEntry == i ? '>':' ', gameModes[i] );
    1620:	6b0d                	lui	s6,0x3
		ssd1306_drawstr_sz(0, 20*(i-1), st, 1, 2 );
    1622:	4ad1                	li	s5,20
	for( i = 1; i < sizeof(gameModes)/sizeof(gameModes[0]); i++ )
    1624:	4a11                	li	s4,4
		sprintf( st, "%c%s", m->selectedEntry == i ? '>':' ', gameModes[i] );
    1626:	449c                	lw	a5,8(s1)
    1628:	02000613          	li	a2,32
    162c:	01279463          	bne	a5,s2,1634 <ModeMenuLoop+0x3e>
    1630:	03e00613          	li	a2,62
    1634:	0049a683          	lw	a3,4(s3)
    1638:	c04b0593          	addi	a1,s6,-1020 # 2c04 <__clzsi2+0x98>
    163c:	850a                	mv	a0,sp
    163e:	3bd1                	jal	1412 <sprintf>
		ssd1306_drawstr_sz(0, 20*(i-1), st, 1, 2 );
    1640:	03590533          	mul	a0,s2,s5
    1644:	4609                	li	a2,2
    1646:	858a                	mv	a1,sp
	for( i = 1; i < sizeof(gameModes)/sizeof(gameModes[0]); i++ )
    1648:	0905                	addi	s2,s2,1
    164a:	0991                	addi	s3,s3,4
		ssd1306_drawstr_sz(0, 20*(i-1), st, 1, 2 );
    164c:	1531                	addi	a0,a0,-20
    164e:	0fc57513          	andi	a0,a0,252
    1652:	fccff0ef          	jal	e1e <ssd1306_drawstr_sz.constprop.0>
	for( i = 1; i < sizeof(gameModes)/sizeof(gameModes[0]); i++ )
    1656:	fd4918e3          	bne	s2,s4,1626 <ModeMenuLoop+0x30>
	}

	int ent = m->selectedEntry;
	if( newClickedMask & 1 )
    165a:	00147713          	andi	a4,s0,1
	int ent = m->selectedEntry;
    165e:	449c                	lw	a5,8(s1)
	if( newClickedMask & 1 )
    1660:	c709                	beqz	a4,166a <ModeMenuLoop+0x74>
	{
		ent--;
    1662:	17fd                	addi	a5,a5,-1
		if( ent < 1 ) ent = 1;
    1664:	00f04363          	bgtz	a5,166a <ModeMenuLoop+0x74>
    1668:	4785                	li	a5,1
	}
	if( newClickedMask & 4 )
    166a:	00447713          	andi	a4,s0,4
    166e:	c711                	beqz	a4,167a <ModeMenuLoop+0x84>
	{
		ent++;
    1670:	0785                	addi	a5,a5,1
		if( ent >= sizeof(gameModes)/sizeof(gameModes[0]) ) ent = sizeof(gameModes)/sizeof(gameModes[0])-1;
    1672:	470d                	li	a4,3
    1674:	00f77363          	bgeu	a4,a5,167a <ModeMenuLoop+0x84>
    1678:	87ba                	mv	a5,a4
	}
	m->selectedEntry = ent;
    167a:	c49c                	sw	a5,8(s1)

	if( newClickedMask & 2 )
    167c:	8809                	andi	s0,s0,2
    167e:	c01d                	beqz	s0,16a4 <ModeMenuLoop+0xae>
} gameUnion;

// Add it to this list.
void SelectMode( int modeNumber )
{
	switch(modeNumber)
    1680:	4709                	li	a4,2
    1682:	6a418413          	addi	s0,gp,1700 # 20001450 <gameUnion>
    1686:	04e78463          	beq	a5,a4,16ce <ModeMenuLoop+0xd8>
    168a:	470d                	li	a4,3
    168c:	0ce78363          	beq	a5,a4,1752 <ModeMenuLoop+0x15c>
    1690:	4705                	li	a4,1
    1692:	02e78363          	beq	a5,a4,16b8 <ModeMenuLoop+0xc2>
	ssd1306_refresh();
}

void EnterMenuMode( ModeMenu * m )
{
	memset( m, 0, sizeof( *m ) );
    1696:	6a01a423          	sw	zero,1704(gp) # 20001454 <gameUnion+0x4>
	m->Update = ModeMenuLoop;
    169a:	6785                	lui	a5,0x1
    169c:	5f678793          	addi	a5,a5,1526 # 15f6 <ModeMenuLoop>
    16a0:	c01c                	sw	a5,0(s0)
	m->selectedEntry = 1;
    16a2:	c418                	sw	a4,8(s0)
}
    16a4:	446a                	lw	s0,152(sp)
    16a6:	40fa                	lw	ra,156(sp)
    16a8:	44da                	lw	s1,148(sp)
    16aa:	494a                	lw	s2,144(sp)
    16ac:	49ba                	lw	s3,140(sp)
    16ae:	4a2a                	lw	s4,136(sp)
    16b0:	4a9a                	lw	s5,132(sp)
    16b2:	4b0a                	lw	s6,128(sp)
    16b4:	610d                	addi	sp,sp,160
	ssd1306_refresh();
    16b6:	b2f1                	j	1082 <ssd1306_refresh>
}


void EnterExampleMode( ModeExample * m )
{
	memset( m, 0, sizeof(*m) );
    16b8:	6a01a623          	sw	zero,1708(gp) # 20001458 <gameUnion+0x8>
	m->Update = ModeExampleLoop;
    16bc:	6789                	lui	a5,0x2
    16be:	98e78793          	addi	a5,a5,-1650 # 198e <ModeExampleLoop>
    16c2:	c01c                	sw	a5,0(s0)
	m->WirelessRX = ModeExampleWirelessRX;
    16c4:	6789                	lui	a5,0x2
    16c6:	84a78793          	addi	a5,a5,-1974 # 184a <ModeExampleWirelessRX>

void EnterPufferMode( ModePuffer * m )
{
	memset( m, 0, sizeof(*m) );
	m->Update = ModePufferLoop;
	m->WirelessRX = ModePufferWirelessRX;
    16ca:	c05c                	sw	a5,4(s0)

    m->popNum = 0;
    m->curPoke = 0;
	m->curTime = 0;
	m->frameNum = 0;
}
    16cc:	bfe1                	j	16a4 <ModeMenuLoop+0xae>


void EnterTestMode( ModeTest * m )
{
	memset( m, 0, sizeof(*m) );
	m->Update = ModeTestLoop;
    16ce:	6789                	lui	a5,0x2
    16d0:	24c78793          	addi	a5,a5,588 # 224c <ModeTestLoop>
    16d4:	c01c                	sw	a5,0(s0)
	m->WirelessRX = ModeTestWirelessRX;
    16d6:	6785                	lui	a5,0x1
    16d8:	7ec78793          	addi	a5,a5,2028 # 17ec <ModeTestWirelessRX>
    16dc:	c05c                	sw	a5,4(s0)
	for( i = 0; i < 128; i++ )
    16de:	08000493          	li	s1,128
	ssd1306_setbuf(0x00); // Clear screen
    16e2:	339d                	jal	1448 <ssd1306_setbuf.constprop.0>
	for( i = 0; i < 128; i++ )
    16e4:	4401                	li	s0,0
		ssd1306_drawPixel(i, i, 1);
    16e6:	85a2                	mv	a1,s0
    16e8:	8522                	mv	a0,s0
    16ea:	4605                	li	a2,1
	for( i = 0; i < 128; i++ )
    16ec:	0405                	addi	s0,s0,1
		ssd1306_drawPixel(i, i, 1);
    16ee:	cc0ff0ef          	jal	bae <ssd1306_drawPixel>
	for( i = 0; i < 128; i++ )
    16f2:	fe941ae3          	bne	s0,s1,16e6 <ModeMenuLoop+0xf0>
	ssd1306_refresh();
    16f6:	3271                	jal	1082 <ssd1306_refresh>
	ssd1306_cmd(0xa8);
    16f8:	0a800513          	li	a0,168
    16fc:	32bd                	jal	106a <ssd1306_cmd.isra.0>
	ssd1306_cmd(0x0 );
    16fe:	4501                	li	a0,0
    1700:	32ad                	jal	106a <ssd1306_cmd.isra.0>
	ssd1306_cmd(0xD5);
    1702:	0d500513          	li	a0,213
    1706:	3295                	jal	106a <ssd1306_cmd.isra.0>
	ssd1306_cmd(0xf0);
    1708:	0f000513          	li	a0,240
    170c:	3ab9                	jal	106a <ssd1306_cmd.isra.0>
	ssd1306_cmd(0xc8);
    170e:	0c800513          	li	a0,200
    1712:	959ff0ef          	jal	106a <ssd1306_cmd.isra.0>
	ssd1306_cmd(0xa1);
    1716:	0a100513          	li	a0,161
    171a:	951ff0ef          	jal	106a <ssd1306_cmd.isra.0>
	ssd1306_cmd(0xD9);
    171e:	0d900513          	li	a0,217
    1722:	949ff0ef          	jal	106a <ssd1306_cmd.isra.0>
	ssd1306_cmd(0x11);
    1726:	4545                	li	a0,17
    1728:	943ff0ef          	jal	106a <ssd1306_cmd.isra.0>
	R8_SPI0_CLOCK_DIV = 3; 
    172c:	40004737          	lui	a4,0x40004
    1730:	468d                	li	a3,3
    1732:	00d701a3          	sb	a3,3(a4) # 40004003 <_eusrstack+0x20001003>
	R8_SPI0_CTRL_MOD &= ~RB_SPI_FIFO_DIR;
    1736:	00074783          	lbu	a5,0(a4)
    173a:	0ef7f793          	andi	a5,a5,239
    173e:	00f70023          	sb	a5,0(a4)
	R8_SPI0_CTRL_CFG |= RB_SPI_AUTO_IF | RB_SPI_DMA_ENABLE;
    1742:	87ba                	mv	a5,a4
    1744:	00174703          	lbu	a4,1(a4)
    1748:	01176713          	ori	a4,a4,17
    174c:	00e780a3          	sb	a4,1(a5)
}
    1750:	bf91                	j	16a4 <ModeMenuLoop+0xae>
	memset( m, 0, sizeof(*m) );
    1752:	4661                	li	a2,24
    1754:	4581                	li	a1,0
    1756:	6ac18513          	addi	a0,gp,1708 # 20001458 <gameUnion+0x8>
    175a:	39f1                	jal	1436 <memset>
	m->Update = ModePufferLoop;
    175c:	6785                	lui	a5,0x1
    175e:	45a78793          	addi	a5,a5,1114 # 145a <ModePufferLoop>
    1762:	c01c                	sw	a5,0(s0)
	m->WirelessRX = ModePufferWirelessRX;
    1764:	6785                	lui	a5,0x1
    1766:	dec78793          	addi	a5,a5,-532 # dec <ModePufferWirelessRX>
    176a:	b785                	j	16ca <ModeMenuLoop+0xd4>

0000176c <memcpy>:
	for (; n; n--) *d++ = *s++;
    176c:	4781                	li	a5,0
    176e:	00f61363          	bne	a2,a5,1774 <memcpy+0x8>
}
    1772:	8082                	ret
	for (; n; n--) *d++ = *s++;
    1774:	00f58733          	add	a4,a1,a5
    1778:	00074683          	lbu	a3,0(a4)
    177c:	00f50733          	add	a4,a0,a5
    1780:	0785                	addi	a5,a5,1
    1782:	00d70023          	sb	a3,0(a4)
    1786:	b7e5                	j	176e <memcpy+0x2>

00001788 <putchar>:
	if( ( *DMDATA0 & 0xc0 ) == 0xc0 ) return 0;
    1788:	e00007b7          	lui	a5,0xe0000
    178c:	34078793          	addi	a5,a5,832 # e0000340 <_eusrstack+0xbfffd340>
    1790:	4398                	lw	a4,0(a5)
    1792:	0c000693          	li	a3,192
    1796:	0c077713          	andi	a4,a4,192
    179a:	04d70763          	beq	a4,a3,17e8 <putchar+0x60>
{
    179e:	1141                	addi	sp,sp,-16
    17a0:	00100737          	lui	a4,0x100
    17a4:	c422                	sw	s0,8(sp)
    17a6:	c606                	sw	ra,12(sp)
    17a8:	842a                	mv	s0,a0
    17aa:	0705                	addi	a4,a4,1 # 100001 <firmware.c.e6ea786d+0xfc21a>
	while( ( lastdmd = (*DMDATA0) ) & 0x80 )
    17ac:	4394                	lw	a3,0(a5)
    17ae:	0806f613          	andi	a2,a3,128
    17b2:	e205                	bnez	a2,17d2 <putchar+0x4a>
	if( lastdmd ) internal_handle_input( (uint32_t*)DMDATA0 );
    17b4:	c299                	beqz	a3,17ba <putchar+0x32>
    17b6:	f48ff0ef          	jal	efe <internal_handle_input.constprop.0>
	*DMDATA0 = 0x85 | ((const char)c<<8);
    17ba:	00841793          	slli	a5,s0,0x8
    17be:	07c2                	slli	a5,a5,0x10
    17c0:	83c1                	srli	a5,a5,0x10
    17c2:	0857e793          	ori	a5,a5,133
    17c6:	e0000737          	lui	a4,0xe0000
    17ca:	34f72023          	sw	a5,832(a4) # e0000340 <_eusrstack+0xbfffd340>
    17ce:	4505                	li	a0,1
    17d0:	a801                	j	17e0 <putchar+0x58>
		if( timeout-- == 0 )
    17d2:	177d                	addi	a4,a4,-1
    17d4:	ff61                	bnez	a4,17ac <putchar+0x24>
			*DMDATA0 |= 0xc0;
    17d6:	4398                	lw	a4,0(a5)
	if( ( *DMDATA0 & 0xc0 ) == 0xc0 ) return 0;
    17d8:	4501                	li	a0,0
			*DMDATA0 |= 0xc0;
    17da:	0c076713          	ori	a4,a4,192
    17de:	c398                	sw	a4,0(a5)
}
    17e0:	40b2                	lw	ra,12(sp)
    17e2:	4422                	lw	s0,8(sp)
    17e4:	0141                	addi	sp,sp,16
    17e6:	8082                	ret
	if( ( *DMDATA0 & 0xc0 ) == 0xc0 ) return 0;
    17e8:	4501                	li	a0,0
}
    17ea:	8082                	ret

000017ec <ModeTestWirelessRX>:
{
    17ec:	7179                	addi	sp,sp,-48
    17ee:	d422                	sw	s0,40(sp)
    17f0:	d226                	sw	s1,36(sp)
    17f2:	d04a                	sw	s2,32(sp)
    17f4:	ce4e                	sw	s3,28(sp)
    17f6:	d606                	sw	ra,44(sp)
	printf( "%02x:%02x:%02x:%02x:%02x:%02x:%3d %d:", txmac[0], txmac[1], txmac[2], txmac[3], txmac[4], txmac[5], rssi, messageLength );
    17f8:	c032                	sw	a2,0(sp)
    17fa:	00554803          	lbu	a6,5(a0)
    17fe:	00454783          	lbu	a5,4(a0)
    1802:	00354703          	lbu	a4,3(a0)
    1806:	88b6                	mv	a7,a3
{
    1808:	892e                	mv	s2,a1
	printf( "%02x:%02x:%02x:%02x:%02x:%02x:%3d %d:", txmac[0], txmac[1], txmac[2], txmac[3], txmac[4], txmac[5], rssi, messageLength );
    180a:	00254683          	lbu	a3,2(a0)
    180e:	00054583          	lbu	a1,0(a0)
{
    1812:	8432                	mv	s0,a2
	printf( "%02x:%02x:%02x:%02x:%02x:%02x:%3d %d:", txmac[0], txmac[1], txmac[2], txmac[3], txmac[4], txmac[5], rssi, messageLength );
    1814:	00154603          	lbu	a2,1(a0)
    1818:	650d                	lui	a0,0x3
    181a:	c0c50513          	addi	a0,a0,-1012 # 2c0c <__clzsi2+0xa0>
    181e:	3e49                	jal	13b0 <printf>
	for( i = 0; i < messageLength; i++ )
    1820:	4481                	li	s1,0
		printf( "%02x ", message[i] );
    1822:	698d                	lui	s3,0x3
	for( i = 0; i < messageLength; i++ )
    1824:	0084ca63          	blt	s1,s0,1838 <ModeTestWirelessRX+0x4c>
}
    1828:	5422                	lw	s0,40(sp)
    182a:	50b2                	lw	ra,44(sp)
    182c:	5492                	lw	s1,36(sp)
    182e:	5902                	lw	s2,32(sp)
    1830:	49f2                	lw	s3,28(sp)
	printf( "\n" );
    1832:	4529                	li	a0,10
}
    1834:	6145                	addi	sp,sp,48
	printf( "\n" );
    1836:	bf89                	j	1788 <putchar>
		printf( "%02x ", message[i] );
    1838:	009907b3          	add	a5,s2,s1
    183c:	0007c583          	lbu	a1,0(a5)
    1840:	c3498513          	addi	a0,s3,-972 # 2c34 <__clzsi2+0xc8>
	for( i = 0; i < messageLength; i++ )
    1844:	0485                	addi	s1,s1,1
		printf( "%02x ", message[i] );
    1846:	36ad                	jal	13b0 <printf>
	for( i = 0; i < messageLength; i++ )
    1848:	bff1                	j	1824 <ModeTestWirelessRX+0x38>

0000184a <ModeExampleWirelessRX>:
void ModeExampleWirelessRX( uint8_t * txmac, uint8_t * message, int messageLength, int rssi )
    184a:	b74d                	j	17ec <ModeTestWirelessRX>

0000184c <SystemInit>:
	}
	else
	{
		if((sc & RB_CLK_SYS_MOD) == 0x40) // PLL div
		{
			SYS_SAFE_ACCESS(
    184c:	400017b7          	lui	a5,0x40001
    1850:	04078793          	addi	a5,a5,64 # 40001040 <_eusrstack+0x1fffe040>
    1854:	05700593          	li	a1,87
    1858:	00b78023          	sb	a1,0(a5)
    185c:	fa800613          	li	a2,-88
    1860:	00c78023          	sb	a2,0(a5)
    1864:	0001                	nop
    1866:	0001                	nop
    1868:	40001737          	lui	a4,0x40001
    186c:	00a74683          	lbu	a3,10(a4) # 4000100a <_eusrstack+0x1fffe00a>
    1870:	0106e693          	ori	a3,a3,16
    1874:	00d70523          	sb	a3,10(a4)
    1878:	40002737          	lui	a4,0x40002
    187c:	4685                	li	a3,1
    187e:	80d703a3          	sb	a3,-2041(a4) # 40001807 <_eusrstack+0x1fffe807>
    1882:	80574683          	lbu	a3,-2043(a4)
    1886:	0106e693          	ori	a3,a3,16
    188a:	80d702a3          	sb	a3,-2043(a4)
    188e:	00078023          	sb	zero,0(a5)
    1892:	0001                	nop
    1894:	0001                	nop
		{
			SYS_SAFE_ACCESS(
				R8_FLASH_CFG = (sc & 0x1F) ? 0x02 : 0x07;
			);
		}
		SYS_SAFE_ACCESS(
    1896:	00b78023          	sb	a1,0(a5)
    189a:	00c78023          	sb	a2,0(a5)
    189e:	0001                	nop
    18a0:	0001                	nop
    18a2:	40001737          	lui	a4,0x40001
    18a6:	04a00693          	li	a3,74
    18aa:	00d70423          	sb	a3,8(a4) # 40001008 <_eusrstack+0x1fffe008>
    18ae:	00078023          	sb	zero,0(a5)
    18b2:	0001                	nop
    18b4:	0001                	nop
	*DMDATA1 = 0x00;
    18b6:	e00007b7          	lui	a5,0xe0000
    18ba:	3407a223          	sw	zero,836(a5) # e0000344 <_eusrstack+0xbfffd344>
	*DMDATA0 = 0x80;
    18be:	08000713          	li	a4,128
    18c2:	34e7a023          	sw	a4,832(a5)
	SetupDebugPrintf();
#endif
#if defined(FUNCONF_SUPPORT_CONSTRUCTORS) && FUNCONF_SUPPORT_CONSTRUCTORS
	CallConstructors();
#endif
}
    18c6:	8082                	ret

000018c8 <LLE_IRQHandler>:
void LLE_IRQHandler() {
    18c8:	715d                	addi	sp,sp,-80
    18ca:	de22                	sw	s0,60(sp)
		rx_flag = LL->STATUS & 1;
    18cc:	4000c437          	lui	s0,0x4000c
    18d0:	20040413          	addi	s0,s0,512 # 4000c200 <_eusrstack+0x20009200>
void LLE_IRQHandler() {
    18d4:	dc26                	sw	s1,56(sp)
    18d6:	d23a                	sw	a4,36(sp)
		rx_flag = LL->STATUS & 1;
    18d8:	4404                	lw	s1,8(s0)
void LLE_IRQHandler() {
    18da:	d03e                	sw	a5,32(sp)
		LL->STATUS &= LL->INT_EN;
    18dc:	4458                	lw	a4,12(s0)
    18de:	441c                	lw	a5,8(s0)
void LLE_IRQHandler() {
    18e0:	da2a                	sw	a0,52(sp)
    18e2:	c686                	sw	ra,76(sp)
    18e4:	c496                	sw	t0,72(sp)
    18e6:	c29a                	sw	t1,68(sp)
    18e8:	c09e                	sw	t2,64(sp)
    18ea:	d82e                	sw	a1,48(sp)
    18ec:	d632                	sw	a2,44(sp)
    18ee:	d436                	sw	a3,40(sp)
    18f0:	ce42                	sw	a6,28(sp)
    18f2:	cc46                	sw	a7,24(sp)
    18f4:	ca72                	sw	t3,20(sp)
    18f6:	c876                	sw	t4,16(sp)
    18f8:	c67a                	sw	t5,12(sp)
    18fa:	c47e                	sw	t6,8(sp)
		LL->STATUS &= LL->INT_EN;
    18fc:	8ff9                	and	a5,a5,a4
		BB->CTRL_TX = (BB->CTRL_TX & 0xfffffffc) | 1;
    18fe:	4000c737          	lui	a4,0x4000c
		LL->STATUS &= LL->INT_EN;
    1902:	c41c                	sw	a5,8(s0)
		BB->CTRL_TX = (BB->CTRL_TX & 0xfffffffc) | 1;
    1904:	10070713          	addi	a4,a4,256 # 4000c100 <_eusrstack+0x20009100>
    1908:	5b5c                	lw	a5,52(a4)
	DevSetMode(0);
    190a:	4501                	li	a0,0
	if( rx_flag )
    190c:	8885                	andi	s1,s1,1
		BB->CTRL_TX = (BB->CTRL_TX & 0xfffffffc) | 1;
    190e:	9bf1                	andi	a5,a5,-4
    1910:	0017e793          	ori	a5,a5,1
    1914:	db5c                	sw	a5,52(a4)
	DevSetMode(0);
    1916:	ad4ff0ef          	jal	bea <DevSetMode>
	LL->CTRL_MOD &= CTRL_MOD_RFSTOP;
    191a:	483c                	lw	a5,80(s0)
    191c:	8ff7f793          	andi	a5,a5,-1793
    1920:	c83c                	sw	a5,80(s0)
	LL->LL0 |= 0x08;
    1922:	401c                	lw	a5,0(s0)
    1924:	0087e793          	ori	a5,a5,8
    1928:	c01c                	sw	a5,0(s0)
	if( rx_flag )
    192a:	cc8d                	beqz	s1,1964 <LLE_IRQHandler+0x9c>
	if( !iSLERCRCOK() ) return;
    192c:	1fffe097          	auipc	ra,0x1fffe
    1930:	708080e7          	jalr	1800(ra) # 20000034 <iSLERCRCOK>
    1934:	c905                	beqz	a0,1964 <LLE_IRQHandler+0x9c>



void ISLERCallback( uint8_t * txmac, uint8_t * message, int messageLength, int rssi )
{
	if( gameUnion.template.WirelessRX )
    1936:	6a418793          	addi	a5,gp,1700 # 20001450 <gameUnion>
    193a:	43c0                	lw	s0,4(a5)
    193c:	c405                	beqz	s0,1964 <LLE_IRQHandler+0x9c>
	int rssi = ReadRSSI();
    193e:	1fffe097          	auipc	ra,0x1fffe
    1942:	6de080e7          	jalr	1758(ra) # 2000001c <iSLERRSSI>
	int len = frame[0];
    1946:	200017b7          	lui	a5,0x20001
    194a:	4707c603          	lbu	a2,1136(a5) # 20001470 <LLE_BUF>
	int rssi = ReadRSSI();
    194e:	86aa                	mv	a3,a0
		gameUnion.template.WirelessRX( txmac, message, messageLength, rssi );
    1950:	200015b7          	lui	a1,0x20001
    1954:	20001537          	lui	a0,0x20001
    1958:	0611                	addi	a2,a2,4
    195a:	47a58593          	addi	a1,a1,1146 # 2000147a <LLE_BUF+0xa>
    195e:	47250513          	addi	a0,a0,1138 # 20001472 <LLE_BUF+0x2>
    1962:	9402                	jalr	s0
}
    1964:	5472                	lw	s0,60(sp)
    1966:	40b6                	lw	ra,76(sp)
    1968:	42a6                	lw	t0,72(sp)
    196a:	4316                	lw	t1,68(sp)
    196c:	4386                	lw	t2,64(sp)
    196e:	54e2                	lw	s1,56(sp)
    1970:	5552                	lw	a0,52(sp)
    1972:	55c2                	lw	a1,48(sp)
    1974:	5632                	lw	a2,44(sp)
    1976:	56a2                	lw	a3,40(sp)
    1978:	5712                	lw	a4,36(sp)
    197a:	5782                	lw	a5,32(sp)
    197c:	4872                	lw	a6,28(sp)
    197e:	48e2                	lw	a7,24(sp)
    1980:	4e52                	lw	t3,20(sp)
    1982:	4ec2                	lw	t4,16(sp)
    1984:	4f32                	lw	t5,12(sp)
    1986:	4fa2                	lw	t6,8(sp)
    1988:	6161                	addi	sp,sp,80
    198a:	30200073          	mret

0000198e <ModeExampleLoop>:
{
    198e:	7155                	addi	sp,sp,-208
    1990:	c786                	sw	ra,204(sp)
    1992:	c1ca                	sw	s2,192(sp)
    1994:	dd52                	sw	s4,184(sp)
    1996:	8932                	mv	s2,a2
    1998:	8a2a                	mv	s4,a0
    199a:	db56                	sw	s5,180(sp)
    199c:	d95a                	sw	s6,176(sp)
    199e:	d562                	sw	s8,168(sp)
    19a0:	d366                	sw	s9,164(sp)
    19a2:	c5a2                	sw	s0,200(sp)
    19a4:	c3a6                	sw	s1,196(sp)
    19a6:	df4e                	sw	s3,188(sp)
    19a8:	d75e                	sw	s7,172(sp)
	ssd1306_setbuf(0x00); // Clear screen
    19aa:	3c79                	jal	1448 <ssd1306_setbuf.constprop.0>
	sprintf( st, "%08x", (int)SysTick->CNT );
    19ac:	e000f7b7          	lui	a5,0xe000f
    19b0:	4790                	lw	a2,8(a5)
    19b2:	658d                	lui	a1,0x3
    19b4:	c3c58593          	addi	a1,a1,-964 # 2c3c <__clzsi2+0xd0>
    19b8:	1008                	addi	a0,sp,32
    19ba:	3ca1                	jal	1412 <sprintf>
	ssd1306_drawstr_sz(0, 0, st, 1, 2 );
    19bc:	4609                	li	a2,2
    19be:	100c                	addi	a1,sp,32
    19c0:	4501                	li	a0,0
    19c2:	c5cff0ef          	jal	e1e <ssd1306_drawstr_sz.constprop.0>
	sprintf( st, "%3d %d", (int)m->frameNumber, (int)pressures[3] );
    19c6:	00c92683          	lw	a3,12(s2)
    19ca:	008a2603          	lw	a2,8(s4)
    19ce:	658d                	lui	a1,0x3
    19d0:	c4458593          	addi	a1,a1,-956 # 2c44 <__clzsi2+0xd8>
    19d4:	1008                	addi	a0,sp,32
    19d6:	3c35                	jal	1412 <sprintf>
	ssd1306_drawstr_sz(0, 24, st, 1, 2 );
    19d8:	4609                	li	a2,2
    19da:	100c                	addi	a1,sp,32
    19dc:	4561                	li	a0,24
    19de:	c40ff0ef          	jal	e1e <ssd1306_drawstr_sz.constprop.0>
    19e2:	02000b13          	li	s6,32
    int err = 2 - 2 * radius;
    19e6:	4c05                	li	s8,1
        ssd1306_drawPixel(x + x_pos, y - y_pos, color);
    19e8:	05a00a93          	li	s5,90
	for( btn = 0; btn < 3; btn++ )
    19ec:	08000c93          	li	s9,128
		int p = pressures[btn]>>9;
    19f0:	00092403          	lw	s0,0(s2)
    int y_pos = 0;
    19f4:	4981                	li	s3,0
    19f6:	8025                	srli	s0,s0,0x9
    int x_pos = -radius;
    19f8:	408004b3          	neg	s1,s0
    int err = 2 - 2 * radius;
    19fc:	408c0433          	sub	s0,s8,s0
    1a00:	0406                	slli	s0,s0,0x1
        ssd1306_drawPixel(x - x_pos, y + y_pos, color);
    1a02:	409b0bb3          	sub	s7,s6,s1
    1a06:	05a98593          	addi	a1,s3,90
    1a0a:	4605                	li	a2,1
    1a0c:	855e                	mv	a0,s7
    1a0e:	c42e                	sw	a1,8(sp)
    1a10:	99eff0ef          	jal	bae <ssd1306_drawPixel>
        ssd1306_drawPixel(x + x_pos, y + y_pos, color);
    1a14:	45a2                	lw	a1,8(sp)
    1a16:	009b0533          	add	a0,s6,s1
    1a1a:	4605                	li	a2,1
    1a1c:	c62a                	sw	a0,12(sp)
    1a1e:	990ff0ef          	jal	bae <ssd1306_drawPixel>
        ssd1306_drawPixel(x + x_pos, y - y_pos, color);
    1a22:	4532                	lw	a0,12(sp)
    1a24:	413a85b3          	sub	a1,s5,s3
    1a28:	4605                	li	a2,1
    1a2a:	c42e                	sw	a1,8(sp)
    1a2c:	982ff0ef          	jal	bae <ssd1306_drawPixel>
        ssd1306_drawPixel(x - x_pos, y - y_pos, color);
    1a30:	45a2                	lw	a1,8(sp)
    1a32:	4605                	li	a2,1
    1a34:	855e                	mv	a0,s7
    1a36:	978ff0ef          	jal	bae <ssd1306_drawPixel>
        if (e2 <= y_pos) {
    1a3a:	0289c963          	blt	s3,s0,1a6c <ModeExampleLoop+0xde>
            err += ++y_pos * 2 + 1;
    1a3e:	0985                	addi	s3,s3,1
    1a40:	00199793          	slli	a5,s3,0x1
    1a44:	0785                	addi	a5,a5,1 # e000f001 <_eusrstack+0xc000c001>
            if(-x_pos == y_pos && e2 <= x_pos) {
    1a46:	40900733          	neg	a4,s1
            err += ++y_pos * 2 + 1;
    1a4a:	97a2                	add	a5,a5,s0
            if(-x_pos == y_pos && e2 <= x_pos) {
    1a4c:	00e99563          	bne	s3,a4,1a56 <ModeExampleLoop+0xc8>
    1a50:	0084c563          	blt	s1,s0,1a5a <ModeExampleLoop+0xcc>
              e2 = 0;
    1a54:	4401                	li	s0,0
        if (e2 > x_pos) {
    1a56:	0084d963          	bge	s1,s0,1a68 <ModeExampleLoop+0xda>
            err += ++x_pos * 2 + 1;
    1a5a:	0485                	addi	s1,s1,1
    1a5c:	00149713          	slli	a4,s1,0x1
    1a60:	0705                	addi	a4,a4,1
    1a62:	97ba                	add	a5,a5,a4
    } while (x_pos <= 0);
    1a64:	01848663          	beq	s1,s8,1a70 <ModeExampleLoop+0xe2>
    int y_pos = 0;
    1a68:	843e                	mv	s0,a5
    1a6a:	bf61                	j	1a02 <ModeExampleLoop+0x74>
    1a6c:	87a2                	mv	a5,s0
    1a6e:	b7e5                	j	1a56 <ModeExampleLoop+0xc8>
	for( btn = 0; btn < 3; btn++ )
    1a70:	020b0b13          	addi	s6,s6,32
    1a74:	0911                	addi	s2,s2,4
    1a76:	f79b1de3          	bne	s6,s9,19f0 <ModeExampleLoop+0x62>
	for( i = 0; i < 10; i++ )
    1a7a:	4401                	li	s0,0
		int x = (rand() % (128+80))-40;
    1a7c:	0d000493          	li	s1,208
	for( i = 0; i < 10; i++ )
    1a80:	4929                	li	s2,10
    1a82:	b2eff0ef          	jal	db0 <_rand_gen_32b>
		int x = (rand() % (128+80))-40;
    1a86:	029575b3          	remu	a1,a0,s1
    1a8a:	fd858593          	addi	a1,a1,-40
    1a8e:	c42e                	sw	a1,8(sp)
    1a90:	b20ff0ef          	jal	db0 <_rand_gen_32b>
		int y = (rand() % (128+80))-40;
    1a94:	02957633          	remu	a2,a0,s1
		RenderBSprite( (i&1)?&bubble:&bubblemirror, x, y );
    1a98:	00147793          	andi	a5,s0,1
    1a9c:	45a2                	lw	a1,8(sp)
    1a9e:	48818513          	addi	a0,gp,1160 # 20001234 <bubblemirror>
		int y = (rand() % (128+80))-40;
    1aa2:	fd860613          	addi	a2,a2,-40
		RenderBSprite( (i&1)?&bubble:&bubblemirror, x, y );
    1aa6:	c399                	beqz	a5,1aac <ModeExampleLoop+0x11e>
    1aa8:	58c18513          	addi	a0,gp,1420 # 20001338 <bubble>
	for( i = 0; i < 10; i++ )
    1aac:	0405                	addi	s0,s0,1
		RenderBSprite( (i&1)?&bubble:&bubblemirror, x, y );
    1aae:	a2aff0ef          	jal	cd8 <RenderBSprite>
	for( i = 0; i < 10; i++ )
    1ab2:	fd2418e3          	bne	s0,s2,1a82 <ModeExampleLoop+0xf4>
	ssd1306_refresh();
    1ab6:	dccff0ef          	jal	1082 <ssd1306_refresh>
	if( ( m->frameNumber & 0xff ) == 0 )
    1aba:	008a4783          	lbu	a5,8(s4)
    1abe:	efb9                	bnez	a5,1b1c <ModeExampleLoop+0x18e>
	pkt_tx[0] = 0x02;
    1ac0:	6785                	lui	a5,0x1
	memcpy( pkt_tx+2, (uint32_t*)ROM_CFG_MAC_ADDR, 6 );
    1ac2:	0003f5b7          	lui	a1,0x3f
	pkt_tx[0] = 0x02;
    1ac6:	0789                	addi	a5,a5,2 # 1002 <__puts_uart+0xe>
	memcpy( pkt_tx+2, (uint32_t*)ROM_CFG_MAC_ADDR, 6 );
    1ac8:	4619                	li	a2,6
    1aca:	05e1                	addi	a1,a1,24 # 3f018 <firmware.c.e6ea786d+0x3b231>
    1acc:	01210513          	addi	a0,sp,18
	pkt_tx[0] = 0x02;
    1ad0:	00f11823          	sh	a5,16(sp)
	memcpy( pkt_tx+2, (uint32_t*)ROM_CFG_MAC_ADDR, 6 );
    1ad4:	3961                	jal	176c <memcpy>
	memcpy( pkt_tx+10, message, messageLength );
    1ad6:	658d                	lui	a1,0x3
	pkt_tx[8] = 0xff; // Normally should be 0x03, 0x19, 0x00, 0x00 for BLE
    1ad8:	57fd                	li	a5,-1
	memcpy( pkt_tx+10, message, messageLength );
    1ada:	4619                	li	a2,6
    1adc:	c4c58593          	addi	a1,a1,-948 # 2c4c <__clzsi2+0xe0>
    1ae0:	01a10513          	addi	a0,sp,26
	pkt_tx[8] = 0xff; // Normally should be 0x03, 0x19, 0x00, 0x00 for BLE
    1ae4:	00f11c23          	sh	a5,24(sp)
	memcpy( pkt_tx+10, message, messageLength );
    1ae8:	3151                	jal	176c <memcpy>
	Frame_TX(ACCESS_ADDRESS, pkt_tx, messageLength+10, iSLERChannel, PHY_MODE);
    1aea:	6941c403          	lbu	s0,1684(gp) # 20001440 <iSLERChannel>
    1aee:	4641                	li	a2,16
    1af0:	8e89c537          	lui	a0,0x8e89c
    1af4:	00c105b3          	add	a1,sp,a2
    1af8:	ed650513          	addi	a0,a0,-298 # 8e89bed6 <_eusrstack+0x6e898ed6>
    1afc:	4705                	li	a4,1
    1afe:	86a2                	mv	a3,s0
    1b00:	1fffe097          	auipc	ra,0x1fffe
    1b04:	554080e7          	jalr	1364(ra) # 20000054 <iSLERTX>
	Frame_RX(ACCESS_ADDRESS, iSLERChannel, PHY_MODE);
    1b08:	8e89c537          	lui	a0,0x8e89c
    1b0c:	4605                	li	a2,1
    1b0e:	85a2                	mv	a1,s0
    1b10:	ed650513          	addi	a0,a0,-298 # 8e89bed6 <_eusrstack+0x6e898ed6>
    1b14:	1fffe097          	auipc	ra,0x1fffe
    1b18:	678080e7          	jalr	1656(ra) # 2000018c <iSLERRX>
}
    1b1c:	40be                	lw	ra,204(sp)
    1b1e:	442e                	lw	s0,200(sp)
    1b20:	449e                	lw	s1,196(sp)
    1b22:	490e                	lw	s2,192(sp)
    1b24:	59fa                	lw	s3,188(sp)
    1b26:	5a6a                	lw	s4,184(sp)
    1b28:	5ada                	lw	s5,180(sp)
    1b2a:	5b4a                	lw	s6,176(sp)
    1b2c:	5bba                	lw	s7,172(sp)
    1b2e:	5c2a                	lw	s8,168(sp)
    1b30:	5c9a                	lw	s9,164(sp)
    1b32:	6169                	addi	sp,sp,208
    1b34:	8082                	ret

00001b36 <SetupRegisterMap.isra.0>:
int SetupRegisterMap( int address, const uint8_t * regptr, int regs, const char * name )
    1b36:	1101                	addi	sp,sp,-32
		int b = SendByte( address<<1 );
    1b38:	0506                	slli	a0,a0,0x1
int SetupRegisterMap( int address, const uint8_t * regptr, int regs, const char * name )
    1b3a:	cc22                	sw	s0,24(sp)
    1b3c:	ca26                	sw	s1,20(sp)
    1b3e:	c84a                	sw	s2,16(sp)
    1b40:	c64e                	sw	s3,12(sp)
    1b42:	c452                	sw	s4,8(sp)
    1b44:	c256                	sw	s5,4(sp)
    1b46:	ce06                	sw	ra,28(sp)
    1b48:	c05a                	sw	s6,0(sp)
    1b4a:	842e                	mv	s0,a1
    1b4c:	89b2                	mv	s3,a2
    1b4e:	8a36                	mv	s4,a3
	for( i = 0; i < regs; i++ )
    1b50:	4901                	li	s2,0
		int b = SendByte( address<<1 );
    1b52:	0ff57493          	zext.b	s1,a0
			printf( "%s Cannot Configure @ %d\n", name, i );
    1b56:	6a8d                	lui	s5,0x3
		SendStart();
    1b58:	1fffe097          	auipc	ra,0x1fffe
    1b5c:	7f6080e7          	jalr	2038(ra) # 2000034e <SendStart>
		int b = SendByte( address<<1 );
    1b60:	8526                	mv	a0,s1
    1b62:	1ffff097          	auipc	ra,0x1ffff
    1b66:	8d8080e7          	jalr	-1832(ra) # 2000043a <SendByte>
		if( b )
    1b6a:	c505                	beqz	a0,1b92 <SetupRegisterMap.isra.0+0x5c>
			printf( "%s Cannot Configure @ %d\n", name, i );
    1b6c:	864a                	mv	a2,s2
    1b6e:	85d2                	mv	a1,s4
    1b70:	c54a8513          	addi	a0,s5,-940 # 2c54 <__clzsi2+0xe8>
    1b74:	83dff0ef          	jal	13b0 <printf>
	for( i = 0; i < regs; i++ )
    1b78:	0905                	addi	s2,s2,1
    1b7a:	fd391fe3          	bne	s2,s3,1b58 <SetupRegisterMap.isra.0+0x22>
}
    1b7e:	40f2                	lw	ra,28(sp)
    1b80:	4462                	lw	s0,24(sp)
    1b82:	44d2                	lw	s1,20(sp)
    1b84:	4942                	lw	s2,16(sp)
    1b86:	49b2                	lw	s3,12(sp)
    1b88:	4a22                	lw	s4,8(sp)
    1b8a:	4a92                	lw	s5,4(sp)
    1b8c:	4b02                	lw	s6,0(sp)
    1b8e:	6105                	addi	sp,sp,32
    1b90:	8082                	ret
		SendByte( a );
    1b92:	00044503          	lbu	a0,0(s0)
		int v = *(regptr++);
    1b96:	00240b13          	addi	s6,s0,2
		SendByte( a );
    1b9a:	1ffff097          	auipc	ra,0x1ffff
    1b9e:	8a0080e7          	jalr	-1888(ra) # 2000043a <SendByte>
		b = SendByte( v );
    1ba2:	00144503          	lbu	a0,1(s0)
		int v = *(regptr++);
    1ba6:	845a                	mv	s0,s6
		b = SendByte( v );
    1ba8:	1ffff097          	auipc	ra,0x1ffff
    1bac:	892080e7          	jalr	-1902(ra) # 2000043a <SendByte>
		SendStop();
    1bb0:	1ffff097          	auipc	ra,0x1ffff
    1bb4:	80a080e7          	jalr	-2038(ra) # 200003ba <SendStop>
    1bb8:	b7c1                	j	1b78 <SetupRegisterMap.isra.0+0x42>

00001bba <main>:
}


int main()
{
    1bba:	7175                	addi	sp,sp,-144
    1bbc:	c706                	sw	ra,140(sp)
    1bbe:	c522                	sw	s0,136(sp)
    1bc0:	c326                	sw	s1,132(sp)
    1bc2:	c14a                	sw	s2,128(sp)
    1bc4:	dece                	sw	s3,124(sp)
    1bc6:	dcd2                	sw	s4,120(sp)
    1bc8:	d8da                	sw	s6,112(sp)
    1bca:	d6de                	sw	s7,108(sp)
    1bcc:	d4e2                	sw	s8,104(sp)
    1bce:	dad6                	sw	s5,116(sp)
    1bd0:	d2e6                	sw	s9,100(sp)
    1bd2:	d0ea                	sw	s10,96(sp)
    1bd4:	ceee                	sw	s11,92(sp)

/////////////////////////////////////////////////////////////////////////////////////////////////

static void BeanboySetup()
{
	SystemInit();
    1bd6:	399d                	jal	184c <SystemInit>

	funGpioInitAll(); // no-op on ch5xx

	funPinMode( PA11, GPIO_CFGLR_OUT_10Mhz_PP );
    1bd8:	6505                	lui	a0,0x1
    1bda:	80050513          	addi	a0,a0,-2048 # 800 <_einit+0x770>
//	funDigitalWrite( PA11, 1 ); // BS1 = 1 for I2C
	funDigitalWrite( PA11, 0 ); // BS1 = 0 for SPI
    1bde:	400014b7          	lui	s1,0x40001
    1be2:	6b85                	lui	s7,0x1
    1be4:	0ac48493          	addi	s1,s1,172 # 400010ac <_eusrstack+0x1fffe0ac>
	funPinMode( PA11, GPIO_CFGLR_OUT_10Mhz_PP );
    1be8:	d10ff0ef          	jal	10f8 <funPinMode.constprop.0>
	funDigitalWrite( PA11, 0 ); // BS1 = 0 for SPI
    1bec:	800b8b93          	addi	s7,s7,-2048 # 800 <_einit+0x770>
    1bf0:	0174a023          	sw	s7,0(s1)

	funPinMode( PA6, GPIO_CFGLR_OUT_10Mhz_PP );
    1bf4:	04000513          	li	a0,64
    1bf8:	d00ff0ef          	jal	10f8 <funPinMode.constprop.0>
	funDigitalWrite( PA6, 1 ); // RES
    1bfc:	04000a13          	li	s4,64
    1c00:	40001937          	lui	s2,0x40001
    1c04:	0b492c23          	sw	s4,184(s2) # 400010b8 <_eusrstack+0x1fffe0b8>
	funPinMode( PA4, GPIO_CFGLR_OUT_10Mhz_PP );
    1c08:	4541                	li	a0,16
    1c0a:	ceeff0ef          	jal	10f8 <funPinMode.constprop.0>
	funDigitalWrite( PA4, 0 ); // SCS
    1c0e:	4c41                	li	s8,16
	funPinMode( PA10, GPIO_CFGLR_OUT_10Mhz_PP );
	funDigitalWrite( PA10, 0 ); // D/C
    1c10:	40000b13          	li	s6,1024
	funPinMode( PA10, GPIO_CFGLR_OUT_10Mhz_PP );
    1c14:	40000513          	li	a0,1024
	funDigitalWrite( PA4, 0 ); // SCS
    1c18:	0184a023          	sw	s8,0(s1)
	funPinMode( PA10, GPIO_CFGLR_OUT_10Mhz_PP );
    1c1c:	cdcff0ef          	jal	10f8 <funPinMode.constprop.0>
	funDigitalWrite( PA10, 0 ); // D/C
    1c20:	0164a023          	sw	s6,0(s1)
	ConfigI2C();
    1c24:	1fffe097          	auipc	ra,0x1fffe
    1c28:	712080e7          	jalr	1810(ra) # 20000336 <ConfigI2C>
	SetupRegisterMap( QMC6309_ADDRESS, (const uint8_t[]){ 0x12, 0x81 }, 1, "LSM6DS3 RESET" );
    1c2c:	77e1                	lui	a5,0xffff8
    1c2e:	01c10993          	addi	s3,sp,28
    1c32:	668d                	lui	a3,0x3
    1c34:	11278793          	addi	a5,a5,274 # ffff8112 <_eusrstack+0xdfff5112>
    1c38:	c7068693          	addi	a3,a3,-912 # 2c70 <__clzsi2+0x104>
    1c3c:	4605                	li	a2,1
    1c3e:	85ce                	mv	a1,s3
    1c40:	07c00513          	li	a0,124
    1c44:	00f11e23          	sh	a5,28(sp)
    1c48:	35fd                	jal	1b36 <SetupRegisterMap.isra.0>
	SetupRegisterMap( QMC6309_ADDRESS, (const uint8_t[]){ 0x0b, 0x80, 0x0b, 0x00 }, 2, "QMC6309 RESET" );
    1c4a:	000b87b7          	lui	a5,0xb8
    1c4e:	1020                	addi	s0,sp,40
    1c50:	668d                	lui	a3,0x3
    1c52:	07ad                	addi	a5,a5,11 # b800b <firmware.c.e6ea786d+0xb4224>
    1c54:	c8068693          	addi	a3,a3,-896 # 2c80 <__clzsi2+0x114>
    1c58:	4609                	li	a2,2
    1c5a:	85a2                	mv	a1,s0
    1c5c:	07c00513          	li	a0,124
    1c60:	d43e                	sw	a5,40(sp)
    1c62:	3dd1                	jal	1b36 <SetupRegisterMap.isra.0>
	SetupRegisterMap( LSM6DS3_ADDRESS, LSM6DS3Regmap, sizeof(LSM6DS3Regmap)/2, "LSM6DS3" );
    1c64:	668d                	lui	a3,0x3
    1c66:	658d                	lui	a1,0x3
    1c68:	c9068693          	addi	a3,a3,-880 # 2c90 <__clzsi2+0x124>
    1c6c:	463d                	li	a2,15
    1c6e:	51058593          	addi	a1,a1,1296 # 3510 <LSM6DS3Regmap.1>
    1c72:	06a00513          	li	a0,106
    1c76:	35c1                	jal	1b36 <SetupRegisterMap.isra.0>
	SetupRegisterMap( QMC6309_ADDRESS, QMC6309Regmap, sizeof(QMC6309Regmap)/2, "QMC6309" );
    1c78:	668d                	lui	a3,0x3
    1c7a:	4609                	li	a2,2
    1c7c:	c1018593          	addi	a1,gp,-1008 # 200009bc <QMC6309Regmap.0>
    1c80:	c9868693          	addi	a3,a3,-872 # 2c98 <__clzsi2+0x12c>
    1c84:	07c00513          	li	a0,124
    1c88:	357d                	jal	1b36 <SetupRegisterMap.isra.0>
	DSCL_OUTPUT;
    1c8a:	0174a023          	sw	s7,0(s1)
	DSDA_OUTPUT;
    1c8e:	0164a023          	sw	s6,0(s1)
	Delay_Ms(10);
    1c92:	00092537          	lui	a0,0x92
	funDigitalWrite( SSD1306_RST_PIN, FUN_LOW );
    1c96:	0144a023          	sw	s4,0(s1)
	Delay_Ms(10);
    1c9a:	7c050513          	addi	a0,a0,1984 # 927c0 <firmware.c.e6ea786d+0x8e9d9>
    1c9e:	e6ffe0ef          	jal	b0c <DelaySysTick>
	funPinMode( SSD1306_RST_PIN, GPIO_CFGLR_OUT_50Mhz_PP );
    1ca2:	8552                	mv	a0,s4
	funDigitalWrite( SSD1306_RST_PIN, FUN_HIGH );
    1ca4:	0b492c23          	sw	s4,184(s2)
	funPinMode( SSD1306_RST_PIN, GPIO_CFGLR_OUT_50Mhz_PP );
    1ca8:	c50ff0ef          	jal	10f8 <funPinMode.constprop.0>
	funPinMode( SSD1306_CS_PIN, GPIO_CFGLR_OUT_50Mhz_PP );
    1cac:	8562                	mv	a0,s8
    1cae:	c4aff0ef          	jal	10f8 <funPinMode.constprop.0>
	funPinMode( SSD1306_DC_PIN, GPIO_CFGLR_OUT_50Mhz_PP );
    1cb2:	855a                	mv	a0,s6
    1cb4:	c44ff0ef          	jal	10f8 <funPinMode.constprop.0>
	funPinMode( SSD1306_MOSI_PIN, GPIO_CFGLR_OUT_50Mhz_PP );
    1cb8:	08000513          	li	a0,128
    1cbc:	c3cff0ef          	jal	10f8 <funPinMode.constprop.0>
	funPinMode( SSD1306_SCK_PIN, GPIO_CFGLR_OUT_50Mhz_PP );
    1cc0:	02000513          	li	a0,32
    1cc4:	c34ff0ef          	jal	10f8 <funPinMode.constprop.0>
	funDigitalWrite( SSD1306_RST_PIN, FUN_HIGH );
    1cc8:	0b492c23          	sw	s4,184(s2)
	funDigitalWrite( SSD1306_CS_PIN, FUN_HIGH );
    1ccc:	0b892c23          	sw	s8,184(s2)
	funDigitalWrite( SSD1306_DC_PIN, FUN_LOW );
    1cd0:	0164a023          	sw	s6,0(s1)
	R8_SPI0_CLOCK_DIV = FUNCONF_SYSTEM_CORE_CLOCK / 12000000; // 16MHz is the fastest I want to go - though it does seem to work up to ~60MHz. 
    1cd4:	400047b7          	lui	a5,0x40004
    1cd8:	4695                	li	a3,5
    1cda:	00d781a3          	sb	a3,3(a5) # 40004003 <_eusrstack+0x20001003>
	R8_SPI0_CTRL_MOD  = RB_SPI_ALL_CLEAR;
    1cde:	4689                	li	a3,2
    1ce0:	00d78023          	sb	a3,0(a5)
	R8_SPI0_CTRL_MOD  = RB_SPI_MOSI_OE | RB_SPI_2WIRE_MOD | RB_SPI_SCK_OE;
    1ce4:	06400713          	li	a4,100
    1ce8:	00e78023          	sb	a4,0(a5)
	R8_SPI0_CTRL_MOD |= RB_SPI_MST_SCK_MOD;
    1cec:	0007c703          	lbu	a4,0(a5)
	Delay_Ms(10);
    1cf0:	00092537          	lui	a0,0x92
    1cf4:	7c050513          	addi	a0,a0,1984 # 927c0 <firmware.c.e6ea786d+0x8e9d9>
	R8_SPI0_CTRL_MOD |= RB_SPI_MST_SCK_MOD;
    1cf8:	00876713          	ori	a4,a4,8
    1cfc:	00e78023          	sb	a4,0(a5)
	R8_SPI0_CTRL_CFG = RB_MST_CLK_SEL;
    1d00:	00d780a3          	sb	a3,1(a5)
	funDigitalWrite( SSD1306_RST_PIN, FUN_LOW );
    1d04:	0144a023          	sw	s4,0(s1)
	Delay_Ms(10);
    1d08:	e05fe0ef          	jal	b0c <DelaySysTick>

	ssd1306_setbuf(0);
	
	// initialize OLED
#if !defined(SSD1306_CUSTOM_INIT_ARRAY) || !SSD1306_CUSTOM_INIT_ARRAY
	uint8_t *cmd_list = (uint8_t *)ssd1306_init_array;
    1d0c:	648d                	lui	s1,0x3
	funDigitalWrite( SSD1306_RST_PIN, FUN_HIGH );
    1d0e:	0b492c23          	sw	s4,184(s2)
	ssd1306_setbuf(0);
    1d12:	f36ff0ef          	jal	1448 <ssd1306_setbuf.constprop.0>
	uint8_t *cmd_list = (uint8_t *)ssd1306_init_array;
    1d16:	53048493          	addi	s1,s1,1328 # 3530 <ssd1306_init_array>
	while(*cmd_list != SSD1306_TERMINATE_CMDS)
    1d1a:	0ff00913          	li	s2,255
    1d1e:	0004c503          	lbu	a0,0(s1)
    1d22:	4d251663          	bne	a0,s2,21ee <main+0x634>
	{
		if(ssd1306_cmd(*cmd_list++))
			return 1;
	}
	
	ssd1306_refresh();	
    1d26:	b5cff0ef          	jal	1082 <ssd1306_refresh>

	ssd1306_rst();

	ssd1306_spi_init();
	ssd1306_init();
	ssd1306_setbuf(0x00);
    1d2a:	f1eff0ef          	jal	1448 <ssd1306_setbuf.constprop.0>

	// Turbo-time
	ssd1306_cmd(0xD5);
    1d2e:	0d500513          	li	a0,213
    1d32:	b38ff0ef          	jal	106a <ssd1306_cmd.isra.0>
	ssd1306_cmd(0xe0);
    1d36:	0e000513          	li	a0,224
    1d3a:	b30ff0ef          	jal	106a <ssd1306_cmd.isra.0>

	ssd1306_cmd(0xc8);
    1d3e:	0c800513          	li	a0,200
    1d42:	b28ff0ef          	jal	106a <ssd1306_cmd.isra.0>
	ssd1306_cmd(0xa1);
    1d46:	0a100513          	li	a0,161
    1d4a:	b20ff0ef          	jal	106a <ssd1306_cmd.isra.0>
	R8_TMR_CTRL_MOD = 0b00000010; // All clear
    1d4e:	400027b7          	lui	a5,0x40002
    1d52:	4689                	li	a3,2
	R32_TMR_CNT_END = 0x03FFFFFF; // Maximum possible counter size.
    1d54:	04000737          	lui	a4,0x4000
	R8_TMR_CTRL_MOD = 0b00000010; // All clear
    1d58:	40d78023          	sb	a3,1024(a5) # 40002400 <_eusrstack+0x1ffff400>
	R32_TMR_CNT_END = 0x03FFFFFF; // Maximum possible counter size.
    1d5c:	177d                	addi	a4,a4,-1 # 3ffffff <firmware.c.e6ea786d+0x3ffc218>
    1d5e:	40e7a623          	sw	a4,1036(a5)
	R8_TMR_CTRL_MOD = 0b11000101; // Capture mode rising edge
    1d62:	fc500713          	li	a4,-59
    1d66:	40e78023          	sb	a4,1024(a5)
	R8_TMR_INTER_EN = 0b10; // Capture event.
    1d6a:	40d78123          	sb	a3,1026(a5)
	R16_PIN_ALTERNATE_H |= 1<<6; // Map PA2 to CAP1 (could be PA7, PA4, or PA9) (see RB_TMR_PIN)
    1d6e:	400017b7          	lui	a5,0x40001
    1d72:	01a7d703          	lhu	a4,26(a5) # 4000101a <_eusrstack+0x1fffe01a>
	NVIC->IENR[((uint32_t)(IRQn) >> 5)] = (1 << ((uint32_t)(IRQn) & 0x1F));
    1d76:	e000e937          	lui	s2,0xe000e
    1d7a:	04076713          	ori	a4,a4,64
    1d7e:	00e79d23          	sh	a4,26(a5)
    1d82:	010007b7          	lui	a5,0x1000
    1d86:	10f92023          	sw	a5,256(s2) # e000e100 <_eusrstack+0xc000b100>
	uint32_t result; __ASM volatile( ADD_ARCH_ZICSR "csrr %0," "mstatus": "=r"(result) );
    1d8a:	300027f3          	csrr	a5,mstatus
	result |= 0x88;  __ASM volatile( ADD_ARCH_ZICSR "csrw mstatus, %0" : : "r" (result) );
    1d8e:	0887e793          	ori	a5,a5,136
    1d92:	30079073          	csrw	mstatus,a5
	funPinMode( PA2, GPIO_ModeOut_PP_20mA );
    1d96:	4511                	li	a0,4
    1d98:	b60ff0ef          	jal	10f8 <funPinMode.constprop.0>
	iSLERChannel = channel;
    1d9c:	4739                	li	a4,14
    1d9e:	68e18a23          	sb	a4,1684(gp) # 20001440 <iSLERChannel>
	LL->LL5 = 0x8c;
    1da2:	4000c7b7          	lui	a5,0x4000c
    1da6:	20078793          	addi	a5,a5,512 # 4000c200 <_eusrstack+0x20009200>
    1daa:	08c00713          	li	a4,140
    1dae:	cbd8                	sw	a4,20(a5)
	LL->LL7 = 0x76;
    1db0:	07600693          	li	a3,118
    1db4:	cfd4                	sw	a3,28(a5)
	LL->LL9 = 0x8c;
    1db6:	d3d8                	sw	a4,36(a5)
	LL->LL13 = 0x8c;
    1db8:	dbd8                	sw	a4,52(a5)
	LL->LL17 = 0x8c;
    1dba:	c3f8                	sw	a4,68(a5)
	LL->LL19 = 0x76;
    1dbc:	c7f4                	sw	a3,76(a5)
	LL->LL11 = 0x6c;
    1dbe:	06c00713          	li	a4,108
    1dc2:	d7d8                	sw	a4,44(a5)
	LL->LL15 = 0x6c;
    1dc4:	dfd8                	sw	a4,60(a5)
	LL->LL1 = 0x78;
    1dc6:	07800713          	li	a4,120
    1dca:	c3d8                	sw	a4,4(a5)
	LL->INT_EN = 0x16000f;
    1dcc:	00160737          	lui	a4,0x160
	LL->LL21 = 0;
    1dd0:	0407aa23          	sw	zero,84(a5)
	LL->INT_EN = 0x16000f;
    1dd4:	073d                	addi	a4,a4,15 # 16000f <firmware.c.e6ea786d+0x15c228>
    1dd6:	c7d8                	sw	a4,12(a5)
	LL->RXBUF = (uint32_t)LLE_BUF;
    1dd8:	20001737          	lui	a4,0x20001
    1ddc:	47070713          	addi	a4,a4,1136 # 20001470 <LLE_BUF>
    1de0:	dff8                	sw	a4,124(a5)
	LL->STATUS = 0xffffffff;
    1de2:	577d                	li	a4,-1
	RF->RF10 = 0x480;
    1de4:	4000d4b7          	lui	s1,0x4000d
	LL->STATUS = 0xffffffff;
    1de8:	c798                	sw	a4,8(a5)
	RF->RF10 = 0x480;
    1dea:	48000793          	li	a5,1152
    1dee:	d49c                	sw	a5,40(s1)
	RF->RF12 &= 0xfff9ffff;
    1df0:	589c                	lw	a5,48(s1)
    1df2:	fffa0737          	lui	a4,0xfffa0
    1df6:	177d                	addi	a4,a4,-1 # fff9ffff <_eusrstack+0xdff9cfff>
    1df8:	8ff9                	and	a5,a5,a4
    1dfa:	d89c                	sw	a5,48(s1)
	RF->RF12 |= 0x70000000;
    1dfc:	589c                	lw	a5,48(s1)
    1dfe:	70000737          	lui	a4,0x70000
	RF->RF15 = (RF->RF15 & 0xf8ffffff) | 0x2000000;
    1e02:	020006b7          	lui	a3,0x2000
	RF->RF12 |= 0x70000000;
    1e06:	8fd9                	or	a5,a5,a4
    1e08:	d89c                	sw	a5,48(s1)
	RF->RF15 = (RF->RF15 & 0xf8ffffff) | 0x2000000;
    1e0a:	5cdc                	lw	a5,60(s1)
    1e0c:	f9000737          	lui	a4,0xf9000
    1e10:	177d                	addi	a4,a4,-1 # f8ffffff <_eusrstack+0xd8ffcfff>
    1e12:	8ff9                	and	a5,a5,a4
    1e14:	8fd5                	or	a5,a5,a3
    1e16:	dcdc                	sw	a5,60(s1)
	RF->RF15 = (RF->RF15 & 0x1fffffff) | 0x40000000;
    1e18:	5cdc                	lw	a5,60(s1)
    1e1a:	40000737          	lui	a4,0x40000
	BB->CTRL_TX = (BB->CTRL_TX & 0x1ffffff) | (TxPower | 0x40) << 0x19;
    1e1e:	16fd                	addi	a3,a3,-1 # 1ffffff <firmware.c.e6ea786d+0x1ffc218>
	RF->RF15 = (RF->RF15 & 0x1fffffff) | 0x40000000;
    1e20:	078e                	slli	a5,a5,0x3
    1e22:	838d                	srli	a5,a5,0x3
    1e24:	8fd9                	or	a5,a5,a4
    1e26:	dcdc                	sw	a5,60(s1)
	RF->RF18 &= 0xfff8ffff;
    1e28:	44bc                	lw	a5,72(s1)
    1e2a:	fff90737          	lui	a4,0xfff90
    1e2e:	177d                	addi	a4,a4,-1 # fff8ffff <_eusrstack+0xdff8cfff>
    1e30:	8ff9                	and	a5,a5,a4
    1e32:	c4bc                	sw	a5,72(s1)
	RF->RF20 = (RF->RF20 & 0xfffff8ff) | 0x300;
    1e34:	48bc                	lw	a5,80(s1)
	RF->RF23 |= 0x70000;
    1e36:	00070737          	lui	a4,0x70
	NVIC->VTFIDR[3] = 0x14;
    1e3a:	4cd1                	li	s9,20
	RF->RF20 = (RF->RF20 & 0xfffff8ff) | 0x300;
    1e3c:	8ff7f793          	andi	a5,a5,-1793
    1e40:	3007e793          	ori	a5,a5,768
    1e44:	c8bc                	sw	a5,80(s1)
	RF->RF23 |= 0x70000;
    1e46:	4cfc                	lw	a5,92(s1)
	DevSetMode(DEVSETMODE_TUNE);
    1e48:	55800513          	li	a0,1368
	RF->RF23 |= 0x70000;
    1e4c:	8fd9                	or	a5,a5,a4
    1e4e:	ccfc                	sw	a5,92(s1)
	RF->RF23 |= 0x700000;
    1e50:	4cfc                	lw	a5,92(s1)
    1e52:	00700737          	lui	a4,0x700
    1e56:	8fd9                	or	a5,a5,a4
    1e58:	ccfc                	sw	a5,92(s1)
	BB->BB14 = 0x2020c;
    1e5a:	00020737          	lui	a4,0x20
    1e5e:	4000c7b7          	lui	a5,0x4000c
    1e62:	10078793          	addi	a5,a5,256 # 4000c100 <_eusrstack+0x20009100>
    1e66:	20c70713          	addi	a4,a4,524 # 2020c <firmware.c.e6ea786d+0x1c425>
    1e6a:	df98                	sw	a4,56(a5)
	BB->BB15 = 0x50;
    1e6c:	05000713          	li	a4,80
    1e70:	dfd8                	sw	a4,60(a5)
	BB->CTRL_TX = (BB->CTRL_TX & 0x1ffffff) | (TxPower | 0x40) << 0x19;
    1e72:	5bd8                	lw	a4,52(a5)
    1e74:	8f75                	and	a4,a4,a3
    1e76:	da0006b7          	lui	a3,0xda000
    1e7a:	8f55                	or	a4,a4,a3
    1e7c:	dbd8                	sw	a4,52(a5)
	BB->CTRL_CFG &= 0xfffffcff;
    1e7e:	4398                	lw	a4,0(a5)
    1e80:	cff77713          	andi	a4,a4,-769
    1e84:	c398                	sw	a4,0(a5)
	NVIC->VTFIDR[3] = 0x14;
    1e86:	059909a3          	sb	s9,83(s2)
	DevSetMode(DEVSETMODE_TUNE);
    1e8a:	d61fe0ef          	jal	bea <DevSetMode>
	RF->RF1 &= 0xfffffeff;
    1e8e:	40dc                	lw	a5,4(s1)
	RF->RF10 &= 0xffffefff;
    1e90:	777d                	lui	a4,0xfffff
    1e92:	177d                	addi	a4,a4,-1 # ffffefff <_eusrstack+0xdfffbfff>
	RF->RF1 &= 0xfffffeff;
    1e94:	eff7f793          	andi	a5,a5,-257
    1e98:	c0dc                	sw	a5,4(s1)
	RF->RF10 &= 0xffffefff;
    1e9a:	549c                	lw	a5,40(s1)
	uint32_t tune2401 = RFEND_TXCTune(37);
    1e9c:	02500513          	li	a0,37
	RF->RF10 &= 0xffffefff;
    1ea0:	8ff9                	and	a5,a5,a4
    1ea2:	d49c                	sw	a5,40(s1)
	RF->RF11 &= 0xffffffef;
    1ea4:	54dc                	lw	a5,44(s1)
	RF->RF2 |= 0x20000;
    1ea6:	00020737          	lui	a4,0x20
	RF->RF11 &= 0xffffffef;
    1eaa:	9bbd                	andi	a5,a5,-17
    1eac:	d4dc                	sw	a5,44(s1)
	RF->RF2 |= 0x20000;
    1eae:	449c                	lw	a5,8(s1)
    1eb0:	8fd9                	or	a5,a5,a4
    1eb2:	c49c                	sw	a5,8(s1)
	RF->RF1 |= 0x10;
    1eb4:	40dc                	lw	a5,4(s1)
    1eb6:	0107e793          	ori	a5,a5,16
    1eba:	c0dc                	sw	a5,4(s1)
	uint32_t tune2401 = RFEND_TXCTune(37);
    1ebc:	d7dfe0ef          	jal	c38 <RFEND_TXCTune>
    1ec0:	84aa                	mv	s1,a0
	uint8_t nGA2401 = (uint8_t)(tune2401 >> 24) & 0x7f;
    1ec2:	01855b93          	srli	s7,a0,0x18
	uint32_t tune2480 = RFEND_TXCTune(39);
    1ec6:	02700513          	li	a0,39
    1eca:	d6ffe0ef          	jal	c38 <RFEND_TXCTune>
    1ece:	8a2a                	mv	s4,a0
	uint8_t nGA2480 = (uint8_t)(tune2480 >> 24) & 0x7f;
    1ed0:	01855c13          	srli	s8,a0,0x18
	uint32_t tune2440 = RFEND_TXCTune(18);
    1ed4:	4549                	li	a0,18
    1ed6:	d63fe0ef          	jal	c38 <RFEND_TXCTune>
	uint32_t dCO0140 = nCO2401 - nCO2440;
    1eda:	0ff57793          	zext.b	a5,a0
	uint8_t txctune_co[sizeof(RF->TXCTUNE_CO)] = {0};
    1ede:	02800613          	li	a2,40
	uint32_t tune2440 = RFEND_TXCTune(18);
    1ee2:	892a                	mv	s2,a0
	uint8_t nGA2440 = (uint8_t)(tune2440 >> 24) & 0x7f;
    1ee4:	01855b13          	srli	s6,a0,0x18
	uint32_t dCO0140 = nCO2401 - nCO2440;
    1ee8:	0ff4f493          	zext.b	s1,s1
	uint32_t dCO4080 = nCO2440 - nCO2480;
    1eec:	0ffa7a13          	zext.b	s4,s4
	uint8_t txctune_co[sizeof(RF->TXCTUNE_CO)] = {0};
    1ef0:	4581                	li	a1,0
    1ef2:	8522                	mv	a0,s0
	uint32_t dCO0140 = nCO2401 - nCO2440;
    1ef4:	8c9d                	sub	s1,s1,a5
	uint32_t dCO4080 = nCO2440 - nCO2480;
    1ef6:	41478a33          	sub	s4,a5,s4
	uint8_t txctune_co[sizeof(RF->TXCTUNE_CO)] = {0};
    1efa:	d3cff0ef          	jal	1436 <memset>
	for(int f = 0; f < int_points; f++) {
    1efe:	039486b3          	mul	a3,s1,s9
    1f02:	4781                	li	a5,0
		tune = (dCO0140 * (int_points -f)) / int_points;
    1f04:	8666                	mv	a2,s9
		txctune_co[f] = tune | (tune << 4);
    1f06:	00f405b3          	add	a1,s0,a5
	for(int f = 0; f < int_points; f++) {
    1f0a:	0785                	addi	a5,a5,1
		tune = (dCO0140 * (int_points -f)) / int_points;
    1f0c:	0396d733          	divu	a4,a3,s9
	for(int f = 0; f < int_points; f++) {
    1f10:	8e85                	sub	a3,a3,s1
		txctune_co[f] = tune | (tune << 4);
    1f12:	0762                	slli	a4,a4,0x18
    1f14:	8761                	srai	a4,a4,0x18
    1f16:	00471513          	slli	a0,a4,0x4
    1f1a:	8f49                	or	a4,a4,a0
    1f1c:	00e58023          	sb	a4,0(a1)
	for(int f = 0; f < int_points; f++) {
    1f20:	fec793e3          	bne	a5,a2,1f06 <main+0x34c>
    1f24:	4681                	li	a3,0
		tune = (dCO4080 * (f -int_points)) / int_points;
    1f26:	4851                	li	a6,20
	for(int f = int_points; f < sizeof(RF->TXCTUNE_CO); f++) {
    1f28:	02800613          	li	a2,40
		tune = (dCO4080 * (f -int_points)) / int_points;
    1f2c:	0306d733          	divu	a4,a3,a6
		txctune_co[f] = tune | (tune << 4);
    1f30:	00f405b3          	add	a1,s0,a5
	for(int f = int_points; f < sizeof(RF->TXCTUNE_CO); f++) {
    1f34:	0785                	addi	a5,a5,1
    1f36:	96d2                	add	a3,a3,s4
		txctune_co[f] = tune | (tune << 4);
    1f38:	0762                	slli	a4,a4,0x18
    1f3a:	8761                	srai	a4,a4,0x18
    1f3c:	00471513          	slli	a0,a4,0x4
    1f40:	8f49                	or	a4,a4,a0
    1f42:	00e58023          	sb	a4,0(a1)
	for(int f = int_points; f < sizeof(RF->TXCTUNE_CO); f++) {
    1f46:	fec793e3          	bne	a5,a2,1f2c <main+0x372>
    1f4a:	86a2                	mv	a3,s0
	for(int i = 0; i < sizeof(txctune_co) /4; i++) {
    1f4c:	4701                	li	a4,0
		RF->TXCTUNE_CO[i] = ((uint32_t*)txctune_co)[i];
    1f4e:	4000d537          	lui	a0,0x4000d
	for(int i = 0; i < sizeof(txctune_co) /4; i++) {
    1f52:	4629                	li	a2,10
		RF->TXCTUNE_CO[i] = ((uint32_t*)txctune_co)[i];
    1f54:	428c                	lw	a1,0(a3)
    1f56:	02870793          	addi	a5,a4,40 # 20028 <firmware.c.e6ea786d+0x1c241>
    1f5a:	078a                	slli	a5,a5,0x2
    1f5c:	97aa                	add	a5,a5,a0
    1f5e:	c38c                	sw	a1,0(a5)
	for(int i = 0; i < sizeof(txctune_co) /4; i++) {
    1f60:	0705                	addi	a4,a4,1
    1f62:	0691                	addi	a3,a3,4 # da000004 <_eusrstack+0xb9ffd004>
    1f64:	fec718e3          	bne	a4,a2,1f54 <main+0x39a>
	uint32_t dGA0140 = nGA2401 - nGA2440;
    1f68:	416b8633          	sub	a2,s7,s6
	uint32_t dGA4080 = nGA2440 - nGA2480;
    1f6c:	4695                	li	a3,5
    1f6e:	02d606b3          	mul	a3,a2,a3
    1f72:	418b0b33          	sub	s6,s6,s8
	uint8_t txctune_ga[sizeof(RF->TXCTUNE_GA)] = {0};
    1f76:	ce02                	sw	zero,28(sp)
    1f78:	d002                	sw	zero,32(sp)
    1f7a:	d202                	sw	zero,36(sp)
	for(int f = 1; f < int_points; f++) {
    1f7c:	4785                	li	a5,1
		tune = (dGA0140 * (int_points -f)) / int_points;
    1f7e:	4599                	li	a1,6
		txctune_ga[f] = tune | (tune << 4);
    1f80:	00f98533          	add	a0,s3,a5
	for(int f = 1; f < int_points; f++) {
    1f84:	0785                	addi	a5,a5,1
		tune = (dGA0140 * (int_points -f)) / int_points;
    1f86:	02b6d733          	divu	a4,a3,a1
	for(int f = 1; f < int_points; f++) {
    1f8a:	8e91                	sub	a3,a3,a2
		txctune_ga[f] = tune | (tune << 4);
    1f8c:	0762                	slli	a4,a4,0x18
    1f8e:	8761                	srai	a4,a4,0x18
    1f90:	00471813          	slli	a6,a4,0x4
    1f94:	01076733          	or	a4,a4,a6
    1f98:	00e50023          	sb	a4,0(a0) # 4000d000 <_eusrstack+0x2000a000>
	for(int f = 1; f < int_points; f++) {
    1f9c:	feb792e3          	bne	a5,a1,1f80 <main+0x3c6>
    1fa0:	4681                	li	a3,0
		tune = (dGA4080 * (f -int_points)) / int_points;
    1fa2:	4819                	li	a6,6
	for(int f = int_points; f < sizeof(RF->TXCTUNE_GA) -1; f++) {
    1fa4:	462d                	li	a2,11
		tune = (dGA4080 * (f -int_points)) / int_points;
    1fa6:	0306d733          	divu	a4,a3,a6
		txctune_ga[f] = tune | (tune << 4);
    1faa:	00f985b3          	add	a1,s3,a5
	for(int f = int_points; f < sizeof(RF->TXCTUNE_GA) -1; f++) {
    1fae:	0785                	addi	a5,a5,1
    1fb0:	96da                	add	a3,a3,s6
		txctune_ga[f] = tune | (tune << 4);
    1fb2:	0762                	slli	a4,a4,0x18
    1fb4:	8761                	srai	a4,a4,0x18
    1fb6:	00471513          	slli	a0,a4,0x4
    1fba:	8f49                	or	a4,a4,a0
    1fbc:	00e58023          	sb	a4,0(a1)
	for(int f = int_points; f < sizeof(RF->TXCTUNE_GA) -1; f++) {
    1fc0:	fec793e3          	bne	a5,a2,1fa6 <main+0x3ec>
		RF->TXCTUNE_GA[i] = ((uint32_t*)txctune_ga)[i];
    1fc4:	46f2                	lw	a3,28(sp)
    1fc6:	4000d7b7          	lui	a5,0x4000d
    1fca:	08078713          	addi	a4,a5,128 # 4000d080 <_eusrstack+0x2000a080>
    1fce:	c734                	sw	a3,72(a4)
    1fd0:	5682                	lw	a3,32(sp)
	RF->RF10 |= 0x1000;
    1fd2:	6605                	lui	a2,0x1
		RF->TXCTUNE_GA[i] = ((uint32_t*)txctune_ga)[i];
    1fd4:	c774                	sw	a3,76(a4)
    1fd6:	5692                	lw	a3,36(sp)
    1fd8:	cb34                	sw	a3,80(a4)
	RF->RF1 &= 0xffffffef;
    1fda:	43d8                	lw	a4,4(a5)
	RF->TXTUNE_CTRL = (RF->TXTUNE_CTRL & 0xffffffc0) | (tune2440 & 0x3f);
    1fdc:	03f97693          	andi	a3,s2,63
	RF->RF1 &= 0xffffffef;
    1fe0:	9b3d                	andi	a4,a4,-17
    1fe2:	c3d8                	sw	a4,4(a5)
	RF->RF1 &= 0xfffffffe;
    1fe4:	43d8                	lw	a4,4(a5)
    1fe6:	9b79                	andi	a4,a4,-2
    1fe8:	c3d8                	sw	a4,4(a5)
	RF->RF10 |= 0x1000;
    1fea:	5798                	lw	a4,40(a5)
    1fec:	8f51                	or	a4,a4,a2
    1fee:	d798                	sw	a4,40(a5)
	RF->RF11 |= 0x10;
    1ff0:	57d8                	lw	a4,44(a5)
    1ff2:	01076713          	ori	a4,a4,16
    1ff6:	d7d8                	sw	a4,44(a5)
	RF->TXTUNE_CTRL = (RF->TXTUNE_CTRL & 0xffffffc0) | (tune2440 & 0x3f);
    1ff8:	5f98                	lw	a4,56(a5)
    1ffa:	fc077713          	andi	a4,a4,-64
    1ffe:	8f55                	or	a4,a4,a3
    2000:	df98                	sw	a4,56(a5)
	RF->TXTUNE_CTRL = (RF->TXTUNE_CTRL & 0x80ffffff) | (tune2440 & 0x7f000000);
    2002:	5f98                	lw	a4,56(a5)
    2004:	810006b7          	lui	a3,0x81000
    2008:	16fd                	addi	a3,a3,-1 # 80ffffff <_eusrstack+0x60ffcfff>
    200a:	8f75                	and	a4,a4,a3
    200c:	7f0006b7          	lui	a3,0x7f000
    2010:	00d97933          	and	s2,s2,a3
    2014:	01276733          	or	a4,a4,s2
    2018:	df98                	sw	a4,56(a5)
	RF->RF1 |= 0x100;
    201a:	43d8                	lw	a4,4(a5)
	RF->RF20 &= 0xfffeffff;
    201c:	76c1                	lui	a3,0xffff0
    201e:	16fd                	addi	a3,a3,-1 # fffeffff <_eusrstack+0xdffecfff>
	RF->RF1 |= 0x100;
    2020:	10076713          	ori	a4,a4,256
    2024:	c3d8                	sw	a4,4(a5)
	RF->RF20 &= 0xfffeffff;
    2026:	4bb8                	lw	a4,80(a5)
    2028:	8f75                	and	a4,a4,a3
    202a:	cbb8                	sw	a4,80(a5)
	RF->RF2 |= 0x200000;
    202c:	4798                	lw	a4,8(a5)
    202e:	002006b7          	lui	a3,0x200
    2032:	8f55                	or	a4,a4,a3
    2034:	c798                	sw	a4,8(a5)
	RF->RF3 = (RF->RF3 & 0xffffffef) | 0x10;
    2036:	47d8                	lw	a4,12(a5)
	LL->TMR = 100;
    2038:	06400693          	li	a3,100
	RF->RF3 = (RF->RF3 & 0xffffffef) | 0x10;
    203c:	01076713          	ori	a4,a4,16
    2040:	c7d8                	sw	a4,12(a5)
	RF->RF1 |= 0x1000;
    2042:	43d8                	lw	a4,4(a5)
    2044:	8f51                	or	a4,a4,a2
    2046:	c3d8                	sw	a4,4(a5)
	LL->TMR = 100;
    2048:	4000c737          	lui	a4,0x4000c
    204c:	20070713          	addi	a4,a4,512 # 4000c200 <_eusrstack+0x20009200>
    2050:	d374                	sw	a3,100(a4)
	while(LL->TMR && ((RF->RXTUNE >> 8) & 1));
    2052:	5374                	lw	a3,100(a4)
    2054:	c691                	beqz	a3,2060 <main+0x4a6>
    2056:	09c7a683          	lw	a3,156(a5)
    205a:	1006f693          	andi	a3,a3,256
    205e:	faf5                	bnez	a3,2052 <main+0x498>
	tuneFilter = RF->RXTUNE & 0x1f;
    2060:	4000d7b7          	lui	a5,0x4000d
    2064:	08078713          	addi	a4,a5,128 # 4000d080 <_eusrstack+0x2000a080>
    2068:	4f58                	lw	a4,28(a4)
	RF->RF20 |= 0x10000;
    206a:	6641                	lui	a2,0x10
	tuneFilter = RF->RXTUNE & 0x1f;
    206c:	8b7d                	andi	a4,a4,31
    206e:	68e1ae23          	sw	a4,1692(gp) # 20001448 <tuneFilter>
	RF->RF20 |= 0x10000;
    2072:	4bb8                	lw	a4,80(a5)
    2074:	8f51                	or	a4,a4,a2
    2076:	cbb8                	sw	a4,80(a5)
	RF->RF20 = (RF->RF20 & 0xffffffe0) | tuneFilter;
    2078:	4bb8                	lw	a4,80(a5)
    207a:	69c1a603          	lw	a2,1692(gp) # 20001448 <tuneFilter>
    207e:	9b01                	andi	a4,a4,-32
    2080:	8f51                	or	a4,a4,a2
    2082:	cbb8                	sw	a4,80(a5)
	RF->RF2 &= 0xffdfffff;
    2084:	4798                	lw	a4,8(a5)
    2086:	ffe00637          	lui	a2,0xffe00
    208a:	167d                	addi	a2,a2,-1 # ffdfffff <_eusrstack+0xdfdfcfff>
    208c:	8f71                	and	a4,a4,a2
    208e:	c798                	sw	a4,8(a5)
	tuneFilter2M = (tuneFilter +2 < 0x1f) ? (tuneFilter +2) : 0x1f;
    2090:	69c1a703          	lw	a4,1692(gp) # 20001448 <tuneFilter>
    2094:	4679                	li	a2,30
    2096:	47fd                	li	a5,31
    2098:	0709                	addi	a4,a4,2
    209a:	00e66563          	bltu	a2,a4,20a4 <main+0x4ea>
    209e:	69c1a783          	lw	a5,1692(gp) # 20001448 <tuneFilter>
    20a2:	0789                	addi	a5,a5,2
    20a4:	6af1a023          	sw	a5,1696(gp) # 2000144c <tuneFilter2M>
	RF->RF22 &= 0xfffeffff;
    20a8:	4000d7b7          	lui	a5,0x4000d
    20ac:	4fb8                	lw	a4,88(a5)
    20ae:	76c1                	lui	a3,0xffff0
    20b0:	16fd                	addi	a3,a3,-1 # fffeffff <_eusrstack+0xdffecfff>
    20b2:	8f75                	and	a4,a4,a3
    20b4:	cfb8                	sw	a4,88(a5)
	RF->RF2 |= 0x10000;
    20b6:	4798                	lw	a4,8(a5)
    20b8:	66c1                	lui	a3,0x10
	DevSetMode(0);
    20ba:	4501                	li	a0,0
	RF->RF2 |= 0x10000;
    20bc:	8f55                	or	a4,a4,a3
    20be:	c798                	sw	a4,8(a5)
	RF->RF3 = (RF->RF3 & 0xfffffeff) | 0x100;
    20c0:	47d8                	lw	a4,12(a5)
	RF->RF1 = (RF->RF1 & 0xfffeffff) | 0x100000;
    20c2:	ffef06b7          	lui	a3,0xffef0
    20c6:	16fd                	addi	a3,a3,-1 # ffeeffff <_eusrstack+0xdfeecfff>
	RF->RF3 = (RF->RF3 & 0xfffffeff) | 0x100;
    20c8:	10076713          	ori	a4,a4,256
    20cc:	c7d8                	sw	a4,12(a5)
	RF->RF1 = (RF->RF1 & 0xfffeffff) | 0x100000;
    20ce:	43d8                	lw	a4,4(a5)
	m->Update = ModeMenuLoop;
    20d0:	6a418b93          	addi	s7,gp,1700 # 20001450 <gameUnion>
    20d4:	8f75                	and	a4,a4,a3
    20d6:	001006b7          	lui	a3,0x100
    20da:	8f55                	or	a4,a4,a3
    20dc:	c3d8                	sw	a4,4(a5)
	DevSetMode(0);
    20de:	b0dfe0ef          	jal	bea <DevSetMode>
	NVIC->IPRIOR[0x15] |= 0x80;
    20e2:	e000e7b7          	lui	a5,0xe000e
    20e6:	4157c703          	lbu	a4,1045(a5) # e000e415 <_eusrstack+0xc000b415>
	Frame_RX(ACCESS_ADDRESS, channel, PHY_MODE);
    20ea:	8e89c537          	lui	a0,0x8e89c
    20ee:	4605                	li	a2,1
    20f0:	08076713          	ori	a4,a4,128
    20f4:	40e78aa3          	sb	a4,1045(a5)
	NVIC->IENR[((uint32_t)(IRQn) >> 5)] = (1 << ((uint32_t)(IRQn) & 0x1F));
    20f8:	00200737          	lui	a4,0x200
    20fc:	10e7a023          	sw	a4,256(a5)
    2100:	45b9                	li	a1,14
    2102:	ed650513          	addi	a0,a0,-298 # 8e89bed6 <_eusrstack+0x6e898ed6>
    2106:	1fffe097          	auipc	ra,0x1fffe
    210a:	086080e7          	jalr	134(ra) # 2000018c <iSLERRX>
	memset( m, 0, sizeof( *m ) );
    210e:	6a01a423          	sw	zero,1704(gp) # 20001454 <gameUnion+0x4>
	m->Update = ModeMenuLoop;
    2112:	6785                	lui	a5,0x1
    2114:	6a418713          	addi	a4,gp,1700 # 20001450 <gameUnion>
    2118:	5f678793          	addi	a5,a5,1526 # 15f6 <ModeMenuLoop>
    211c:	c31c                	sw	a5,0(a4)
	m->selectedEntry = 1;
    211e:	4785                	li	a5,1
    2120:	c71c                	sw	a5,8(a4)

	game = &gameUnion.template;

	SelectMode( 0 ); // Menu mode

	uint32_t lastClickedMask = 0;
    2122:	c402                	sw	zero,8(sp)
    2124:	4c21                	li	s8,8
    2126:	10000c93          	li	s9,256
    212a:	20000d13          	li	s10,512
		switch( btn )
    212e:	c63e                	sw	a5,12(sp)
    2130:	4d89                	li	s11,2
		if( *((uint32_t*)0x4fff0000) == 0xaaaaaaaa )
    2132:	4fff0b37          	lui	s6,0x4fff0
    2136:	aaaaba37          	lui	s4,0xaaaab
    213a:	89a2                	mv	s3,s0
	for( btn = 0; btn < 4; btn++ )
    213c:	4481                	li	s1,0
		if( *((uint32_t*)0x4fff0000) == 0xaaaaaaaa )
    213e:	aaaa0a13          	addi	s4,s4,-1366 # aaaaaaaa <_eusrstack+0x8aaa7aaa>
	switch(mode) {
    2142:	4521                	li	a0,8
    2144:	cabfe0ef          	jal	dee <funPinMode.part.0>
    2148:	10000513          	li	a0,256
    214c:	ca3fe0ef          	jal	dee <funPinMode.part.0>
    2150:	20000513          	li	a0,512
    2154:	c9bfe0ef          	jal	dee <funPinMode.part.0>
		switch( btn )
    2158:	47b2                	lw	a5,12(sp)
    215a:	08f48e63          	beq	s1,a5,21f6 <main+0x63c>
    215e:	0bb48563          	beq	s1,s11,2208 <main+0x64e>
    2162:	e889                	bnez	s1,2174 <main+0x5ba>
			funPinMode( PA8, GPIO_CFGLR_OUT_10Mhz_PP );
    2164:	10000513          	li	a0,256
    2168:	f91fe0ef          	jal	10f8 <funPinMode.constprop.0>
			funDigitalWrite( PA3, 1 );
    216c:	400017b7          	lui	a5,0x40001
    2170:	0b87ac23          	sw	s8,184(a5) # 400010b8 <_eusrstack+0x1fffe0b8>
		if( *((uint32_t*)0x4fff0000) == 0xaaaaaaaa )
    2174:	000b2783          	lw	a5,0(s6) # 4fff0000 <_eusrstack+0x2ffed000>
    2178:	0b479063          	bne	a5,s4,2218 <main+0x65e>
			pressures[btn] = *((uint32_t*)(0x4fff0004+4*btn));
    217c:	00249793          	slli	a5,s1,0x2
    2180:	97da                	add	a5,a5,s6
    2182:	43dc                	lw	a5,4(a5)
    2184:	00f9a023          	sw	a5,0(s3)
	for( btn = 0; btn < 4; btn++ )
    2188:	0485                	addi	s1,s1,1 # 4000d001 <_eusrstack+0x2000a001>
    218a:	4791                	li	a5,4
    218c:	0991                	addi	s3,s3,4
    218e:	faf49ae3          	bne	s1,a5,2142 <main+0x588>
		// TODO: Make this debounce.
		int i;
		uint32_t clickedMask = 0;
		for( i = 0; i < 3; i++ )
		{
			if( pressures[i] > 5000 ) clickedMask |= 1<<i;
    2192:	54a2                	lw	s1,40(sp)
    2194:	6785                	lui	a5,0x1
    2196:	38878793          	addi	a5,a5,904 # 1388 <mini_vpprintf+0x1ae>
    219a:	5732                	lw	a4,44(sp)
    219c:	0097b4b3          	sltu	s1,a5,s1
    21a0:	6785                	lui	a5,0x1
    21a2:	38878793          	addi	a5,a5,904 # 1388 <mini_vpprintf+0x1ae>
    21a6:	00e7f463          	bgeu	a5,a4,21ae <main+0x5f4>
    21aa:	0024e493          	ori	s1,s1,2
    21ae:	5742                	lw	a4,48(sp)
    21b0:	00e7f463          	bgeu	a5,a4,21b8 <main+0x5fe>
    21b4:	0044e493          	ori	s1,s1,4
		}

		unsigned now = SysTick->CNT;
    21b8:	e000f7b7          	lui	a5,0xe000f
    21bc:	0087a983          	lw	s3,8(a5) # e000f008 <_eusrstack+0xc000c008>
		unsigned deltaUS = (now - lastStart)/48;
    21c0:	03000793          	li	a5,48
    21c4:	415989b3          	sub	s3,s3,s5
    21c8:	02f9d9b3          	divu	s3,s3,a5
		if( gameUnion.template.Update )
    21cc:	000ba783          	lw	a5,0(s7)
    21d0:	cb81                	beqz	a5,21e0 <main+0x626>
		{
			gameUnion.template.Update( &gameUnion, deltaUS, pressures, clickedMask, lastClickedMask );
    21d2:	4722                	lw	a4,8(sp)
    21d4:	86a6                	mv	a3,s1
    21d6:	8622                	mv	a2,s0
    21d8:	85ce                	mv	a1,s3
    21da:	6a418513          	addi	a0,gp,1700 # 20001450 <gameUnion>
    21de:	9782                	jalr	a5
		}
		lastStart += deltaUS * 48;
    21e0:	03000793          	li	a5,48
		frameno++;

		lastClickedMask = clickedMask;
    21e4:	c426                	sw	s1,8(sp)
		lastStart += deltaUS * 48;
    21e6:	02f989b3          	mul	s3,s3,a5
    21ea:	9ace                	add	s5,s5,s3
	{
    21ec:	b7a9                	j	2136 <main+0x57c>
		if(ssd1306_cmd(*cmd_list++))
    21ee:	0485                	addi	s1,s1,1
    21f0:	e7bfe0ef          	jal	106a <ssd1306_cmd.isra.0>
    21f4:	b62d                	j	1d1e <main+0x164>
			funPinMode( PA9, GPIO_CFGLR_OUT_10Mhz_PP );
    21f6:	20000513          	li	a0,512
    21fa:	efffe0ef          	jal	10f8 <funPinMode.constprop.0>
			funDigitalWrite( PA8, 1 );
    21fe:	400017b7          	lui	a5,0x40001
    2202:	0b97ac23          	sw	s9,184(a5) # 400010b8 <_eusrstack+0x1fffe0b8>
			break;
    2206:	b7bd                	j	2174 <main+0x5ba>
			funPinMode( PA3, GPIO_CFGLR_OUT_10Mhz_PP );
    2208:	4521                	li	a0,8
    220a:	eeffe0ef          	jal	10f8 <funPinMode.constprop.0>
			funDigitalWrite( PA9, 1 );
    220e:	400017b7          	lui	a5,0x40001
    2212:	0ba7ac23          	sw	s10,184(a5) # 400010b8 <_eusrstack+0x1fffe0b8>
			break;
    2216:	bfb9                	j	2174 <main+0x5ba>
			lastfifo = 0;
    2218:	6801ac23          	sw	zero,1688(gp) # 20001444 <lastfifo>
			EventRelease();
    221c:	1fffe097          	auipc	ra,0x1fffe
    2220:	de4080e7          	jalr	-540(ra) # 20000000 <EventRelease>
			while( !lastfifo && --to );
    2224:	6785                	lui	a5,0x1
    2226:	fa078793          	addi	a5,a5,-96 # fa0 <_write.constprop.0+0x98>
    222a:	6981a683          	lw	a3,1688(gp) # 20001444 <lastfifo>
    222e:	e299                	bnez	a3,2234 <main+0x67a>
    2230:	17fd                	addi	a5,a5,-1
    2232:	ffe5                	bnez	a5,222a <main+0x670>
			int r = lastfifo - 2; // 2 cycles back.
    2234:	6981a703          	lw	a4,1688(gp) # 20001444 <lastfifo>
			int vtot = COEFFICIENT/r + ((const uint32_t)(VREF*FIXEDPOINT_SCALE));
    2238:	0034e7b7          	lui	a5,0x34e
    223c:	f2878793          	addi	a5,a5,-216 # 34df28 <firmware.c.e6ea786d+0x34a141>
			int r = lastfifo - 2; // 2 cycles back.
    2240:	1779                	addi	a4,a4,-2 # 1ffffe <firmware.c.e6ea786d+0x1fc217>
			int vtot = COEFFICIENT/r + ((const uint32_t)(VREF*FIXEDPOINT_SCALE));
    2242:	02e7d7b3          	divu	a5,a5,a4
    2246:	06978793          	addi	a5,a5,105
    224a:	bf2d                	j	2184 <main+0x5ca>

0000224c <ModeTestLoop>:
{
    224c:	1141                	addi	sp,sp,-16
    224e:	c606                	sw	ra,12(sp)
	CoreLoop();
    2250:	1fffe097          	auipc	ra,0x1fffe
    2254:	5b6080e7          	jalr	1462(ra) # 20000806 <CoreLoop>

00002258 <__divdi3>:
    2258:	4801                	li	a6,0
    225a:	0e05c863          	bltz	a1,234a <__divdi3+0xf2>
    225e:	0006db63          	bgez	a3,2274 <__divdi3+0x1c>
    2262:	00c037b3          	snez	a5,a2
    2266:	40d006b3          	neg	a3,a3
    226a:	fff84813          	not	a6,a6
    226e:	8e9d                	sub	a3,a3,a5
    2270:	40c00633          	neg	a2,a2
    2274:	88b2                	mv	a7,a2
    2276:	87aa                	mv	a5,a0
    2278:	832e                	mv	t1,a1
    227a:	e2f9                	bnez	a3,2340 <__divdi3+0xe8>
    227c:	12c5f163          	bgeu	a1,a2,239e <__divdi3+0x146>
    2280:	6741                	lui	a4,0x10
    2282:	1ae66c63          	bltu	a2,a4,243a <__divdi3+0x1e2>
    2286:	01000737          	lui	a4,0x1000
    228a:	46e1                	li	a3,24
    228c:	00e67363          	bgeu	a2,a4,2292 <__divdi3+0x3a>
    2290:	46c1                	li	a3,16
    2292:	00d65e33          	srl	t3,a2,a3
    2296:	00001717          	auipc	a4,0x1
    229a:	2f670713          	addi	a4,a4,758 # 358c <__clz_tab>
    229e:	9772                	add	a4,a4,t3
    22a0:	00074703          	lbu	a4,0(a4)
    22a4:	02000e13          	li	t3,32
    22a8:	9736                	add	a4,a4,a3
    22aa:	40ee06b3          	sub	a3,t3,a4
    22ae:	00ee0c63          	beq	t3,a4,22c6 <__divdi3+0x6e>
    22b2:	00d59333          	sll	t1,a1,a3
    22b6:	00e55733          	srl	a4,a0,a4
    22ba:	00676333          	or	t1,a4,t1
    22be:	00d618b3          	sll	a7,a2,a3
    22c2:	00d517b3          	sll	a5,a0,a3
    22c6:	0108d613          	srli	a2,a7,0x10
    22ca:	02c35533          	divu	a0,t1,a2
    22ce:	01089693          	slli	a3,a7,0x10
    22d2:	82c1                	srli	a3,a3,0x10
    22d4:	0107d713          	srli	a4,a5,0x10
    22d8:	02c37333          	remu	t1,t1,a2
    22dc:	02a685b3          	mul	a1,a3,a0
    22e0:	0342                	slli	t1,t1,0x10
    22e2:	00676733          	or	a4,a4,t1
    22e6:	00b77a63          	bgeu	a4,a1,22fa <__divdi3+0xa2>
    22ea:	9746                	add	a4,a4,a7
    22ec:	fff50313          	addi	t1,a0,-1
    22f0:	01176463          	bltu	a4,a7,22f8 <__divdi3+0xa0>
    22f4:	32b76c63          	bltu	a4,a1,262c <__divdi3+0x3d4>
    22f8:	851a                	mv	a0,t1
    22fa:	8f0d                	sub	a4,a4,a1
    22fc:	02c755b3          	divu	a1,a4,a2
    2300:	07c2                	slli	a5,a5,0x10
    2302:	83c1                	srli	a5,a5,0x10
    2304:	02c77733          	remu	a4,a4,a2
    2308:	02b686b3          	mul	a3,a3,a1
    230c:	0742                	slli	a4,a4,0x10
    230e:	8fd9                	or	a5,a5,a4
    2310:	00d7fb63          	bgeu	a5,a3,2326 <__divdi3+0xce>
    2314:	97c6                	add	a5,a5,a7
    2316:	fff58713          	addi	a4,a1,-1
    231a:	0117e563          	bltu	a5,a7,2324 <__divdi3+0xcc>
    231e:	15f9                	addi	a1,a1,-2
    2320:	00d7e363          	bltu	a5,a3,2326 <__divdi3+0xce>
    2324:	85ba                	mv	a1,a4
    2326:	0542                	slli	a0,a0,0x10
    2328:	8d4d                	or	a0,a0,a1
    232a:	4581                	li	a1,0
    232c:	00080963          	beqz	a6,233e <__divdi3+0xe6>
    2330:	00a037b3          	snez	a5,a0
    2334:	40b005b3          	neg	a1,a1
    2338:	8d9d                	sub	a1,a1,a5
    233a:	40a00533          	neg	a0,a0
    233e:	8082                	ret
    2340:	00d5fe63          	bgeu	a1,a3,235c <__divdi3+0x104>
    2344:	4581                	li	a1,0
    2346:	4501                	li	a0,0
    2348:	b7d5                	j	232c <__divdi3+0xd4>
    234a:	00a037b3          	snez	a5,a0
    234e:	40b005b3          	neg	a1,a1
    2352:	8d9d                	sub	a1,a1,a5
    2354:	40a00533          	neg	a0,a0
    2358:	587d                	li	a6,-1
    235a:	b711                	j	225e <__divdi3+0x6>
    235c:	67c1                	lui	a5,0x10
    235e:	18f6e663          	bltu	a3,a5,24ea <__divdi3+0x292>
    2362:	01000737          	lui	a4,0x1000
    2366:	47e1                	li	a5,24
    2368:	00e6f363          	bgeu	a3,a4,236e <__divdi3+0x116>
    236c:	47c1                	li	a5,16
    236e:	00f6d8b3          	srl	a7,a3,a5
    2372:	00001717          	auipc	a4,0x1
    2376:	21a70713          	addi	a4,a4,538 # 358c <__clz_tab>
    237a:	9746                	add	a4,a4,a7
    237c:	00074703          	lbu	a4,0(a4)
    2380:	02000313          	li	t1,32
    2384:	973e                	add	a4,a4,a5
    2386:	40e308b3          	sub	a7,t1,a4
    238a:	18e31563          	bne	t1,a4,2514 <__divdi3+0x2bc>
    238e:	28b6e163          	bltu	a3,a1,2610 <__divdi3+0x3b8>
    2392:	00c53533          	sltu	a0,a0,a2
    2396:	00153513          	seqz	a0,a0
    239a:	4581                	li	a1,0
    239c:	bf41                	j	232c <__divdi3+0xd4>
    239e:	c645                	beqz	a2,2446 <__divdi3+0x1ee>
    23a0:	6741                	lui	a4,0x10
    23a2:	24e67f63          	bgeu	a2,a4,2600 <__divdi3+0x3a8>
    23a6:	10063693          	sltiu	a3,a2,256
    23aa:	0016b693          	seqz	a3,a3
    23ae:	068e                	slli	a3,a3,0x3
    23b0:	00d65333          	srl	t1,a2,a3
    23b4:	00001717          	auipc	a4,0x1
    23b8:	1d870713          	addi	a4,a4,472 # 358c <__clz_tab>
    23bc:	971a                	add	a4,a4,t1
    23be:	00074703          	lbu	a4,0(a4)
    23c2:	02000313          	li	t1,32
    23c6:	9736                	add	a4,a4,a3
    23c8:	40e30f33          	sub	t5,t1,a4
    23cc:	08e31d63          	bne	t1,a4,2466 <__divdi3+0x20e>
    23d0:	40c58733          	sub	a4,a1,a2
    23d4:	01065313          	srli	t1,a2,0x10
    23d8:	0642                	slli	a2,a2,0x10
    23da:	8241                	srli	a2,a2,0x10
    23dc:	4585                	li	a1,1
    23de:	02675533          	divu	a0,a4,t1
    23e2:	0107d693          	srli	a3,a5,0x10
    23e6:	02677733          	remu	a4,a4,t1
    23ea:	02c50e33          	mul	t3,a0,a2
    23ee:	0742                	slli	a4,a4,0x10
    23f0:	8f55                	or	a4,a4,a3
    23f2:	01c77a63          	bgeu	a4,t3,2406 <__divdi3+0x1ae>
    23f6:	9746                	add	a4,a4,a7
    23f8:	fff50693          	addi	a3,a0,-1
    23fc:	01176463          	bltu	a4,a7,2404 <__divdi3+0x1ac>
    2400:	23c76363          	bltu	a4,t3,2626 <__divdi3+0x3ce>
    2404:	8536                	mv	a0,a3
    2406:	41c70733          	sub	a4,a4,t3
    240a:	026756b3          	divu	a3,a4,t1
    240e:	07c2                	slli	a5,a5,0x10
    2410:	83c1                	srli	a5,a5,0x10
    2412:	02677733          	remu	a4,a4,t1
    2416:	02c68633          	mul	a2,a3,a2
    241a:	0742                	slli	a4,a4,0x10
    241c:	8fd9                	or	a5,a5,a4
    241e:	00c7fb63          	bgeu	a5,a2,2434 <__divdi3+0x1dc>
    2422:	97c6                	add	a5,a5,a7
    2424:	fff68713          	addi	a4,a3,-1 # fffff <firmware.c.e6ea786d+0xfc218>
    2428:	0117e563          	bltu	a5,a7,2432 <__divdi3+0x1da>
    242c:	16f9                	addi	a3,a3,-2
    242e:	00c7e363          	bltu	a5,a2,2434 <__divdi3+0x1dc>
    2432:	86ba                	mv	a3,a4
    2434:	0542                	slli	a0,a0,0x10
    2436:	8d55                	or	a0,a0,a3
    2438:	bdd5                	j	232c <__divdi3+0xd4>
    243a:	10063693          	sltiu	a3,a2,256
    243e:	0016b693          	seqz	a3,a3
    2442:	068e                	slli	a3,a3,0x3
    2444:	b5b9                	j	2292 <__divdi3+0x3a>
    2446:	4301                	li	t1,0
    2448:	00001717          	auipc	a4,0x1
    244c:	14470713          	addi	a4,a4,324 # 358c <__clz_tab>
    2450:	971a                	add	a4,a4,t1
    2452:	00074703          	lbu	a4,0(a4)
    2456:	4681                	li	a3,0
    2458:	02000313          	li	t1,32
    245c:	9736                	add	a4,a4,a3
    245e:	40e30f33          	sub	t5,t1,a4
    2462:	f6e307e3          	beq	t1,a4,23d0 <__divdi3+0x178>
    2466:	01e618b3          	sll	a7,a2,t5
    246a:	00e5de33          	srl	t3,a1,a4
    246e:	0108d313          	srli	t1,a7,0x10
    2472:	026e5eb3          	divu	t4,t3,t1
    2476:	01089613          	slli	a2,a7,0x10
    247a:	01e595b3          	sll	a1,a1,t5
    247e:	8241                	srli	a2,a2,0x10
    2480:	00e55733          	srl	a4,a0,a4
    2484:	8f4d                	or	a4,a4,a1
    2486:	01075693          	srli	a3,a4,0x10
    248a:	01e517b3          	sll	a5,a0,t5
    248e:	026e7e33          	remu	t3,t3,t1
    2492:	03d605b3          	mul	a1,a2,t4
    2496:	0e42                	slli	t3,t3,0x10
    2498:	01c6e6b3          	or	a3,a3,t3
    249c:	00b6fb63          	bgeu	a3,a1,24b2 <__divdi3+0x25a>
    24a0:	96c6                	add	a3,a3,a7
    24a2:	fffe8513          	addi	a0,t4,-1
    24a6:	1716ec63          	bltu	a3,a7,261e <__divdi3+0x3c6>
    24aa:	16b6fa63          	bgeu	a3,a1,261e <__divdi3+0x3c6>
    24ae:	1ef9                	addi	t4,t4,-2
    24b0:	96c6                	add	a3,a3,a7
    24b2:	8e8d                	sub	a3,a3,a1
    24b4:	0266d533          	divu	a0,a3,t1
    24b8:	0742                	slli	a4,a4,0x10
    24ba:	8341                	srli	a4,a4,0x10
    24bc:	0266f6b3          	remu	a3,a3,t1
    24c0:	02a60e33          	mul	t3,a2,a0
    24c4:	06c2                	slli	a3,a3,0x10
    24c6:	8f55                	or	a4,a4,a3
    24c8:	01c77b63          	bgeu	a4,t3,24de <__divdi3+0x286>
    24cc:	9746                	add	a4,a4,a7
    24ce:	fff50693          	addi	a3,a0,-1
    24d2:	15176263          	bltu	a4,a7,2616 <__divdi3+0x3be>
    24d6:	15c77063          	bgeu	a4,t3,2616 <__divdi3+0x3be>
    24da:	1579                	addi	a0,a0,-2
    24dc:	9746                	add	a4,a4,a7
    24de:	010e9593          	slli	a1,t4,0x10
    24e2:	8dc9                	or	a1,a1,a0
    24e4:	41c70733          	sub	a4,a4,t3
    24e8:	bddd                	j	23de <__divdi3+0x186>
    24ea:	1006b793          	sltiu	a5,a3,256
    24ee:	0017b793          	seqz	a5,a5
    24f2:	078e                	slli	a5,a5,0x3
    24f4:	00f6d8b3          	srl	a7,a3,a5
    24f8:	00001717          	auipc	a4,0x1
    24fc:	09470713          	addi	a4,a4,148 # 358c <__clz_tab>
    2500:	9746                	add	a4,a4,a7
    2502:	00074703          	lbu	a4,0(a4)
    2506:	02000313          	li	t1,32
    250a:	973e                	add	a4,a4,a5
    250c:	40e308b3          	sub	a7,t1,a4
    2510:	e6e30fe3          	beq	t1,a4,238e <__divdi3+0x136>
    2514:	00e65eb3          	srl	t4,a2,a4
    2518:	011696b3          	sll	a3,a3,a7
    251c:	00deeeb3          	or	t4,t4,a3
    2520:	00e5d333          	srl	t1,a1,a4
    2524:	010edf13          	srli	t5,t4,0x10
    2528:	03e357b3          	divu	a5,t1,t5
    252c:	010e9e13          	slli	t3,t4,0x10
    2530:	011595b3          	sll	a1,a1,a7
    2534:	010e5e13          	srli	t3,t3,0x10
    2538:	00e55733          	srl	a4,a0,a4
    253c:	8f4d                	or	a4,a4,a1
    253e:	01075693          	srli	a3,a4,0x10
    2542:	01161633          	sll	a2,a2,a7
    2546:	03e37333          	remu	t1,t1,t5
    254a:	02fe05b3          	mul	a1,t3,a5
    254e:	0342                	slli	t1,t1,0x10
    2550:	0066e6b3          	or	a3,a3,t1
    2554:	00b6fb63          	bgeu	a3,a1,256a <__divdi3+0x312>
    2558:	96f6                	add	a3,a3,t4
    255a:	fff78313          	addi	t1,a5,-1 # ffff <firmware.c.e6ea786d+0xc218>
    255e:	0dd6e263          	bltu	a3,t4,2622 <__divdi3+0x3ca>
    2562:	0cb6f063          	bgeu	a3,a1,2622 <__divdi3+0x3ca>
    2566:	17f9                	addi	a5,a5,-2
    2568:	96f6                	add	a3,a3,t4
    256a:	8e8d                	sub	a3,a3,a1
    256c:	03e6d333          	divu	t1,a3,t5
    2570:	0742                	slli	a4,a4,0x10
    2572:	8341                	srli	a4,a4,0x10
    2574:	03e6f6b3          	remu	a3,a3,t5
    2578:	026e05b3          	mul	a1,t3,t1
    257c:	06c2                	slli	a3,a3,0x10
    257e:	8f55                	or	a4,a4,a3
    2580:	00b77b63          	bgeu	a4,a1,2596 <__divdi3+0x33e>
    2584:	9776                	add	a4,a4,t4
    2586:	fff30693          	addi	a3,t1,-1
    258a:	09d76863          	bltu	a4,t4,261a <__divdi3+0x3c2>
    258e:	08b77663          	bgeu	a4,a1,261a <__divdi3+0x3c2>
    2592:	1379                	addi	t1,t1,-2
    2594:	9776                	add	a4,a4,t4
    2596:	07c2                	slli	a5,a5,0x10
    2598:	01031693          	slli	a3,t1,0x10
    259c:	01061e13          	slli	t3,a2,0x10
    25a0:	0067e7b3          	or	a5,a5,t1
    25a4:	82c1                	srli	a3,a3,0x10
    25a6:	010e5e13          	srli	t3,t3,0x10
    25aa:	0107d313          	srli	t1,a5,0x10
    25ae:	8241                	srli	a2,a2,0x10
    25b0:	03c30eb3          	mul	t4,t1,t3
    25b4:	8f0d                	sub	a4,a4,a1
    25b6:	03c68e33          	mul	t3,a3,t3
    25ba:	02c686b3          	mul	a3,a3,a2
    25be:	010e5593          	srli	a1,t3,0x10
    25c2:	96f6                	add	a3,a3,t4
    25c4:	96ae                	add	a3,a3,a1
    25c6:	02c30333          	mul	t1,t1,a2
    25ca:	01d6f463          	bgeu	a3,t4,25d2 <__divdi3+0x37a>
    25ce:	6641                	lui	a2,0x10
    25d0:	9332                	add	t1,t1,a2
    25d2:	0106d613          	srli	a2,a3,0x10
    25d6:	961a                	add	a2,a2,t1
    25d8:	02c76063          	bltu	a4,a2,25f8 <__divdi3+0x3a0>
    25dc:	00c70563          	beq	a4,a2,25e6 <__divdi3+0x38e>
    25e0:	853e                	mv	a0,a5
    25e2:	4581                	li	a1,0
    25e4:	b3a1                	j	232c <__divdi3+0xd4>
    25e6:	0e42                	slli	t3,t3,0x10
    25e8:	010e5e13          	srli	t3,t3,0x10
    25ec:	06c2                	slli	a3,a3,0x10
    25ee:	01151533          	sll	a0,a0,a7
    25f2:	96f2                	add	a3,a3,t3
    25f4:	fed576e3          	bgeu	a0,a3,25e0 <__divdi3+0x388>
    25f8:	fff78513          	addi	a0,a5,-1
    25fc:	4581                	li	a1,0
    25fe:	b33d                	j	232c <__divdi3+0xd4>
    2600:	01000737          	lui	a4,0x1000
    2604:	02e67763          	bgeu	a2,a4,2632 <__divdi3+0x3da>
    2608:	01065313          	srli	t1,a2,0x10
    260c:	46c1                	li	a3,16
    260e:	b35d                	j	23b4 <__divdi3+0x15c>
    2610:	4581                	li	a1,0
    2612:	4505                	li	a0,1
    2614:	bb21                	j	232c <__divdi3+0xd4>
    2616:	8536                	mv	a0,a3
    2618:	b5d9                	j	24de <__divdi3+0x286>
    261a:	8336                	mv	t1,a3
    261c:	bfad                	j	2596 <__divdi3+0x33e>
    261e:	8eaa                	mv	t4,a0
    2620:	bd49                	j	24b2 <__divdi3+0x25a>
    2622:	879a                	mv	a5,t1
    2624:	b799                	j	256a <__divdi3+0x312>
    2626:	1579                	addi	a0,a0,-2
    2628:	9746                	add	a4,a4,a7
    262a:	bbf1                	j	2406 <__divdi3+0x1ae>
    262c:	1579                	addi	a0,a0,-2
    262e:	9746                	add	a4,a4,a7
    2630:	b1e9                	j	22fa <__divdi3+0xa2>
    2632:	01865313          	srli	t1,a2,0x18
    2636:	46e1                	li	a3,24
    2638:	bbb5                	j	23b4 <__divdi3+0x15c>

0000263a <__moddi3>:
    263a:	4701                	li	a4,0
    263c:	1205c563          	bltz	a1,2766 <__moddi3+0x12c>
    2640:	0006d963          	bgez	a3,2652 <__moddi3+0x18>
    2644:	00c037b3          	snez	a5,a2
    2648:	40d006b3          	neg	a3,a3
    264c:	8e9d                	sub	a3,a3,a5
    264e:	40c00633          	neg	a2,a2
    2652:	8832                	mv	a6,a2
    2654:	832a                	mv	t1,a0
    2656:	8e2e                	mv	t3,a1
    2658:	eed5                	bnez	a3,2714 <__moddi3+0xda>
    265a:	10c5ff63          	bgeu	a1,a2,2778 <__moddi3+0x13e>
    265e:	67c1                	lui	a5,0x10
    2660:	18f66e63          	bltu	a2,a5,27fc <__moddi3+0x1c2>
    2664:	010007b7          	lui	a5,0x1000
    2668:	46e1                	li	a3,24
    266a:	00f67363          	bgeu	a2,a5,2670 <__moddi3+0x36>
    266e:	46c1                	li	a3,16
    2670:	00d658b3          	srl	a7,a2,a3
    2674:	00001797          	auipc	a5,0x1
    2678:	f1878793          	addi	a5,a5,-232 # 358c <__clz_tab>
    267c:	97c6                	add	a5,a5,a7
    267e:	0007c783          	lbu	a5,0(a5)
    2682:	02000e93          	li	t4,32
    2686:	97b6                	add	a5,a5,a3
    2688:	40fe88b3          	sub	a7,t4,a5
    268c:	00fe8c63          	beq	t4,a5,26a4 <__moddi3+0x6a>
    2690:	01159e33          	sll	t3,a1,a7
    2694:	00f557b3          	srl	a5,a0,a5
    2698:	01c7ee33          	or	t3,a5,t3
    269c:	01161833          	sll	a6,a2,a7
    26a0:	01151333          	sll	t1,a0,a7
    26a4:	01085613          	srli	a2,a6,0x10
    26a8:	02ce56b3          	divu	a3,t3,a2
    26ac:	01081593          	slli	a1,a6,0x10
    26b0:	81c1                	srli	a1,a1,0x10
    26b2:	01035793          	srli	a5,t1,0x10
    26b6:	02ce7e33          	remu	t3,t3,a2
    26ba:	02b686b3          	mul	a3,a3,a1
    26be:	0e42                	slli	t3,t3,0x10
    26c0:	01c7e7b3          	or	a5,a5,t3
    26c4:	00d7f763          	bgeu	a5,a3,26d2 <__moddi3+0x98>
    26c8:	97c2                	add	a5,a5,a6
    26ca:	0107e463          	bltu	a5,a6,26d2 <__moddi3+0x98>
    26ce:	30d7ef63          	bltu	a5,a3,29ec <__moddi3+0x3b2>
    26d2:	8f95                	sub	a5,a5,a3
    26d4:	02c7d6b3          	divu	a3,a5,a2
    26d8:	01031513          	slli	a0,t1,0x10
    26dc:	8141                	srli	a0,a0,0x10
    26de:	02c7f7b3          	remu	a5,a5,a2
    26e2:	02b686b3          	mul	a3,a3,a1
    26e6:	07c2                	slli	a5,a5,0x10
    26e8:	8d5d                	or	a0,a0,a5
    26ea:	00d57863          	bgeu	a0,a3,26fa <__moddi3+0xc0>
    26ee:	9542                	add	a0,a0,a6
    26f0:	01056563          	bltu	a0,a6,26fa <__moddi3+0xc0>
    26f4:	00d57363          	bgeu	a0,a3,26fa <__moddi3+0xc0>
    26f8:	9542                	add	a0,a0,a6
    26fa:	8d15                	sub	a0,a0,a3
    26fc:	01155533          	srl	a0,a0,a7
    2700:	4581                	li	a1,0
    2702:	cb01                	beqz	a4,2712 <__moddi3+0xd8>
    2704:	00a037b3          	snez	a5,a0
    2708:	40b005b3          	neg	a1,a1
    270c:	8d9d                	sub	a1,a1,a5
    270e:	40a00533          	neg	a0,a0
    2712:	8082                	ret
    2714:	fed5e7e3          	bltu	a1,a3,2702 <__moddi3+0xc8>
    2718:	67c1                	lui	a5,0x10
    271a:	16f6ef63          	bltu	a3,a5,2898 <__moddi3+0x25e>
    271e:	01000837          	lui	a6,0x1000
    2722:	47e1                	li	a5,24
    2724:	0106f363          	bgeu	a3,a6,272a <__moddi3+0xf0>
    2728:	47c1                	li	a5,16
    272a:	00f6d8b3          	srl	a7,a3,a5
    272e:	00001817          	auipc	a6,0x1
    2732:	e5e80813          	addi	a6,a6,-418 # 358c <__clz_tab>
    2736:	9846                	add	a6,a6,a7
    2738:	00084803          	lbu	a6,0(a6)
    273c:	02000e13          	li	t3,32
    2740:	983e                	add	a6,a6,a5
    2742:	410e08b3          	sub	a7,t3,a6
    2746:	170e1e63          	bne	t3,a6,28c2 <__moddi3+0x288>
    274a:	00b6e463          	bltu	a3,a1,2752 <__moddi3+0x118>
    274e:	00c56a63          	bltu	a0,a2,2762 <__moddi3+0x128>
    2752:	40c50333          	sub	t1,a0,a2
    2756:	00653533          	sltu	a0,a0,t1
    275a:	40d586b3          	sub	a3,a1,a3
    275e:	40a685b3          	sub	a1,a3,a0
    2762:	851a                	mv	a0,t1
    2764:	bf79                	j	2702 <__moddi3+0xc8>
    2766:	00a037b3          	snez	a5,a0
    276a:	40b005b3          	neg	a1,a1
    276e:	8d9d                	sub	a1,a1,a5
    2770:	40a00533          	neg	a0,a0
    2774:	577d                	li	a4,-1
    2776:	b5e9                	j	2640 <__moddi3+0x6>
    2778:	ca41                	beqz	a2,2808 <__moddi3+0x1ce>
    277a:	67c1                	lui	a5,0x10
    277c:	24f67c63          	bgeu	a2,a5,29d4 <__moddi3+0x39a>
    2780:	10063693          	sltiu	a3,a2,256
    2784:	0016b693          	seqz	a3,a3
    2788:	068e                	slli	a3,a3,0x3
    278a:	00d658b3          	srl	a7,a2,a3
    278e:	00001797          	auipc	a5,0x1
    2792:	dfe78793          	addi	a5,a5,-514 # 358c <__clz_tab>
    2796:	97c6                	add	a5,a5,a7
    2798:	0007c783          	lbu	a5,0(a5)
    279c:	02000e13          	li	t3,32
    27a0:	97b6                	add	a5,a5,a3
    27a2:	40fe08b3          	sub	a7,t3,a5
    27a6:	08fe1163          	bne	t3,a5,2828 <__moddi3+0x1ee>
    27aa:	40c586b3          	sub	a3,a1,a2
    27ae:	01065e13          	srli	t3,a2,0x10
    27b2:	0642                	slli	a2,a2,0x10
    27b4:	8241                	srli	a2,a2,0x10
    27b6:	03c6d5b3          	divu	a1,a3,t3
    27ba:	01035793          	srli	a5,t1,0x10
    27be:	03c6f6b3          	remu	a3,a3,t3
    27c2:	02c585b3          	mul	a1,a1,a2
    27c6:	06c2                	slli	a3,a3,0x10
    27c8:	8fd5                	or	a5,a5,a3
    27ca:	00b7f863          	bgeu	a5,a1,27da <__moddi3+0x1a0>
    27ce:	97c2                	add	a5,a5,a6
    27d0:	0107e563          	bltu	a5,a6,27da <__moddi3+0x1a0>
    27d4:	00b7f363          	bgeu	a5,a1,27da <__moddi3+0x1a0>
    27d8:	97c2                	add	a5,a5,a6
    27da:	8f8d                	sub	a5,a5,a1
    27dc:	03c7d6b3          	divu	a3,a5,t3
    27e0:	0342                	slli	t1,t1,0x10
    27e2:	01035313          	srli	t1,t1,0x10
    27e6:	03c7f7b3          	remu	a5,a5,t3
    27ea:	02c686b3          	mul	a3,a3,a2
    27ee:	01079513          	slli	a0,a5,0x10
    27f2:	00a36533          	or	a0,t1,a0
    27f6:	f0d572e3          	bgeu	a0,a3,26fa <__moddi3+0xc0>
    27fa:	bdd5                	j	26ee <__moddi3+0xb4>
    27fc:	10063693          	sltiu	a3,a2,256
    2800:	0016b693          	seqz	a3,a3
    2804:	068e                	slli	a3,a3,0x3
    2806:	b5ad                	j	2670 <__moddi3+0x36>
    2808:	4881                	li	a7,0
    280a:	00001797          	auipc	a5,0x1
    280e:	d8278793          	addi	a5,a5,-638 # 358c <__clz_tab>
    2812:	97c6                	add	a5,a5,a7
    2814:	0007c783          	lbu	a5,0(a5)
    2818:	4681                	li	a3,0
    281a:	02000e13          	li	t3,32
    281e:	97b6                	add	a5,a5,a3
    2820:	40fe08b3          	sub	a7,t3,a5
    2824:	f8fe03e3          	beq	t3,a5,27aa <__moddi3+0x170>
    2828:	01161833          	sll	a6,a2,a7
    282c:	00f5deb3          	srl	t4,a1,a5
    2830:	01085e13          	srli	t3,a6,0x10
    2834:	03cedf33          	divu	t5,t4,t3
    2838:	01081613          	slli	a2,a6,0x10
    283c:	011595b3          	sll	a1,a1,a7
    2840:	00f556b3          	srl	a3,a0,a5
    2844:	8241                	srli	a2,a2,0x10
    2846:	8ecd                	or	a3,a3,a1
    2848:	0106d793          	srli	a5,a3,0x10
    284c:	01151333          	sll	t1,a0,a7
    2850:	03cefeb3          	remu	t4,t4,t3
    2854:	02cf05b3          	mul	a1,t5,a2
    2858:	0ec2                	slli	t4,t4,0x10
    285a:	01d7e7b3          	or	a5,a5,t4
    285e:	00b7f863          	bgeu	a5,a1,286e <__moddi3+0x234>
    2862:	97c2                	add	a5,a5,a6
    2864:	0107e563          	bltu	a5,a6,286e <__moddi3+0x234>
    2868:	00b7f363          	bgeu	a5,a1,286e <__moddi3+0x234>
    286c:	97c2                	add	a5,a5,a6
    286e:	8f8d                	sub	a5,a5,a1
    2870:	03c7d5b3          	divu	a1,a5,t3
    2874:	06c2                	slli	a3,a3,0x10
    2876:	82c1                	srli	a3,a3,0x10
    2878:	03c7f7b3          	remu	a5,a5,t3
    287c:	02c585b3          	mul	a1,a1,a2
    2880:	07c2                	slli	a5,a5,0x10
    2882:	8edd                	or	a3,a3,a5
    2884:	00b6f863          	bgeu	a3,a1,2894 <__moddi3+0x25a>
    2888:	96c2                	add	a3,a3,a6
    288a:	0106e563          	bltu	a3,a6,2894 <__moddi3+0x25a>
    288e:	00b6f363          	bgeu	a3,a1,2894 <__moddi3+0x25a>
    2892:	96c2                	add	a3,a3,a6
    2894:	8e8d                	sub	a3,a3,a1
    2896:	b705                	j	27b6 <__moddi3+0x17c>
    2898:	1006b793          	sltiu	a5,a3,256
    289c:	0017b793          	seqz	a5,a5
    28a0:	078e                	slli	a5,a5,0x3
    28a2:	00f6d8b3          	srl	a7,a3,a5
    28a6:	00001817          	auipc	a6,0x1
    28aa:	ce680813          	addi	a6,a6,-794 # 358c <__clz_tab>
    28ae:	9846                	add	a6,a6,a7
    28b0:	00084803          	lbu	a6,0(a6)
    28b4:	02000e13          	li	t3,32
    28b8:	983e                	add	a6,a6,a5
    28ba:	410e08b3          	sub	a7,t3,a6
    28be:	e90e06e3          	beq	t3,a6,274a <__moddi3+0x110>
    28c2:	011696b3          	sll	a3,a3,a7
    28c6:	01065333          	srl	t1,a2,a6
    28ca:	00d36333          	or	t1,t1,a3
    28ce:	0105de33          	srl	t3,a1,a6
    28d2:	01035e93          	srli	t4,t1,0x10
    28d6:	03de56b3          	divu	a3,t3,t4
    28da:	01031f13          	slli	t5,t1,0x10
    28de:	010f5f13          	srli	t5,t5,0x10
    28e2:	010557b3          	srl	a5,a0,a6
    28e6:	011595b3          	sll	a1,a1,a7
    28ea:	8ddd                	or	a1,a1,a5
    28ec:	0105d793          	srli	a5,a1,0x10
    28f0:	01161633          	sll	a2,a2,a7
    28f4:	01151533          	sll	a0,a0,a7
    28f8:	03de7e33          	remu	t3,t3,t4
    28fc:	02df0fb3          	mul	t6,t5,a3
    2900:	0e42                	slli	t3,t3,0x10
    2902:	01c7e7b3          	or	a5,a5,t3
    2906:	01f7fb63          	bgeu	a5,t6,291c <__moddi3+0x2e2>
    290a:	979a                	add	a5,a5,t1
    290c:	fff68e13          	addi	t3,a3,-1
    2910:	0c67ec63          	bltu	a5,t1,29e8 <__moddi3+0x3ae>
    2914:	0df7fa63          	bgeu	a5,t6,29e8 <__moddi3+0x3ae>
    2918:	16f9                	addi	a3,a3,-2
    291a:	979a                	add	a5,a5,t1
    291c:	41f787b3          	sub	a5,a5,t6
    2920:	03d7dfb3          	divu	t6,a5,t4
    2924:	05c2                	slli	a1,a1,0x10
    2926:	81c1                	srli	a1,a1,0x10
    2928:	03d7f7b3          	remu	a5,a5,t4
    292c:	03ff0f33          	mul	t5,t5,t6
    2930:	07c2                	slli	a5,a5,0x10
    2932:	8fcd                	or	a5,a5,a1
    2934:	01e7fb63          	bgeu	a5,t5,294a <__moddi3+0x310>
    2938:	979a                	add	a5,a5,t1
    293a:	ffff8593          	addi	a1,t6,-1
    293e:	0a67e363          	bltu	a5,t1,29e4 <__moddi3+0x3aa>
    2942:	0be7f163          	bgeu	a5,t5,29e4 <__moddi3+0x3aa>
    2946:	1ff9                	addi	t6,t6,-2
    2948:	979a                	add	a5,a5,t1
    294a:	06c2                	slli	a3,a3,0x10
    294c:	010f9e93          	slli	t4,t6,0x10
    2950:	01f6e6b3          	or	a3,a3,t6
    2954:	01061e13          	slli	t3,a2,0x10
    2958:	010ede93          	srli	t4,t4,0x10
    295c:	010e5e13          	srli	t3,t3,0x10
    2960:	82c1                	srli	a3,a3,0x10
    2962:	01065f93          	srli	t6,a2,0x10
    2966:	03c682b3          	mul	t0,a3,t3
    296a:	41e785b3          	sub	a1,a5,t5
    296e:	03ce8e33          	mul	t3,t4,t3
    2972:	03fe8eb3          	mul	t4,t4,t6
    2976:	010e5793          	srli	a5,t3,0x10
    297a:	9e96                	add	t4,t4,t0
    297c:	97f6                	add	a5,a5,t4
    297e:	03f686b3          	mul	a3,a3,t6
    2982:	0057f463          	bgeu	a5,t0,298a <__moddi3+0x350>
    2986:	6ec1                	lui	t4,0x10
    2988:	96f6                	add	a3,a3,t4
    298a:	0107de93          	srli	t4,a5,0x10
    298e:	0e42                	slli	t3,t3,0x10
    2990:	010e5e13          	srli	t3,t3,0x10
    2994:	07c2                	slli	a5,a5,0x10
    2996:	96f6                	add	a3,a3,t4
    2998:	97f2                	add	a5,a5,t3
    299a:	02d5e563          	bltu	a1,a3,29c4 <__moddi3+0x38a>
    299e:	02d58163          	beq	a1,a3,29c0 <__moddi3+0x386>
    29a2:	40f507b3          	sub	a5,a0,a5
    29a6:	00f53533          	sltu	a0,a0,a5
    29aa:	8d95                	sub	a1,a1,a3
    29ac:	8d89                	sub	a1,a1,a0
    29ae:	01059833          	sll	a6,a1,a6
    29b2:	0117d533          	srl	a0,a5,a7
    29b6:	0115d5b3          	srl	a1,a1,a7
    29ba:	00a86533          	or	a0,a6,a0
    29be:	b391                	j	2702 <__moddi3+0xc8>
    29c0:	fef571e3          	bgeu	a0,a5,29a2 <__moddi3+0x368>
    29c4:	40c78633          	sub	a2,a5,a2
    29c8:	00c7b7b3          	sltu	a5,a5,a2
    29cc:	979a                	add	a5,a5,t1
    29ce:	8e9d                	sub	a3,a3,a5
    29d0:	87b2                	mv	a5,a2
    29d2:	bfc1                	j	29a2 <__moddi3+0x368>
    29d4:	010007b7          	lui	a5,0x1000
    29d8:	00f67c63          	bgeu	a2,a5,29f0 <__moddi3+0x3b6>
    29dc:	01065893          	srli	a7,a2,0x10
    29e0:	46c1                	li	a3,16
    29e2:	b375                	j	278e <__moddi3+0x154>
    29e4:	8fae                	mv	t6,a1
    29e6:	b795                	j	294a <__moddi3+0x310>
    29e8:	86f2                	mv	a3,t3
    29ea:	bf0d                	j	291c <__moddi3+0x2e2>
    29ec:	97c2                	add	a5,a5,a6
    29ee:	b1d5                	j	26d2 <__moddi3+0x98>
    29f0:	01865893          	srli	a7,a2,0x18
    29f4:	46e1                	li	a3,24
    29f6:	bb61                	j	278e <__moddi3+0x154>

000029f8 <__gesf2>:
    29f8:	01755693          	srli	a3,a0,0x17
    29fc:	00800737          	lui	a4,0x800
    2a00:	87aa                	mv	a5,a0
    2a02:	177d                	addi	a4,a4,-1 # 7fffff <firmware.c.e6ea786d+0x7fc218>
    2a04:	0175d513          	srli	a0,a1,0x17
    2a08:	0ff6f693          	zext.b	a3,a3
    2a0c:	0ff00613          	li	a2,255
    2a10:	00f77833          	and	a6,a4,a5
    2a14:	0ff57513          	zext.b	a0,a0
    2a18:	8f6d                	and	a4,a4,a1
    2a1a:	83fd                	srli	a5,a5,0x1f
    2a1c:	81fd                	srli	a1,a1,0x1f
    2a1e:	02c68863          	beq	a3,a2,2a4e <__gesf2+0x56>
    2a22:	00c50b63          	beq	a0,a2,2a38 <__gesf2+0x40>
    2a26:	ee8d                	bnez	a3,2a60 <__gesf2+0x68>
    2a28:	e911                	bnez	a0,2a3c <__gesf2+0x44>
    2a2a:	cb21                	beqz	a4,2a7a <__gesf2+0x82>
    2a2c:	06081063          	bnez	a6,2a8c <__gesf2+0x94>
    2a30:	00159513          	slli	a0,a1,0x1
    2a34:	157d                	addi	a0,a0,-1
    2a36:	8082                	ret
    2a38:	eb21                	bnez	a4,2a88 <__gesf2+0x90>
    2a3a:	e299                	bnez	a3,2a40 <__gesf2+0x48>
    2a3c:	fe080ae3          	beqz	a6,2a30 <__gesf2+0x38>
    2a40:	04b78063          	beq	a5,a1,2a80 <__gesf2+0x88>
    2a44:	40f007b3          	neg	a5,a5
    2a48:	0017e513          	ori	a0,a5,1
    2a4c:	8082                	ret
    2a4e:	02081d63          	bnez	a6,2a88 <__gesf2+0x90>
    2a52:	fed519e3          	bne	a0,a3,2a44 <__gesf2+0x4c>
    2a56:	eb0d                	bnez	a4,2a88 <__gesf2+0x90>
    2a58:	feb796e3          	bne	a5,a1,2a44 <__gesf2+0x4c>
    2a5c:	4501                	li	a0,0
    2a5e:	8082                	ret
    2a60:	d175                	beqz	a0,2a44 <__gesf2+0x4c>
    2a62:	feb791e3          	bne	a5,a1,2a44 <__gesf2+0x4c>
    2a66:	fcd54fe3          	blt	a0,a3,2a44 <__gesf2+0x4c>
    2a6a:	00a6cb63          	blt	a3,a0,2a80 <__gesf2+0x88>
    2a6e:	fd076be3          	bltu	a4,a6,2a44 <__gesf2+0x4c>
    2a72:	4501                	li	a0,0
    2a74:	00e86663          	bltu	a6,a4,2a80 <__gesf2+0x88>
    2a78:	8082                	ret
    2a7a:	fc0815e3          	bnez	a6,2a44 <__gesf2+0x4c>
    2a7e:	8082                	ret
    2a80:	00179513          	slli	a0,a5,0x1
    2a84:	157d                	addi	a0,a0,-1
    2a86:	8082                	ret
    2a88:	5579                	li	a0,-2
    2a8a:	8082                	ret
    2a8c:	fab79ce3          	bne	a5,a1,2a44 <__gesf2+0x4c>
    2a90:	bff9                	j	2a6e <__gesf2+0x76>

00002a92 <__floatsisf>:
    2a92:	1141                	addi	sp,sp,-16
    2a94:	c606                	sw	ra,12(sp)
    2a96:	c422                	sw	s0,8(sp)
    2a98:	c226                	sw	s1,4(sp)
    2a9a:	cd15                	beqz	a0,2ad6 <__floatsisf+0x44>
    2a9c:	41f55713          	srai	a4,a0,0x1f
    2aa0:	00a74433          	xor	s0,a4,a0
    2aa4:	8c19                	sub	s0,s0,a4
    2aa6:	87aa                	mv	a5,a0
    2aa8:	8522                	mv	a0,s0
    2aaa:	01f7d493          	srli	s1,a5,0x1f
    2aae:	287d                	jal	2b6c <__clzsi2>
    2ab0:	09e00793          	li	a5,158
    2ab4:	40a786b3          	sub	a3,a5,a0
    2ab8:	09600793          	li	a5,150
    2abc:	02d7ca63          	blt	a5,a3,2af0 <__floatsisf+0x5e>
    2ac0:	4721                	li	a4,8
    2ac2:	0ae50263          	beq	a0,a4,2b66 <__floatsisf+0xd4>
    2ac6:	1561                	addi	a0,a0,-8
    2ac8:	00a41433          	sll	s0,s0,a0
    2acc:	0426                	slli	s0,s0,0x9
    2ace:	8025                	srli	s0,s0,0x9
    2ad0:	0ff6f793          	zext.b	a5,a3
    2ad4:	a021                	j	2adc <__floatsisf+0x4a>
    2ad6:	4481                	li	s1,0
    2ad8:	4781                	li	a5,0
    2ada:	4401                	li	s0,0
    2adc:	07de                	slli	a5,a5,0x17
    2ade:	40b2                	lw	ra,12(sp)
    2ae0:	8fc1                	or	a5,a5,s0
    2ae2:	4422                	lw	s0,8(sp)
    2ae4:	01f49513          	slli	a0,s1,0x1f
    2ae8:	8d5d                	or	a0,a0,a5
    2aea:	4492                	lw	s1,4(sp)
    2aec:	0141                	addi	sp,sp,16
    2aee:	8082                	ret
    2af0:	09900713          	li	a4,153
    2af4:	04d74063          	blt	a4,a3,2b34 <__floatsisf+0xa2>
    2af8:	ffb50793          	addi	a5,a0,-5
    2afc:	00f41433          	sll	s0,s0,a5
    2b00:	fc0007b7          	lui	a5,0xfc000
    2b04:	17fd                	addi	a5,a5,-1 # fbffffff <_eusrstack+0xdbffcfff>
    2b06:	00747713          	andi	a4,s0,7
    2b0a:	8fe1                	and	a5,a5,s0
    2b0c:	c731                	beqz	a4,2b58 <__floatsisf+0xc6>
    2b0e:	883d                	andi	s0,s0,15
    2b10:	4711                	li	a4,4
    2b12:	04e40363          	beq	s0,a4,2b58 <__floatsisf+0xc6>
    2b16:	0791                	addi	a5,a5,4
    2b18:	00579713          	slli	a4,a5,0x5
    2b1c:	0037d413          	srli	s0,a5,0x3
    2b20:	02075e63          	bgez	a4,2b5c <__floatsisf+0xca>
    2b24:	09f00793          	li	a5,159
    2b28:	0426                	slli	s0,s0,0x9
    2b2a:	8f89                	sub	a5,a5,a0
    2b2c:	8025                	srli	s0,s0,0x9
    2b2e:	0ff7f793          	zext.b	a5,a5
    2b32:	b76d                	j	2adc <__floatsisf+0x4a>
    2b34:	01b50793          	addi	a5,a0,27
    2b38:	4715                	li	a4,5
    2b3a:	00f417b3          	sll	a5,s0,a5
    2b3e:	8f09                	sub	a4,a4,a0
    2b40:	00f037b3          	snez	a5,a5
    2b44:	00e45433          	srl	s0,s0,a4
    2b48:	8c5d                	or	s0,s0,a5
    2b4a:	fc0007b7          	lui	a5,0xfc000
    2b4e:	17fd                	addi	a5,a5,-1 # fbffffff <_eusrstack+0xdbffcfff>
    2b50:	00747713          	andi	a4,s0,7
    2b54:	8fe1                	and	a5,a5,s0
    2b56:	ff45                	bnez	a4,2b0e <__floatsisf+0x7c>
    2b58:	0037d413          	srli	s0,a5,0x3
    2b5c:	0426                	slli	s0,s0,0x9
    2b5e:	8025                	srli	s0,s0,0x9
    2b60:	0ff6f793          	zext.b	a5,a3
    2b64:	bfa5                	j	2adc <__floatsisf+0x4a>
    2b66:	0426                	slli	s0,s0,0x9
    2b68:	8025                	srli	s0,s0,0x9
    2b6a:	bf8d                	j	2adc <__floatsisf+0x4a>

00002b6c <__clzsi2>:
    2b6c:	67c1                	lui	a5,0x10
    2b6e:	02f57663          	bgeu	a0,a5,2b9a <__clzsi2+0x2e>
    2b72:	10053793          	sltiu	a5,a0,256
    2b76:	0017b793          	seqz	a5,a5
    2b7a:	078e                	slli	a5,a5,0x3
    2b7c:	02000713          	li	a4,32
    2b80:	8f1d                	sub	a4,a4,a5
    2b82:	00f55533          	srl	a0,a0,a5
    2b86:	00001797          	auipc	a5,0x1
    2b8a:	a0678793          	addi	a5,a5,-1530 # 358c <__clz_tab>
    2b8e:	97aa                	add	a5,a5,a0
    2b90:	0007c503          	lbu	a0,0(a5)
    2b94:	40a70533          	sub	a0,a4,a0
    2b98:	8082                	ret
    2b9a:	010007b7          	lui	a5,0x1000
    2b9e:	02f57063          	bgeu	a0,a5,2bbe <__clzsi2+0x52>
    2ba2:	4741                	li	a4,16
    2ba4:	87ba                	mv	a5,a4
    2ba6:	00f55533          	srl	a0,a0,a5
    2baa:	00001797          	auipc	a5,0x1
    2bae:	9e278793          	addi	a5,a5,-1566 # 358c <__clz_tab>
    2bb2:	97aa                	add	a5,a5,a0
    2bb4:	0007c503          	lbu	a0,0(a5)
    2bb8:	40a70533          	sub	a0,a4,a0
    2bbc:	8082                	ret
    2bbe:	47e1                	li	a5,24
    2bc0:	00f55533          	srl	a0,a0,a5
    2bc4:	00001797          	auipc	a5,0x1
    2bc8:	9c878793          	addi	a5,a5,-1592 # 358c <__clz_tab>
    2bcc:	97aa                	add	a5,a5,a0
    2bce:	0007c503          	lbu	a0,0(a5)
    2bd2:	4721                	li	a4,8
    2bd4:	40a70533          	sub	a0,a4,a0
    2bd8:	8082                	ret
    2bda:	0000                	unimp
    2bdc:	7250                	.insn	2, 0x7250
    2bde:	7365                	lui	t1,0xffff9
    2be0:	20522073          	.insn	4, 0x20522073
    2be4:	6f66                	.insn	2, 0x6f66
    2be6:	2072                	.insn	2, 0x2072
    2be8:	0061                	c.nop	24
    2bea:	0000                	unimp
    2bec:	654e                	.insn	2, 0x654e
    2bee:	61472077          	.insn	4, 0x61472077
    2bf2:	656d                	lui	a0,0x1b
    2bf4:	0000                	unimp
    2bf6:	0000                	unimp
    2bf8:	656d6147          	.insn	4, 0x656d6147
    2bfc:	4f20                	lw	s0,88(a4)
    2bfe:	6576                	.insn	2, 0x6576
    2c00:	2172                	.insn	2, 0x2172
    2c02:	0000                	unimp
    2c04:	6325                	lui	t1,0x9
    2c06:	7325                	lui	t1,0xfffe9
    2c08:	0000                	unimp
    2c0a:	0000                	unimp
    2c0c:	3025                	jal	2434 <__divdi3+0x1dc>
    2c0e:	7832                	.insn	2, 0x7832
    2c10:	253a                	.insn	2, 0x253a
    2c12:	3230                	.insn	2, 0x3230
    2c14:	3a78                	.insn	2, 0x3a78
    2c16:	3025                	jal	243e <__divdi3+0x1e6>
    2c18:	7832                	.insn	2, 0x7832
    2c1a:	253a                	.insn	2, 0x253a
    2c1c:	3230                	.insn	2, 0x3230
    2c1e:	3a78                	.insn	2, 0x3a78
    2c20:	3025                	jal	2448 <__divdi3+0x1f0>
    2c22:	7832                	.insn	2, 0x7832
    2c24:	253a                	.insn	2, 0x253a
    2c26:	3230                	.insn	2, 0x3230
    2c28:	3a78                	.insn	2, 0x3a78
    2c2a:	3325                	jal	2952 <__moddi3+0x318>
    2c2c:	2064                	.insn	2, 0x2064
    2c2e:	6425                	lui	s0,0x9
    2c30:	003a                	c.slli	zero,0xe
    2c32:	0000                	unimp
    2c34:	3025                	jal	245c <__divdi3+0x204>
    2c36:	7832                	.insn	2, 0x7832
    2c38:	0020                	addi	s0,sp,8
    2c3a:	0000                	unimp
    2c3c:	3025                	jal	2464 <__divdi3+0x20c>
    2c3e:	7838                	.insn	2, 0x7838
    2c40:	0000                	unimp
    2c42:	0000                	unimp
    2c44:	3325                	jal	296c <__moddi3+0x332>
    2c46:	2064                	.insn	2, 0x2064
    2c48:	6425                	lui	s0,0x9
    2c4a:	0000                	unimp
    2c4c:	bbaa                	.insn	2, 0xbbaa
    2c4e:	ddcc                	sw	a1,60(a1)
    2c50:	ffee                	.insn	2, 0xffee
    2c52:	0000                	unimp
    2c54:	7325                	lui	t1,0xfffe9
    2c56:	4320                	lw	s0,64(a4)
    2c58:	6e61                	lui	t3,0x18
    2c5a:	6f6e                	.insn	2, 0x6f6e
    2c5c:	2074                	.insn	2, 0x2074
    2c5e:	666e6f43          	.insn	4, 0x666e6f43
    2c62:	6769                	lui	a4,0x1a
    2c64:	7275                	lui	tp,0xffffd
    2c66:	2065                	jal	2d0e <__clzsi2+0x1a2>
    2c68:	2040                	.insn	2, 0x2040
    2c6a:	6425                	lui	s0,0x9
    2c6c:	000a                	c.slli	zero,0x2
    2c6e:	0000                	unimp
    2c70:	534c                	lw	a1,36(a4)
    2c72:	364d                	jal	2814 <__moddi3+0x1da>
    2c74:	5344                	lw	s1,36(a4)
    2c76:	45522033          	.insn	4, 0x45522033
    2c7a:	00544553          	.insn	4, 0x00544553
    2c7e:	0000                	unimp
    2c80:	4d51                	li	s10,20
    2c82:	30333643          	.insn	4, 0x30333643
    2c86:	2039                	jal	2c94 <__clzsi2+0x128>
    2c88:	4552                	lw	a0,20(sp)
    2c8a:	00544553          	.insn	4, 0x00544553
    2c8e:	0000                	unimp
    2c90:	534c                	lw	a1,36(a4)
    2c92:	364d                	jal	2834 <__moddi3+0x1fa>
    2c94:	5344                	lw	s1,36(a4)
    2c96:	4d510033          	.insn	4, 0x4d510033
    2c9a:	30333643          	.insn	4, 0x30333643
    2c9e:	0039                	c.nop	14
    2ca0:	7546                	.insn	2, 0x7546
    2ca2:	6c6c                	.insn	2, 0x6c6c
    2ca4:	5320                	lw	s0,96(a4)
    2ca6:	25203a57          	.insn	4, 0x25203a57
    2caa:	3630                	.insn	2, 0x3630
    2cac:	0a78                	addi	a4,sp,284
    2cae:	0000                	unimp
    2cb0:	534c                	lw	a1,36(a4)
    2cb2:	364d                	jal	2854 <__moddi3+0x21a>
    2cb4:	5344                	lw	s1,36(a4)
    2cb6:	764f2033          	.insn	4, 0x764f2033
    2cba:	7265                	lui	tp,0xffff9
    2cbc:	6c66                	.insn	2, 0x6c66
    2cbe:	0000776f          	jal	a4,9cbe <firmware.c.e6ea786d+0x5ed7>
    2cc2:	0000                	unimp
    2cc4:	3025                	jal	24ec <__divdi3+0x294>
    2cc6:	7836                	.insn	2, 0x7836
    2cc8:	0020                	addi	s0,sp,8
    2cca:	0000                	unimp
    2ccc:	3025                	jal	24f4 <__divdi3+0x29c>
    2cce:	7834                	.insn	2, 0x7834
    2cd0:	0020                	addi	s0,sp,8
    2cd2:	0000                	unimp
    2cd4:	666e6f43          	.insn	4, 0x666e6f43
    2cd8:	7375                	lui	t1,0xffffd
    2cda:	6e69                	lui	t3,0x1a
    2cdc:	61742067          	.insn	4, 0x61742067
    2ce0:	25203a67          	.insn	4, 0x25203a67
    2ce4:	0a64                	addi	s1,sp,284
    2ce6:	0000                	unimp
    2ce8:	654d                	lui	a0,0x13
    2cea:	756e                	.insn	2, 0x756e
    2cec:	0000                	unimp
    2cee:	0000                	unimp
    2cf0:	7845                	lui	a6,0xffff1
    2cf2:	6d61                	lui	s10,0x18
    2cf4:	6c70                	.insn	2, 0x6c70
    2cf6:	0065                	c.nop	25
    2cf8:	6554                	.insn	2, 0x6554
    2cfa:	00007473          	.insn	4, 0x7473
    2cfe:	0000                	unimp
    2d00:	6150                	.insn	2, 0x6150
    2d02:	74207373          	.insn	4, 0x74207373
    2d06:	6568                	.insn	2, 0x6568
    2d08:	5020                	lw	s0,96(s0)
    2d0a:	6675                	lui	a2,0x1d
    2d0c:	6566                	.insn	2, 0x6566
    2d0e:	0072                	c.slli	zero,0x1c

00002d10 <fontdata>:
	...
    2d18:	817e 81a5 99bd 7e81 ff7e ffdb e7c3 7eff     ~......~~......~
    2d28:	fe6c fefe 387c 0010 3810 fe7c 387c 0010     l...|8...8|.|8..
    2d38:	7c38 fe38 d6fe 3810 3810 fe7c 7cfe 3810     8|8....8.8|..|.8
    2d48:	0000 3c18 183c 0000 ffff c3e7 e7c3 ffff     ...<<...........
    2d58:	3c00 4266 6642 003c c3ff bd99 99bd ffc3     .<fBBf<.........
    2d68:	070f 7d0f cccc 78cc 663c 6666 183c 187e     ...}...x<fff<.~.
    2d78:	333f 303f 7030 e0f0 637f 637f 6763 c0e6     ?3?00p...c.ccg..
    2d88:	db18 e73c 3ce7 18db e080 fef8 e0f8 0080     ..<..<..........
    2d98:	0e02 fe3e 0e3e 0002 3c18 187e 7e18 183c     ..>.>....<~..~<.
    2da8:	6666 6666 0066 0066 db7f 7bdb 1b1b 001b     fffff.f....{....
    2db8:	613e 663c 3c66 7c86 0000 0000 7e7e 007e     >a<ff<.|....~~~.
    2dc8:	3c18 187e 3c7e ff18 3c18 187e 1818 0018     .<~.~<...<~.....
    2dd8:	1818 1818 3c7e 0018 1800 fe0c 180c 0000     ....~<..........
    2de8:	3000 fe60 3060 0000 0000 c0c0 fec0 0000     .0`.`0..........
    2df8:	2400 ff66 2466 0000 1800 7e3c ffff 0000     .$f.f$....<~....
    2e08:	ff00 7eff 183c 0000 0000 0000 0000 0000     ...~<...........
    2e18:	3c18 183c 0018 0018 6666 0024 0000 0000     .<<.....ff$.....
    2e28:	6c6c 6cfe 6cfe 006c 3e18 3c60 7c06 0018     ll.l.ll..>`<.|..
    2e38:	c600 18cc 6630 00c6 6c38 7638 ccdc 0076     ....0f..8l8v..v.
    2e48:	1818 0030 0000 0000 180c 3030 1830 000c     ..0.......000...
    2e58:	1830 0c0c 180c 0030 6600 ff3c 663c 0000     0.....0..f<.<f..
    2e68:	1800 7e18 1818 0000 0000 0000 1800 3018     ...~...........0
    2e78:	0000 7e00 0000 0000 0000 0000 1800 0018     ...~............
    2e88:	0c06 3018 c060 0080 6c38 d6c6 6cc6 0038     ...0`...8l...l8.
    2e98:	3818 1818 1818 007e c67c 1c06 6630 00fe     .8....~.|...0f..
    2ea8:	c67c 3c06 c606 007c 3c1c cc6c 0cfe 001e     |..<..|..<l.....
    2eb8:	c0fe fcc0 c606 007c 6038 fcc0 c6c6 007c     ......|.8`....|.
    2ec8:	c6fe 180c 3030 0030 c67c 7cc6 c6c6 007c     ....000.|..|..|.
    2ed8:	c67c 7ec6 0c06 0078 1800 0018 1800 0018     |..~..x.........
    2ee8:	1800 0018 1800 3018 0c06 3018 0c18 0006     .......0...0....
    2ef8:	0000 007e 7e00 0000 3060 0c18 3018 0060     ..~..~..`0...0`.
    2f08:	c67c 180c 0018 0018 c67c dede c0de 0078     |.......|.....x.
    2f18:	6c38 fec6 c6c6 00c6 66fc 7c66 6666 00fc     8l.......ff|ff..
    2f28:	663c c0c0 66c0 003c 6cf8 6666 6c66 00f8     <f...f<..lfffl..
    2f38:	62fe 7868 6268 00fe 62fe 7868 6068 00f0     .bhxhb...bhxh`..
    2f48:	663c c0c0 66ce 003a c6c6 fec6 c6c6 00c6     <f...f:.........
    2f58:	183c 1818 1818 003c 0c1e 0c0c cccc 0078     <.....<.......x.
    2f68:	66e6 786c 666c 00e6 60f0 6060 6662 00fe     .flxlf...```bf..
    2f78:	eec6 fefe c6d6 00c6 e6c6 def6 c6ce 00c6     ................
    2f88:	c67c c6c6 c6c6 007c 66fc 7c66 6060 00f0     |.....|..ff|``..
    2f98:	c67c c6c6 cec6 0e7c 66fc 7c66 666c 00e6     |.....|..ff|lf..
    2fa8:	663c 1830 660c 003c 7e7e 185a 1818 003c     <f0..f<.~~Z...<.
    2fb8:	c6c6 c6c6 c6c6 007c c6c6 c6c6 6cc6 0038     ......|......l8.
    2fc8:	c6c6 d6c6 fed6 006c c6c6 386c c66c 00c6     ......l...l8l...
    2fd8:	6666 3c66 1818 003c c6fe 188c 6632 00fe     fff<..<.....2f..
    2fe8:	303c 3030 3030 003c 60c0 1830 060c 0002     <00000<..`0.....
    2ff8:	0c3c 0c0c 0c0c 003c 3810 c66c 0000 0000     <.....<..8l.....
    3008:	0000 0000 0000 ff00 1830 000c 0000 0000     ........0.......
    3018:	0000 0c78 cc7c 0076 60e0 667c 6666 00dc     ..x.|.v..`|fff..
    3028:	0000 c67c c6c0 007c 0c1c cc7c cccc 0076     ..|...|...|...v.
    3038:	0000 c67c c0fe 007c 663c f860 6060 00f0     ..|...|.<f`.``..
    3048:	0000 cc76 7ccc f80c 60e0 766c 6666 00e6     ..v..|...`lvff..
    3058:	0018 1838 1818 003c 0006 0606 6606 3c66     ..8...<......ff<
    3068:	60e0 6c66 6c78 00e6 1838 1818 1818 003c     .`flxl..8.....<.
    3078:	0000 feec d6d6 00d6 0000 66dc 6666 0066     ...........ffff.
    3088:	0000 c67c c6c6 007c 0000 66dc 7c66 f060     ..|...|....ff|`.
    3098:	0000 cc76 7ccc 1e0c 0000 76dc 6060 00f0     ..v..|.....v``..
    30a8:	0000 c07e 067c 00fc 3030 30fc 3630 001c     ..~.|...00.006..
    30b8:	0000 cccc cccc 0076 0000 c6c6 6cc6 0038     ......v......l8.
    30c8:	0000 d6c6 fed6 006c 0000 6cc6 6c38 00c6     ......l....l8l..
    30d8:	0000 c6c6 7ec6 fc06 0000 4c7e 3218 007e     .....~....~L.2~.
    30e8:	180e 7018 1818 000e 1818 1818 1818 0018     ...p............
    30f8:	1870 0e18 1818 0070 dc76 0000 0000 0000     p.....p.v.......
    3108:	1000 6c38 c6c6 00fe c67c c0c0 7cc6 780c     ..8l....|....|.x
    3118:	00cc cccc cccc 0076 180c c67c c0fe 007c     ......v...|...|.
    3128:	827c 0c78 cc7c 0076 00c6 0c78 cc7c 0076     |.x.|.v...x.|.v.
    3138:	1830 0c78 cc7c 0076 3030 0c78 cc7c 0076     0.x.|.v.00x.|.v.
    3148:	0000 c07e 7ec0 380c 827c c67c c0fe 007c     ..~..~.8|.|...|.
    3158:	00c6 c67c c0fe 007c 1830 c67c c0fe 007c     ..|...|.0.|...|.
    3168:	0066 1838 1818 003c 827c 1838 1818 003c     f.8...<.|.8...<.
    3178:	1830 3800 1818 003c 38c6 c66c c6fe 00c6     0..8..<..8l.....
    3188:	6c38 c67c c6fe 00c6 3018 c0fe c0f8 00fe     8l|......0......
    3198:	0000 187e d87e 007e 6c3e fecc cccc 00ce     ..~.~.~.>l......
    31a8:	827c c67c c6c6 007c 00c6 c67c c6c6 007c     |.|...|...|...|.
    31b8:	1830 c67c c6c6 007c 8478 cc00 cccc 0076     0.|...|.x.....v.
    31c8:	3060 cccc cccc 0076 00c6 c6c6 7ec6 fc06     `0....v......~..
    31d8:	38c6 c66c 6cc6 0038 00c6 c6c6 c6c6 007c     .8l..l8.......|.
    31e8:	1818 c07e 7ec0 1818 6c38 f064 6660 00fc     ..~..~..8ld.`f..
    31f8:	6666 7e3c 7e18 1818 ccf8 facc cfc6 c7c6     ff<~.~..........
    3208:	1b0e 3c18 d818 0070 3018 0c78 cc7c 0076     ...<..p..0x.|.v.
    3218:	180c 3800 1818 003c 180c c67c c6c6 007c     ...8..<...|...|.
    3228:	3018 cccc cccc 0076 dc76 dc00 6666 0066     .0....v.v...fff.
    3238:	dc76 e600 def6 00ce 6c3c 3e6c 7e00 0000     v.......<ll>.~..
    3248:	6c38 386c 7c00 0000 0018 1818 6330 003e     8ll8.|......0c>.
    3258:	0000 fe00 c0c0 0000 0000 fe00 0606 0000     ................
    3268:	e663 7e6c 6633 0fcc e663 7a6c 6a36 06df     c.l~3f..c.lz6j..
    3278:	0018 1818 3c3c 0018 3300 cc66 3366 0000     ....<<...3f.f3..
    3288:	cc00 3366 cc66 0000 8822 8822 8822 8822     ..f3f...".".".".
    3298:	aa55 aa55 aa55 aa55 dd77 dd77 dd77 dd77     U.U.U.U.w.w.w.w.
    32a8:	1818 1818 1818 1818 1818 1818 18f8 1818     ................
    32b8:	1818 18f8 18f8 1818 3636 3636 36f6 3636     ........6666.666
    32c8:	0000 0000 36fe 3636 0000 18f8 18f8 1818     .....666........
    32d8:	3636 06f6 36f6 3636 3636 3636 3636 3636     66...66666666666
    32e8:	0000 06fe 36f6 3636 3636 06f6 00fe 0000     .....66666......
    32f8:	3636 3636 00fe 0000 1818 18f8 00f8 0000     6666............
    3308:	0000 0000 18f8 1818 1818 1818 001f 0000     ................
    3318:	1818 1818 00ff 0000 0000 0000 18ff 1818     ................
    3328:	1818 1818 181f 1818 0000 0000 00ff 0000     ................
    3338:	1818 1818 18ff 1818 1818 181f 181f 1818     ................
    3348:	3636 3636 3637 3636 3636 3037 003f 0000     666676666670?...
    3358:	0000 303f 3637 3636 3636 00f7 00ff 0000     ..?0766666......
    3368:	0000 00ff 36f7 3636 3636 3037 3637 3636     .....66666707666
    3378:	0000 00ff 00ff 0000 3636 00f7 36f7 3636     ........66...666
    3388:	1818 00ff 00ff 0000 3636 3636 00ff 0000     ........6666....
    3398:	0000 00ff 18ff 1818 0000 0000 36ff 3636     .............666
    33a8:	3636 3636 003f 0000 1818 181f 001f 0000     6666?...........
    33b8:	0000 181f 181f 1818 0000 0000 363f 3636     ............?666
    33c8:	3636 3636 36ff 3636 1818 18ff 18ff 1818     6666.666........
    33d8:	1818 1818 00f8 0000 0000 0000 181f 1818     ................
    33e8:	ffff ffff ffff ffff 0000 0000 ffff ffff     ................
    33f8:	f0f0 f0f0 f0f0 f0f0 0f0f 0f0f 0f0f 0f0f     ................
    3408:	ffff ffff 0000 0000 0000 dc76 dcc8 0076     ..........v...v.
    3418:	cc78 d8cc c6cc 00cc c6fe c0c0 c0c0 00c0     x...............
    3428:	0000 6cfe 6c6c 006c c6fe 3060 c660 00fe     ...llll...`0`...
    3438:	0000 d87e d8d8 0070 0000 6666 6666 c07c     ..~...p...ffff|.
    3448:	7600 18dc 1818 0018 187e 663c 3c66 7e18     .v......~.<ff<.~
    3458:	6c38 fec6 6cc6 0038 6c38 c6c6 6c6c 00ee     8l...l8.8l..ll..
    3468:	180e 3e0c 6666 003c 0000 db7e 7edb 0000     ...>ff<...~..~..
    3478:	0c06 db7e 7edb c060 301e 7e60 3060 001e     ..~..~`..0`~`0..
    3488:	7c00 c6c6 c6c6 00c6 fe00 fe00 fe00 0000     .|..............
    3498:	1818 187e 0018 007e 1830 180c 0030 007e     ..~...~.0...0.~.
    34a8:	180c 1830 000c 007e 1b0e 181b 1818 1818     ..0...~.........
    34b8:	1818 1818 d818 70d8 1800 7e00 1800 0000     .......p...~....
    34c8:	7600 00dc dc76 0000 6c38 386c 0000 0000     .v..v...8ll8....
    34d8:	0000 1800 0018 0000 0000 1800 0000 0000     ................
    34e8:	0c0f 0c0c 6cec 1c3c 366c 3636 0036 0000     .....l<.l6666...
    34f8:	0c78 3018 007c 0000 0000 3c3c 3c3c 0000     x..0|.....<<<<..
	...

00003510 <LSM6DS3Regmap.1>:
    3510:	4412 5a10 5d11 280a 6006 0007 0908 aa09     .D.Z.].(.`......
    3520:	010a 600b 000d 0013 1015 0016 0113 0000     ...`............

00003530 <ssd1306_init_array>:
    3530:	00ae b010 00dc 6f81 a421 7fa8 00d3 f0d5     .......o!.......
    3540:	1dd9 35db ad40 a080 d901 8106 dbfe a8fe     ...5@...........
    3550:	af7f 00ff                                   ....

00003554 <gameModes>:
    3554:	2ce8 0000 2cf0 0000 2cf8 0000 2d00 0000     .,...,...,...-..

00003564 <channel_map>:
    3564:	0201 0403 0605 0807 0a09 0d0c 0f0e 1110     ................
    3574:	1312 1514 1716 1918 1b1a 1d1c 1f1e 2120     .............. !
    3584:	2322 2524 0026 270b                         "#$%&..'

0000358c <__clz_tab>:
    358c:	0100 0202 0303 0303 0404 0404 0404 0404     ................
    359c:	0505 0505 0505 0505 0505 0505 0505 0505     ................
    35ac:	0606 0606 0606 0606 0606 0606 0606 0606     ................
    35bc:	0606 0606 0606 0606 0606 0606 0606 0606     ................
    35cc:	0707 0707 0707 0707 0707 0707 0707 0707     ................
    35dc:	0707 0707 0707 0707 0707 0707 0707 0707     ................
    35ec:	0707 0707 0707 0707 0707 0707 0707 0707     ................
    35fc:	0707 0707 0707 0707 0707 0707 0707 0707     ................
    360c:	0808 0808 0808 0808 0808 0808 0808 0808     ................
    361c:	0808 0808 0808 0808 0808 0808 0808 0808     ................
    362c:	0808 0808 0808 0808 0808 0808 0808 0808     ................
    363c:	0808 0808 0808 0808 0808 0808 0808 0808     ................
    364c:	0808 0808 0808 0808 0808 0808 0808 0808     ................
    365c:	0808 0808 0808 0808 0808 0808 0808 0808     ................
    366c:	0808 0808 0808 0808 0808 0808 0808 0808     ................
    367c:	0808 0808 0808 0808 0808 0808 0808 0808     ................
