
firmware.elf:     file format elf32-littleriscv


Disassembly of section .init:

00000000 <InterruptVector>:
	void InterruptVector()         __attribute__((naked)) __attribute((section(".init"))) __attribute((weak,alias("InterruptVectorDefault"))) __attribute((naked));
	void InterruptVectorDefault()  __attribute__((naked)) __attribute((section(".init"))) __attribute((naked));
	void InterruptVectorDefault( void )
	{
		#if !defined(FUNCONF_TINYVECTOR) || !FUNCONF_TINYVECTOR
			asm volatile( DEFAULT_INTERRUPT_VECTOR_CONTENTS );
   0:	2100106f          	j	1210 <handle_reset>
   4:	00000000          	.word	0x00000000
   8:	000012c0          	.word	0x000012c0
   c:	000012c0          	.word	0x000012c0
  10:	f3f9bda9          	.word	0xf3f9bda9
  14:	000012c0          	.word	0x000012c0
	...
  20:	000012c0          	.word	0x000012c0
  24:	000012c0          	.word	0x000012c0
	...
  30:	000012c0          	.word	0x000012c0
  34:	00000000          	.word	0x00000000
  38:	000012c0          	.word	0x000012c0
  3c:	00000000          	.word	0x00000000
  40:	000012c0          	.word	0x000012c0
  44:	000012c0          	.word	0x000012c0
  48:	000012c0          	.word	0x000012c0
  4c:	000012c0          	.word	0x000012c0
  50:	000012c0          	.word	0x000012c0
  54:	00001d82          	.word	0x00001d82
  58:	000012c0          	.word	0x000012c0
  5c:	00000000          	.word	0x00000000
  60:	200002d2          	.word	0x200002d2
  64:	000012c0          	.word	0x000012c0
  68:	000012c0          	.word	0x000012c0
  6c:	000012c0          	.word	0x000012c0
  70:	000012c0          	.word	0x000012c0
  74:	000012c0          	.word	0x000012c0
  78:	000012c0          	.word	0x000012c0
  7c:	000012c0          	.word	0x000012c0
  80:	000012c0          	.word	0x000012c0
  84:	000012c0          	.word	0x000012c0
  88:	000012c0          	.word	0x000012c0
  8c:	000012c0          	.word	0x000012c0

Disassembly of section .highcode:

20000000 <EventRelease>:

// The timing on the setup has to be tight.
void EventRelease(void) __attribute__((section(".highcode"))) __attribute__((noinline));
void EventRelease(void)
{
	R8_TMR_CTRL_MOD = 0b00000010; // Reset Timer
20000000:	400027b7          	lui	a5,0x40002
20000004:	4709                	li	a4,2
20000006:	40e78023          	sb	a4,1024(a5) # 40002400 <_eusrstack+0x1ffff400>
	R8_TMR_CTRL_MOD = 0b11000101; // Capture mode rising edge
2000000a:	fc500713          	li	a4,-59
2000000e:	40e78023          	sb	a4,1024(a5)
#define funDigitalWrite( pin, value ) do{ if((value)==FUN_HIGH){GPIO_SetBits(pin);} else if((value)==FUN_LOW){GPIO_ResetBits(pin);} }while(0)
#define funGpioInitAll()              // funGpioInitAll() does not do anything on ch5xx, put here for consistency

RV_STATIC_INLINE void funPinMode(u32 pin, GPIOModeTypeDef mode)
{
	switch(mode) {
20000012:	4511                	li	a0,4
20000014:	e0001317          	auipc	t1,0xe0001
20000018:	e1630067          	jr	-490(t1) # e2a <funPinMode.part.0>

2000001c <iSLERRSSI>:

__HIGH_CODE
int iSLERRSSI() {
#ifdef CH570_CH572
	uint8_t *tx_buf = (uint8_t*)LLE_BUF;
	int len = tx_buf[1];
2000001c:	200017b7          	lui	a5,0x20001
	return (int8_t)tx_buf[len +4];
20000020:	4a57c783          	lbu	a5,1189(a5) # 200014a5 <LLE_BUF+0x1>
20000024:	20001737          	lui	a4,0x20001
20000028:	4a870713          	addi	a4,a4,1192 # 200014a8 <LLE_BUF+0x4>
2000002c:	97ba                	add	a5,a5,a4
#else
	return (int8_t)(BB->RSSI >> 0xf);
#endif
}
2000002e:	00078503          	lb	a0,0(a5)
20000032:	8082                	ret

20000034 <iSLERCRCOK>:

__HIGH_CODE
int iSLERCRCOK() {
#ifdef CH570_CH572
	uint8_t *tx_buf = (uint8_t*)LLE_BUF;
	int len = tx_buf[1];
20000034:	200017b7          	lui	a5,0x20001
	return (int8_t)!(tx_buf[len + 5] & 0x10);
20000038:	4a57c783          	lbu	a5,1189(a5) # 200014a5 <LLE_BUF+0x1>
2000003c:	20001737          	lui	a4,0x20001
20000040:	4a970713          	addi	a4,a4,1193 # 200014a9 <LLE_BUF+0x5>
20000044:	97ba                	add	a5,a5,a4
20000046:	0007c503          	lbu	a0,0(a5)
2000004a:	8111                	srli	a0,a0,0x4
2000004c:	8905                	andi	a0,a0,1
#else
	// Unimplemented!
	return -1;
#endif
}
2000004e:	00154513          	xori	a0,a0,1
20000052:	8082                	ret

20000054 <iSLERTX>:

__HIGH_CODE
void iSLERTX(uint32_t access_address, uint8_t adv[], size_t len, uint8_t channel, uint8_t phy_mode) {
20000054:	1101                	addi	sp,sp,-32
20000056:	ca26                	sw	s1,20(sp)
	BB->CTRL_TX = (BB->CTRL_TX & 0xfffffffc) | 1;
20000058:	4000c4b7          	lui	s1,0x4000c
2000005c:	10048493          	addi	s1,s1,256 # 4000c100 <_eusrstack+0x20009100>
20000060:	58dc                	lw	a5,52(s1)
void iSLERTX(uint32_t access_address, uint8_t adv[], size_t len, uint8_t channel, uint8_t phy_mode) {
20000062:	ce06                	sw	ra,28(sp)
20000064:	cc22                	sw	s0,24(sp)
	BB->CTRL_TX = (BB->CTRL_TX & 0xfffffffc) | 1;
20000066:	9bf1                	andi	a5,a5,-4
20000068:	0017e793          	ori	a5,a5,1
void iSLERTX(uint32_t access_address, uint8_t adv[], size_t len, uint8_t channel, uint8_t phy_mode) {
2000006c:	c84a                	sw	s2,16(sp)
2000006e:	c64e                	sw	s3,12(sp)
20000070:	c452                	sw	s4,8(sp)
20000072:	89aa                	mv	s3,a0
	BB->CTRL_TX = (BB->CTRL_TX & 0xfffffffc) | 1;
20000074:	d8dc                	sw	a5,52(s1)

	DevSetChannel(channel);
20000076:	8536                	mv	a0,a3
void iSLERTX(uint32_t access_address, uint8_t adv[], size_t len, uint8_t channel, uint8_t phy_mode) {
20000078:	8a2e                	mv	s4,a1
2000007a:	843a                	mv	s0,a4
2000007c:	8932                	mv	s2,a2
	DevSetChannel(channel);
2000007e:	e0001097          	auipc	ra,0xe0001
20000082:	c2c080e7          	jalr	-980(ra) # caa <DevSetChannel>

	// Uncomment to disable whitening to debug RF.
	//BB->CTRL_CFG |= (1<<6);
	DevSetMode(DEVSETMODE_TX);
20000086:	25800513          	li	a0,600
2000008a:	e0001097          	auipc	ra,0xe0001
2000008e:	b54080e7          	jalr	-1196(ra) # bde <DevSetMode>

	BB->ACCESSADDRESS1 = access_address; // access address
	BB->CRCINIT1 = 0x555555; // crc init
20000092:	005557b7          	lui	a5,0x555
	BB->ACCESSADDRESS1 = access_address; // access address
20000096:	0134a623          	sw	s3,12(s1)
	BB->CRCINIT1 = 0x555555; // crc init
2000009a:	55578793          	addi	a5,a5,1365 # 555555 <firmware.c.3f3d58ee+0x550f6d>
2000009e:	c0dc                	sw	a5,4(s1)
#ifdef CH570_CH572
	BB->ACCESSADDRESS2 = access_address;
200000a0:	0734a023          	sw	s3,96(s1)
	BB->CRCINIT2 = 0x555555;
200000a4:	ccbc                	sw	a5,88(s1)
	BB->CRCPOLY1 = (BB->CRCPOLY1 & 0xff000000) | 0x80032d; // crc poly
200000a6:	449c                	lw	a5,8(s1)
200000a8:	ff0006b7          	lui	a3,0xff000
200000ac:	00800737          	lui	a4,0x800
200000b0:	32d70713          	addi	a4,a4,813 # 80032d <firmware.c.3f3d58ee+0x7fbd45>
200000b4:	8ff5                	and	a5,a5,a3
200000b6:	8fd9                	or	a5,a5,a4
200000b8:	c49c                	sw	a5,8(s1)
	BB->CRCPOLY2 = (BB->CRCPOLY2 & 0xff000000) | 0x80032d;
200000ba:	4cfc                	lw	a5,92(s1)
200000bc:	8ff5                	and	a5,a5,a3
200000be:	8fd9                	or	a5,a5,a4
200000c0:	ccfc                	sw	a5,92(s1)
#endif

#if defined(CH571_CH573)
	DMA->TXBUF = (uint32_t)adv;
#else
	LL->TXBUF = (uint32_t)adv;
200000c2:	4000c7b7          	lui	a5,0x4000c
200000c6:	20078793          	addi	a5,a5,512 # 4000c200 <_eusrstack+0x20009200>
200000ca:	0747ac23          	sw	s4,120(a5)
#endif

	// Wait for tuning bit to clear.
	for( int timeout = 3000; !(RF->RF26 & 0x1000000) && timeout >= 0; timeout-- );
200000ce:	6785                	lui	a5,0x1
200000d0:	bba78793          	addi	a5,a5,-1094 # bba <ssd1306_drawPixel+0x18>
200000d4:	4000d737          	lui	a4,0x4000d
200000d8:	5734                	lw	a3,104(a4)
200000da:	00769613          	slli	a2,a3,0x7
200000de:	00064463          	bltz	a2,200000e6 <iSLERTX+0x92>
200000e2:	17fd                	addi	a5,a5,-1
200000e4:	fbf5                	bnez	a5,200000d8 <iSLERTX+0x84>
		BB->CTRL_CFG = (BB->CTRL_CFG & 0xffff3fff) | ((phy_mode == PHY_S2) ? 0x4000 : 0);
	}
#elif defined(CH571_CH573)
	BB->CTRL_CFG = CTRL_CFG_PHY_1M; // no 2M PHY on ch571/3
#else
	BB->CTRL_CFG = (phy_mode == PHY_2M) ? CTRL_CFG_PHY_2M:
200000e6:	4000c7b7          	lui	a5,0x4000c
200000ea:	4709                	li	a4,2
200000ec:	10078793          	addi	a5,a5,256 # 4000c100 <_eusrstack+0x20009100>
200000f0:	08e41863          	bne	s0,a4,20000180 <iSLERTX+0x12c>
200000f4:	4398                	lw	a4,0(a5)
200000f6:	cff77713          	andi	a4,a4,-769
200000fa:	4000c7b7          	lui	a5,0x4000c
200000fe:	10078793          	addi	a5,a5,256 # 4000c100 <_eusrstack+0x20009100>
20000102:	c398                	sw	a4,0(a5)
										  CTRL_CFG_PHY_1M; // default 1M for now
#endif

#if defined(CH570_CH572)
	BB->BB9 = (BB->BB9 & 0xf9ffffff) | ((phy_mode == PHY_2M) ? 0 : 0x2000000);
20000104:	53d8                	lw	a4,36(a5)
20000106:	1479                	addi	s0,s0,-2
20000108:	fa0006b7          	lui	a3,0xfa000
2000010c:	16fd                	addi	a3,a3,-1 # f9ffffff <_eusrstack+0xd9ffcfff>
2000010e:	00803433          	snez	s0,s0
20000112:	8f75                	and	a4,a4,a3
20000114:	0466                	slli	s0,s0,0x19
20000116:	8c59                	or	s0,s0,a4
20000118:	d3c0                	sw	s0,36(a5)
#if defined(CH571_CH573)
	BB->BB11 = (BB->BB11 & 0xfffffffc); // |2 for RX
#endif

	// This clears bit 17 (If set, seems to have no impact.)
	LL->LL4 &= 0xfffdffff;
2000011a:	4000c437          	lui	s0,0x4000c
2000011e:	20040413          	addi	s0,s0,512 # 4000c200 <_eusrstack+0x20009200>
20000122:	4818                	lw	a4,16(s0)
20000124:	7681                	lui	a3,0xfffe0
20000126:	16fd                	addi	a3,a3,-1 # fffdffff <_eusrstack+0xdffdcfff>
20000128:	8f75                	and	a4,a4,a3
2000012a:	c818                	sw	a4,16(s0)

#if !defined(CH571_CH573)
	LL->STATUS = LL_STATUS_TX;
2000012c:	00020737          	lui	a4,0x20
20000130:	c418                	sw	a4,8(s0)
#endif
	LL->TMR = (uint32_t)(len *512); // needs optimisation, per phy mode
20000132:	0926                	slli	s2,s2,0x9
20000134:	07242223          	sw	s2,100(s0)

	BB->CTRL_CFG |= CTRL_CFG_START_TX;
20000138:	4398                	lw	a4,0(a5)
2000013a:	010006b7          	lui	a3,0x1000
2000013e:	8f55                	or	a4,a4,a3
20000140:	c398                	sw	a4,0(a5)
	BB->CTRL_TX &= 0xfffffffc;
20000142:	5bd8                	lw	a4,52(a5)
20000144:	9b71                	andi	a4,a4,-4
20000146:	dbd8                	sw	a4,52(a5)

	LL->LL0 = 2; // Not sure what this does, but on RX it's 1
20000148:	4789                	li	a5,2
2000014a:	c01c                	sw	a5,0(s0)

	while(LL->TMR); // wait for tx buffer to empty
2000014c:	507c                	lw	a5,100(s0)
2000014e:	fffd                	bnez	a5,2000014c <iSLERTX+0xf8>
	DevSetMode(0);
20000150:	4501                	li	a0,0
20000152:	e0001097          	auipc	ra,0xe0001
20000156:	a8c080e7          	jalr	-1396(ra) # bde <DevSetMode>
	if(LL->LL0 & 3) {
2000015a:	401c                	lw	a5,0(s0)
2000015c:	8b8d                	andi	a5,a5,3
2000015e:	cb89                	beqz	a5,20000170 <iSLERTX+0x11c>
		LL->CTRL_MOD &= CTRL_MOD_RFSTOP;
20000160:	483c                	lw	a5,80(s0)
20000162:	8ff7f793          	andi	a5,a5,-1793
20000166:	c83c                	sw	a5,80(s0)
		LL->LL0 |= 0x08;
20000168:	401c                	lw	a5,0(s0)
2000016a:	0087e793          	ori	a5,a5,8
2000016e:	c01c                	sw	a5,0(s0)
	}
}
20000170:	40f2                	lw	ra,28(sp)
20000172:	4462                	lw	s0,24(sp)
20000174:	44d2                	lw	s1,20(sp)
20000176:	4942                	lw	s2,16(sp)
20000178:	49b2                	lw	s3,12(sp)
2000017a:	4a22                	lw	s4,8(sp)
2000017c:	6105                	addi	sp,sp,32
2000017e:	8082                	ret
										  CTRL_CFG_PHY_1M; // default 1M for now
20000180:	4398                	lw	a4,0(a5)
20000182:	cff77713          	andi	a4,a4,-769
	BB->CTRL_CFG = (phy_mode == PHY_2M) ? CTRL_CFG_PHY_2M:
20000186:	10076713          	ori	a4,a4,256
2000018a:	bf85                	j	200000fa <iSLERTX+0xa6>

2000018c <iSLERRX>:

__HIGH_CODE
void iSLERRX(uint32_t access_address, uint8_t channel, uint8_t phy_mode) {
2000018c:	1141                	addi	sp,sp,-16
2000018e:	c226                	sw	s1,4(sp)
20000190:	84aa                	mv	s1,a0
	DevSetMode(0);
20000192:	4501                	li	a0,0
void iSLERRX(uint32_t access_address, uint8_t channel, uint8_t phy_mode) {
20000194:	c422                	sw	s0,8(sp)
20000196:	c04a                	sw	s2,0(sp)
20000198:	c606                	sw	ra,12(sp)
2000019a:	892e                	mv	s2,a1
2000019c:	8432                	mv	s0,a2
	DevSetMode(0);
2000019e:	e0001097          	auipc	ra,0xe0001
200001a2:	a40080e7          	jalr	-1472(ra) # bde <DevSetMode>
	if(LL->LL0 & 3) {
200001a6:	4000c7b7          	lui	a5,0x4000c
200001aa:	20078793          	addi	a5,a5,512 # 4000c200 <_eusrstack+0x20009200>
200001ae:	4398                	lw	a4,0(a5)
200001b0:	8b0d                	andi	a4,a4,3
200001b2:	cb09                	beqz	a4,200001c4 <iSLERRX+0x38>
		LL->CTRL_MOD &= CTRL_MOD_RFSTOP;
200001b4:	4bb8                	lw	a4,80(a5)
200001b6:	8ff77713          	andi	a4,a4,-1793
200001ba:	cbb8                	sw	a4,80(a5)
		LL->LL0 |= 0x08;
200001bc:	4398                	lw	a4,0(a5)
200001be:	00876713          	ori	a4,a4,8
200001c2:	c398                	sw	a4,0(a5)
	}
	LL->TMR = 0;
200001c4:	4000c7b7          	lui	a5,0x4000c
200001c8:	20078793          	addi	a5,a5,512 # 4000c200 <_eusrstack+0x20009200>
200001cc:	0607a223          	sw	zero,100(a5)

	DevSetChannel(channel);
200001d0:	854a                	mv	a0,s2
200001d2:	e0001097          	auipc	ra,0xe0001
200001d6:	ad8080e7          	jalr	-1320(ra) # caa <DevSetChannel>
	DevSetMode(DEVSETMODE_RX);
200001da:	15800513          	li	a0,344
200001de:	e0001097          	auipc	ra,0xe0001
200001e2:	a00080e7          	jalr	-1536(ra) # bde <DevSetMode>
		BB->CTRL_CFG = (BB->CTRL_CFG & 0xffff3fff) | ((phy_mode == PHY_S2) ? 0x4000 : 0);
	}
#elif defined(CH571_CH573)
	BB->CTRL_CFG = CTRL_CFG_PHY_1M; // no 2M PHY on ch571/3
#else
	BB->CTRL_CFG = (phy_mode == PHY_2M) ? CTRL_CFG_PHY_2M:
200001e6:	4000c7b7          	lui	a5,0x4000c
200001ea:	10078793          	addi	a5,a5,256 # 4000c100 <_eusrstack+0x20009100>
200001ee:	439c                	lw	a5,0(a5)
200001f0:	4709                	li	a4,2
200001f2:	cff7f793          	andi	a5,a5,-769
200001f6:	0ce41863          	bne	s0,a4,200002c6 <iSLERRX+0x13a>
200001fa:	4000c737          	lui	a4,0x4000c
200001fe:	10070713          	addi	a4,a4,256 # 4000c100 <_eusrstack+0x20009100>
20000202:	c31c                	sw	a5,0(a4)
										  CTRL_CFG_PHY_1M; // default 1M for now
#endif

#ifdef CH570_CH572
	BB->BB9 = (BB->BB9 & 0xf9ffffff) | ((phy_mode == PHY_2M) ? 0 : 0x2000000);
20000204:	5354                	lw	a3,36(a4)
20000206:	ffe40793          	addi	a5,s0,-2
2000020a:	fa000637          	lui	a2,0xfa000
2000020e:	00f037b3          	snez	a5,a5
20000212:	167d                	addi	a2,a2,-1 # f9ffffff <_eusrstack+0xd9ffcfff>
20000214:	07e6                	slli	a5,a5,0x19
20000216:	8ef1                	and	a3,a3,a2
20000218:	8fd5                	or	a5,a5,a3
2000021a:	d35c                	sw	a5,36(a4)
	RF->RF20 = (RF->RF20 & 0xffffffe0) | ((phy_mode == PHY_2M) ? (tuneFilter2M & 0x1f) : (tuneFilter & 0x1f));
2000021c:	4000d7b7          	lui	a5,0x4000d
20000220:	4bbc                	lw	a5,80(a5)
20000222:	fe07f713          	andi	a4,a5,-32
20000226:	4789                	li	a5,2
20000228:	0af41263          	bne	s0,a5,200002cc <iSLERRX+0x140>
2000022c:	6c01a783          	lw	a5,1728(gp) # 20001460 <tuneFilter2M>
20000230:	8bfd                	andi	a5,a5,31
20000232:	8fd9                	or	a5,a5,a4
20000234:	4000d737          	lui	a4,0x4000d
20000238:	cb3c                	sw	a5,80(a4)
	BB->BB5 = (BB->BB5 & 0xffffffc0) | ((phy_mode == PHY_2M) ? 0xd : 0xb);
2000023a:	4000c7b7          	lui	a5,0x4000c
2000023e:	10078793          	addi	a5,a5,256 # 4000c100 <_eusrstack+0x20009100>
20000242:	4bd8                	lw	a4,20(a5)
20000244:	4609                	li	a2,2
20000246:	46ad                	li	a3,11
20000248:	fc077713          	andi	a4,a4,-64
2000024c:	00c41363          	bne	s0,a2,20000252 <iSLERRX+0xc6>
20000250:	46b5                	li	a3,13
20000252:	8f55                	or	a4,a4,a3
20000254:	cbd8                	sw	a4,20(a5)
	BB->BB7 = (BB->BB7 & 0xff00fc00) | ((phy_mode == PHY_2M) ? 0x7f00a0 : 0x79009c);
20000256:	4fd8                	lw	a4,28(a5)
20000258:	ff0107b7          	lui	a5,0xff010
2000025c:	c0078793          	addi	a5,a5,-1024 # ff00fc00 <_eusrstack+0xdf00cc00>
20000260:	8f7d                	and	a4,a4,a5
20000262:	4689                	li	a3,2
20000264:	007907b7          	lui	a5,0x790
20000268:	09c78793          	addi	a5,a5,156 # 79009c <firmware.c.3f3d58ee+0x78bab4>
2000026c:	00d41663          	bne	s0,a3,20000278 <iSLERRX+0xec>
20000270:	007f07b7          	lui	a5,0x7f0
20000274:	0a078793          	addi	a5,a5,160 # 7f00a0 <firmware.c.3f3d58ee+0x7ebab8>
20000278:	8f5d                	or	a4,a4,a5
2000027a:	4000c7b7          	lui	a5,0x4000c
2000027e:	10078793          	addi	a5,a5,256 # 4000c100 <_eusrstack+0x20009100>
20000282:	cfd8                	sw	a4,28(a5)
	BB->BB6 = (BB->BB6 & 0xfffffc00) | ((phy_mode == PHY_2M) ? 0x13a : 0x132);
	BB->BB4 = (BB->BB4 & 0x00ffffff) | ((phy_mode == PHY_2M) ? 0x78000000 : 0x7f000000);
#endif

	BB->ACCESSADDRESS1 = access_address; // access address
	BB->CRCINIT1 = 0x555555; // crc init
20000284:	00555737          	lui	a4,0x555
	BB->ACCESSADDRESS1 = access_address; // access address
20000288:	c7c4                	sw	s1,12(a5)
	BB->CRCINIT1 = 0x555555; // crc init
2000028a:	55570713          	addi	a4,a4,1365 # 555555 <firmware.c.3f3d58ee+0x550f6d>
2000028e:	c3d8                	sw	a4,4(a5)
#ifdef CH570_CH572
	BB->ACCESSADDRESS2 = access_address;
20000290:	d3a4                	sw	s1,96(a5)
	BB->CRCINIT2 = 0x555555;
20000292:	cfb8                	sw	a4,88(a5)
	BB->CRCPOLY1 = (BB->CRCPOLY1 & 0xff000000) | 0x80032d; // crc poly
20000294:	4798                	lw	a4,8(a5)
20000296:	ff000637          	lui	a2,0xff000
2000029a:	008006b7          	lui	a3,0x800
2000029e:	32d68693          	addi	a3,a3,813 # 80032d <firmware.c.3f3d58ee+0x7fbd45>
200002a2:	8f71                	and	a4,a4,a2
200002a4:	8f55                	or	a4,a4,a3
200002a6:	c798                	sw	a4,8(a5)
	BB->CRCPOLY2 = (BB->CRCPOLY2 & 0xff000000) | 0x80032d;
200002a8:	4ff8                	lw	a4,92(a5)

	LL->LL0 = 1; // Not sure what this does, but on TX it's 2
#ifndef ISLER_CALLBACK
	rx_ready = 0;
#endif
}
200002aa:	40b2                	lw	ra,12(sp)
200002ac:	4422                	lw	s0,8(sp)
	BB->CRCPOLY2 = (BB->CRCPOLY2 & 0xff000000) | 0x80032d;
200002ae:	8f71                	and	a4,a4,a2
200002b0:	8f55                	or	a4,a4,a3
200002b2:	cff8                	sw	a4,92(a5)
	LL->LL0 = 1; // Not sure what this does, but on TX it's 2
200002b4:	4000c7b7          	lui	a5,0x4000c
200002b8:	4705                	li	a4,1
200002ba:	20e7a023          	sw	a4,512(a5) # 4000c200 <_eusrstack+0x20009200>
}
200002be:	4492                	lw	s1,4(sp)
200002c0:	4902                	lw	s2,0(sp)
200002c2:	0141                	addi	sp,sp,16
200002c4:	8082                	ret
	BB->CTRL_CFG = (phy_mode == PHY_2M) ? CTRL_CFG_PHY_2M:
200002c6:	1007e793          	ori	a5,a5,256
200002ca:	bf05                	j	200001fa <iSLERRX+0x6e>
	RF->RF20 = (RF->RF20 & 0xffffffe0) | ((phy_mode == PHY_2M) ? (tuneFilter2M & 0x1f) : (tuneFilter & 0x1f));
200002cc:	6bc1a783          	lw	a5,1724(gp) # 2000145c <tuneFilter>
200002d0:	b785                	j	20000230 <iSLERRX+0xa4>

200002d2 <TMR1_IRQHandler>:
{
200002d2:	7139                	addi	sp,sp,-64
200002d4:	d62a                	sw	a0,44(sp)
200002d6:	ce3a                	sw	a4,28(sp)
200002d8:	cc3e                	sw	a5,24(sp)
200002da:	de06                	sw	ra,60(sp)
200002dc:	dc16                	sw	t0,56(sp)
200002de:	da1a                	sw	t1,52(sp)
200002e0:	d81e                	sw	t2,48(sp)
200002e2:	d42e                	sw	a1,40(sp)
200002e4:	d232                	sw	a2,36(sp)
200002e6:	d036                	sw	a3,32(sp)
200002e8:	ca42                	sw	a6,20(sp)
200002ea:	c846                	sw	a7,16(sp)
200002ec:	c672                	sw	t3,12(sp)
200002ee:	c476                	sw	t4,8(sp)
200002f0:	c27a                	sw	t5,4(sp)
200002f2:	c07e                	sw	t6,0(sp)
	R8_TMR_INT_FLAG = 2;
200002f4:	400027b7          	lui	a5,0x40002
200002f8:	4709                	li	a4,2
200002fa:	40e78323          	sb	a4,1030(a5) # 40002406 <_eusrstack+0x1ffff406>
	lastfifo = R32_TMR_FIFO;
200002fe:	4107a703          	lw	a4,1040(a5)
	funPinMode( PA2, GPIO_ModeOut_PP_20mA );
20000302:	4511                	li	a0,4
	lastfifo = R32_TMR_FIFO;
20000304:	6ae1ac23          	sw	a4,1720(gp) # 20001458 <lastfifo>
	funPinMode( PA2, GPIO_ModeOut_PP_20mA );
20000308:	e0001097          	auipc	ra,0xe0001
2000030c:	eea080e7          	jalr	-278(ra) # 11f2 <funPinMode.constprop.0>
}
20000310:	50f2                	lw	ra,60(sp)
20000312:	52e2                	lw	t0,56(sp)
20000314:	5352                	lw	t1,52(sp)
20000316:	53c2                	lw	t2,48(sp)
20000318:	5532                	lw	a0,44(sp)
2000031a:	55a2                	lw	a1,40(sp)
2000031c:	5612                	lw	a2,36(sp)
2000031e:	5682                	lw	a3,32(sp)
20000320:	4772                	lw	a4,28(sp)
20000322:	47e2                	lw	a5,24(sp)
20000324:	4852                	lw	a6,20(sp)
20000326:	48c2                	lw	a7,16(sp)
20000328:	4e32                	lw	t3,12(sp)
2000032a:	4ea2                	lw	t4,8(sp)
2000032c:	4f12                	lw	t5,4(sp)
2000032e:	4f82                	lw	t6,0(sp)
20000330:	6121                	addi	sp,sp,64
20000332:	30200073          	mret

20000336 <ConfigI2C>:
	#define DSDA_DONE_INPUT
#endif

I2CCODE void I2CFNCOLLAPSE(I2CPREFIX, ConfigI2C)()
{
	DSDA_IHIGH
20000336:	400017b7          	lui	a5,0x40001
2000033a:	0b878793          	addi	a5,a5,184 # 400010b8 <_eusrstack+0x1fffe0b8>
2000033e:	40000713          	li	a4,1024
20000342:	c398                	sw	a4,0(a5)
	DSCL_IHIGH
20000344:	6705                	lui	a4,0x1
20000346:	80070713          	addi	a4,a4,-2048 # 800 <_einit+0x770>
2000034a:	c398                	sw	a4,0(a5)
}
2000034c:	8082                	ret

2000034e <SendStart>:

I2CCODE void I2CFNCOLLAPSE(I2CPREFIX, SendStart)()
{
	DSDA_IHIGH
2000034e:	400017b7          	lui	a5,0x40001
20000352:	0b878793          	addi	a5,a5,184 # 400010b8 <_eusrstack+0x1fffe0b8>
20000356:	40000693          	li	a3,1024
2000035a:	c394                	sw	a3,0(a5)
	DELAY1
2000035c:	0001                	nop
2000035e:	0001                	nop
20000360:	0001                	nop
20000362:	0001                	nop
20000364:	0001                	nop
20000366:	0001                	nop
20000368:	0001                	nop
2000036a:	0001                	nop
2000036c:	0001                	nop
	DSCL_IHIGH
2000036e:	6705                	lui	a4,0x1
20000370:	80070713          	addi	a4,a4,-2048 # 800 <_einit+0x770>
20000374:	c398                	sw	a4,0(a5)
	DELAY1
20000376:	0001                	nop
20000378:	0001                	nop
2000037a:	0001                	nop
2000037c:	0001                	nop
2000037e:	0001                	nop
20000380:	0001                	nop
20000382:	0001                	nop
20000384:	0001                	nop
20000386:	0001                	nop
	DSDA_OUTPUT
20000388:	400017b7          	lui	a5,0x40001
2000038c:	0ac78793          	addi	a5,a5,172 # 400010ac <_eusrstack+0x1fffe0ac>
20000390:	c394                	sw	a3,0(a5)
	DELAY1
20000392:	0001                	nop
20000394:	0001                	nop
20000396:	0001                	nop
20000398:	0001                	nop
2000039a:	0001                	nop
2000039c:	0001                	nop
2000039e:	0001                	nop
200003a0:	0001                	nop
200003a2:	0001                	nop
	DSCL_OUTPUT
200003a4:	c398                	sw	a4,0(a5)
	DELAY1
200003a6:	0001                	nop
200003a8:	0001                	nop
200003aa:	0001                	nop
200003ac:	0001                	nop
200003ae:	0001                	nop
200003b0:	0001                	nop
200003b2:	0001                	nop
200003b4:	0001                	nop
200003b6:	0001                	nop
}
200003b8:	8082                	ret

200003ba <SendStop>:

I2CCODE void I2CFNCOLLAPSE(I2CPREFIX, SendStop)()
{
	DELAY1
200003ba:	0001                	nop
200003bc:	0001                	nop
200003be:	0001                	nop
200003c0:	0001                	nop
200003c2:	0001                	nop
200003c4:	0001                	nop
200003c6:	0001                	nop
200003c8:	0001                	nop
200003ca:	0001                	nop
	DSDA_OUTPUT
200003cc:	400017b7          	lui	a5,0x40001
200003d0:	0ac78793          	addi	a5,a5,172 # 400010ac <_eusrstack+0x1fffe0ac>
200003d4:	40000613          	li	a2,1024
200003d8:	c390                	sw	a2,0(a5)
	DELAY1
200003da:	0001                	nop
200003dc:	0001                	nop
200003de:	0001                	nop
200003e0:	0001                	nop
200003e2:	0001                	nop
200003e4:	0001                	nop
200003e6:	0001                	nop
200003e8:	0001                	nop
200003ea:	0001                	nop
	DSCL_IHIGH
200003ec:	400016b7          	lui	a3,0x40001
200003f0:	6705                	lui	a4,0x1
200003f2:	0b868693          	addi	a3,a3,184 # 400010b8 <_eusrstack+0x1fffe0b8>
200003f6:	80070713          	addi	a4,a4,-2048 # 800 <_einit+0x770>
200003fa:	c298                	sw	a4,0(a3)
	DELAY1
200003fc:	0001                	nop
200003fe:	0001                	nop
20000400:	0001                	nop
20000402:	0001                	nop
20000404:	0001                	nop
20000406:	0001                	nop
20000408:	0001                	nop
2000040a:	0001                	nop
2000040c:	0001                	nop
	DSDA_IHIGH
2000040e:	c290                	sw	a2,0(a3)
	DELAY1
20000410:	0001                	nop
20000412:	0001                	nop
20000414:	0001                	nop
20000416:	0001                	nop
20000418:	0001                	nop
2000041a:	0001                	nop
2000041c:	0001                	nop
2000041e:	0001                	nop
20000420:	0001                	nop
	DSCL_OUTPUT
20000422:	c398                	sw	a4,0(a5)
	DELAY1
20000424:	0001                	nop
20000426:	0001                	nop
20000428:	0001                	nop
2000042a:	0001                	nop
2000042c:	0001                	nop
2000042e:	0001                	nop
20000430:	0001                	nop
20000432:	0001                	nop
20000434:	0001                	nop
	DSDA_OUTPUT
20000436:	c390                	sw	a2,0(a5)
}
20000438:	8082                	ret

2000043a <SendByte>:
        {
            DSDA_IHIGH
        }
        else
        {
            DSDA_OUTPUT
2000043a:	400016b7          	lui	a3,0x40001
            DSDA_IHIGH
2000043e:	40001737          	lui	a4,0x40001
        }
        data <<= 1;
        DELAY2
        DSCL_IHIGH
20000442:	6785                	lui	a5,0x1
{
20000444:	4621                	li	a2,8
20000446:	40000593          	li	a1,1024
            DSDA_OUTPUT
2000044a:	0ac68693          	addi	a3,a3,172 # 400010ac <_eusrstack+0x1fffe0ac>
            DSDA_IHIGH
2000044e:	0b870713          	addi	a4,a4,184 # 400010b8 <_eusrstack+0x1fffe0b8>
        DSCL_IHIGH
20000452:	80078793          	addi	a5,a5,-2048 # 800 <_einit+0x770>
        if (data & 0x80)
20000456:	01851813          	slli	a6,a0,0x18
2000045a:	41885813          	srai	a6,a6,0x18
2000045e:	0a085563          	bgez	a6,20000508 <SendByte+0xce>
            DSDA_IHIGH
20000462:	c30c                	sw	a1,0(a4)
        data <<= 1;
20000464:	0506                	slli	a0,a0,0x1
20000466:	0ff57513          	zext.b	a0,a0
        DELAY2
2000046a:	0001                	nop
2000046c:	0001                	nop
2000046e:	0001                	nop
20000470:	0001                	nop
20000472:	0001                	nop
20000474:	0001                	nop
20000476:	0001                	nop
20000478:	0001                	nop
2000047a:	0001                	nop
        DSCL_IHIGH
2000047c:	c31c                	sw	a5,0(a4)
        DELAY1
2000047e:	0001                	nop
20000480:	0001                	nop
20000482:	0001                	nop
20000484:	0001                	nop
20000486:	0001                	nop
20000488:	0001                	nop
2000048a:	0001                	nop
2000048c:	0001                	nop
2000048e:	0001                	nop
        DSCL_OUTPUT
20000490:	c29c                	sw	a5,0(a3)
    for (i = 0; i < 8; i++)
20000492:	167d                	addi	a2,a2,-1 # feffffff <_eusrstack+0xdeffcfff>
20000494:	f269                	bnez	a2,20000456 <SendByte+0x1c>
    }

    // Immediately after sending last bit, open up DDDR for control.
    DELAY1
20000496:	0001                	nop
20000498:	0001                	nop
2000049a:	0001                	nop
2000049c:	0001                	nop
2000049e:	0001                	nop
200004a0:	0001                	nop
200004a2:	0001                	nop
200004a4:	0001                	nop
200004a6:	0001                	nop
    DSDA_INPUT
200004a8:	40000613          	li	a2,1024
200004ac:	c310                	sw	a2,0(a4)
    DELAY1
200004ae:	0001                	nop
200004b0:	0001                	nop
200004b2:	0001                	nop
200004b4:	0001                	nop
200004b6:	0001                	nop
200004b8:	0001                	nop
200004ba:	0001                	nop
200004bc:	0001                	nop
200004be:	0001                	nop
    DSCL_IHIGH
200004c0:	c31c                	sw	a5,0(a4)
    DELAY1
200004c2:	0001                	nop
200004c4:	0001                	nop
200004c6:	0001                	nop
200004c8:	0001                	nop
200004ca:	0001                	nop
200004cc:	0001                	nop
200004ce:	0001                	nop
200004d0:	0001                	nop
200004d2:	0001                	nop
    i = READ_DSDA;
200004d4:	40001737          	lui	a4,0x40001
200004d8:	0a472503          	lw	a0,164(a4) # 400010a4 <_eusrstack+0x1fffe0a4>
    DELAY1
200004dc:	0001                	nop
200004de:	0001                	nop
200004e0:	0001                	nop
200004e2:	0001                	nop
200004e4:	0001                	nop
200004e6:	0001                	nop
200004e8:	0001                	nop
200004ea:	0001                	nop
200004ec:	0001                	nop
	DSDA_DONE_INPUT
    DSCL_OUTPUT
200004ee:	c29c                	sw	a5,0(a3)
    DELAY1
200004f0:	0001                	nop
200004f2:	0001                	nop
200004f4:	0001                	nop
200004f6:	0001                	nop
200004f8:	0001                	nop
200004fa:	0001                	nop
200004fc:	0001                	nop
200004fe:	0001                	nop
20000500:	0001                	nop
    return !!i;
20000502:	8129                	srli	a0,a0,0xa
}
20000504:	8905                	andi	a0,a0,1
20000506:	8082                	ret
            DSDA_OUTPUT
20000508:	c28c                	sw	a1,0(a3)
2000050a:	bfa9                	j	20000464 <SendByte+0x2a>

2000050c <SendByteNoAck>:
        {
            DSDA_IHIGH
        }
        else
        {
            DSDA_OUTPUT
2000050c:	400017b7          	lui	a5,0x40001
            DSDA_IHIGH
20000510:	400016b7          	lui	a3,0x40001
        }
        data <<= 1;
        DELAY2
        DSCL_IHIGH
20000514:	6705                	lui	a4,0x1
{
20000516:	4621                	li	a2,8
20000518:	40000593          	li	a1,1024
            DSDA_OUTPUT
2000051c:	0ac78793          	addi	a5,a5,172 # 400010ac <_eusrstack+0x1fffe0ac>
            DSDA_IHIGH
20000520:	0b868693          	addi	a3,a3,184 # 400010b8 <_eusrstack+0x1fffe0b8>
        DSCL_IHIGH
20000524:	80070713          	addi	a4,a4,-2048 # 800 <_einit+0x770>
        if (data & 0x80)
20000528:	01851813          	slli	a6,a0,0x18
2000052c:	41885813          	srai	a6,a6,0x18
20000530:	0a085363          	bgez	a6,200005d6 <SendByteNoAck+0xca>
            DSDA_IHIGH
20000534:	c28c                	sw	a1,0(a3)
        data <<= 1;
20000536:	0506                	slli	a0,a0,0x1
20000538:	0ff57513          	zext.b	a0,a0
        DELAY2
2000053c:	0001                	nop
2000053e:	0001                	nop
20000540:	0001                	nop
20000542:	0001                	nop
20000544:	0001                	nop
20000546:	0001                	nop
20000548:	0001                	nop
2000054a:	0001                	nop
2000054c:	0001                	nop
        DSCL_IHIGH
2000054e:	c298                	sw	a4,0(a3)
        DELAY1
20000550:	0001                	nop
20000552:	0001                	nop
20000554:	0001                	nop
20000556:	0001                	nop
20000558:	0001                	nop
2000055a:	0001                	nop
2000055c:	0001                	nop
2000055e:	0001                	nop
20000560:	0001                	nop
        DSCL_OUTPUT
20000562:	c398                	sw	a4,0(a5)
    for (i = 0; i < 8; i++)
20000564:	167d                	addi	a2,a2,-1
20000566:	f269                	bnez	a2,20000528 <SendByteNoAck+0x1c>
    }

    // Immediately after sending last bit, open up DDDR for control.
    DELAY1
20000568:	0001                	nop
2000056a:	0001                	nop
2000056c:	0001                	nop
2000056e:	0001                	nop
20000570:	0001                	nop
20000572:	0001                	nop
20000574:	0001                	nop
20000576:	0001                	nop
20000578:	0001                	nop
    DSDA_OUTPUT
2000057a:	40000613          	li	a2,1024
2000057e:	c390                	sw	a2,0(a5)
    DELAY1
20000580:	0001                	nop
20000582:	0001                	nop
20000584:	0001                	nop
20000586:	0001                	nop
20000588:	0001                	nop
2000058a:	0001                	nop
2000058c:	0001                	nop
2000058e:	0001                	nop
20000590:	0001                	nop
    DSCL_IHIGH
20000592:	c298                	sw	a4,0(a3)
    DELAY1
20000594:	0001                	nop
20000596:	0001                	nop
20000598:	0001                	nop
2000059a:	0001                	nop
2000059c:	0001                	nop
2000059e:	0001                	nop
200005a0:	0001                	nop
200005a2:	0001                	nop
200005a4:	0001                	nop
    i = READ_DSDA;
200005a6:	400016b7          	lui	a3,0x40001
200005aa:	0a46a683          	lw	a3,164(a3) # 400010a4 <_eusrstack+0x1fffe0a4>
    DELAY1
200005ae:	0001                	nop
200005b0:	0001                	nop
200005b2:	0001                	nop
200005b4:	0001                	nop
200005b6:	0001                	nop
200005b8:	0001                	nop
200005ba:	0001                	nop
200005bc:	0001                	nop
200005be:	0001                	nop
    DSCL_OUTPUT
200005c0:	c398                	sw	a4,0(a5)
    DELAY1
200005c2:	0001                	nop
200005c4:	0001                	nop
200005c6:	0001                	nop
200005c8:	0001                	nop
200005ca:	0001                	nop
200005cc:	0001                	nop
200005ce:	0001                	nop
200005d0:	0001                	nop
200005d2:	0001                	nop
}
200005d4:	8082                	ret
            DSDA_OUTPUT
200005d6:	c38c                	sw	a1,0(a5)
200005d8:	bfb9                	j	20000536 <SendByteNoAck+0x2a>

200005da <GetByte>:
I2CCODE unsigned char I2CFNCOLLAPSE(I2CPREFIX, GetByte)(uint8_t send_nak)
{
    unsigned char i;
    unsigned char ret = 0;

    DSDA_INPUT
200005da:	400015b7          	lui	a1,0x40001
200005de:	0b858593          	addi	a1,a1,184 # 400010b8 <_eusrstack+0x1fffe0b8>
200005e2:	40000793          	li	a5,1024

    for (i = 0; i < 8; i++)
    {
        DELAY1
        DELAY1
        DSCL_IHIGH
200005e6:	6605                	lui	a2,0x1
        DELAY1
        ret <<= 1;
        if (READ_DSDA)
200005e8:	400018b7          	lui	a7,0x40001
            ret |= 1;
        DSCL_OUTPUT
200005ec:	400016b7          	lui	a3,0x40001
{
200005f0:	882a                	mv	a6,a0
    DSDA_INPUT
200005f2:	c19c                	sw	a5,0(a1)
200005f4:	4721                	li	a4,8
    unsigned char ret = 0;
200005f6:	4501                	li	a0,0
        DSCL_IHIGH
200005f8:	80060613          	addi	a2,a2,-2048 # 800 <_einit+0x770>
        if (READ_DSDA)
200005fc:	0a488893          	addi	a7,a7,164 # 400010a4 <_eusrstack+0x1fffe0a4>
        DSCL_OUTPUT
20000600:	0ac68693          	addi	a3,a3,172 # 400010ac <_eusrstack+0x1fffe0ac>
        DELAY1
20000604:	0001                	nop
20000606:	0001                	nop
20000608:	0001                	nop
2000060a:	0001                	nop
2000060c:	0001                	nop
2000060e:	0001                	nop
20000610:	0001                	nop
20000612:	0001                	nop
20000614:	0001                	nop
        DELAY1
20000616:	0001                	nop
20000618:	0001                	nop
2000061a:	0001                	nop
2000061c:	0001                	nop
2000061e:	0001                	nop
20000620:	0001                	nop
20000622:	0001                	nop
20000624:	0001                	nop
20000626:	0001                	nop
        DSCL_IHIGH
20000628:	c190                	sw	a2,0(a1)
        DELAY1
2000062a:	0001                	nop
2000062c:	0001                	nop
2000062e:	0001                	nop
20000630:	0001                	nop
20000632:	0001                	nop
20000634:	0001                	nop
20000636:	0001                	nop
20000638:	0001                	nop
2000063a:	0001                	nop
        ret <<= 1;
2000063c:	00151793          	slli	a5,a0,0x1
20000640:	0ff7f513          	zext.b	a0,a5
        if (READ_DSDA)
20000644:	0008a783          	lw	a5,0(a7)
20000648:	4007f793          	andi	a5,a5,1024
2000064c:	c399                	beqz	a5,20000652 <GetByte+0x78>
            ret |= 1;
2000064e:	00156513          	ori	a0,a0,1
    for (i = 0; i < 8; i++)
20000652:	177d                	addi	a4,a4,-1
        DSCL_OUTPUT
20000654:	c290                	sw	a2,0(a3)
    for (i = 0; i < 8; i++)
20000656:	0ff77713          	zext.b	a4,a4
2000065a:	f74d                	bnez	a4,20000604 <GetByte+0x2a>
    }

	DSDA_DONE_INPUT

    // Send ack.
    if (send_nak)
2000065c:	40000793          	li	a5,1024
20000660:	04080f63          	beqz	a6,200006be <GetByte+0xe4>
    {
		DSDA_IHIGH
20000664:	40001737          	lui	a4,0x40001
20000668:	0af72c23          	sw	a5,184(a4) # 400010b8 <_eusrstack+0x1fffe0b8>
    else
    {
        DSDA_OUTPUT
    }

    DELAY1
2000066c:	0001                	nop
2000066e:	0001                	nop
20000670:	0001                	nop
20000672:	0001                	nop
20000674:	0001                	nop
20000676:	0001                	nop
20000678:	0001                	nop
2000067a:	0001                	nop
2000067c:	0001                	nop
    DSCL_IHIGH
2000067e:	6705                	lui	a4,0x1
20000680:	400017b7          	lui	a5,0x40001
20000684:	80070713          	addi	a4,a4,-2048 # 800 <_einit+0x770>
20000688:	0ae7ac23          	sw	a4,184(a5) # 400010b8 <_eusrstack+0x1fffe0b8>
    DELAY2
2000068c:	0001                	nop
2000068e:	0001                	nop
20000690:	0001                	nop
20000692:	0001                	nop
20000694:	0001                	nop
20000696:	0001                	nop
20000698:	0001                	nop
2000069a:	0001                	nop
2000069c:	0001                	nop
    DSCL_OUTPUT
2000069e:	0ac78793          	addi	a5,a5,172
200006a2:	c398                	sw	a4,0(a5)
    DELAY1
200006a4:	0001                	nop
200006a6:	0001                	nop
200006a8:	0001                	nop
200006aa:	0001                	nop
200006ac:	0001                	nop
200006ae:	0001                	nop
200006b0:	0001                	nop
200006b2:	0001                	nop
200006b4:	0001                	nop
        DSDA_OUTPUT
200006b6:	40000713          	li	a4,1024
200006ba:	c398                	sw	a4,0(a5)
//    DSDA_IHIGH

    return ret;
}
200006bc:	8082                	ret
        DSDA_OUTPUT
200006be:	c29c                	sw	a5,0(a3)
200006c0:	b775                	j	2000066c <GetByte+0x92>

200006c2 <ProcessLSM6DS3>:

}

void ProcessLSM6DS3() __HIGH_CODE;
void ProcessLSM6DS3()
{
200006c2:	7139                	addi	sp,sp,-64
200006c4:	de06                	sw	ra,60(sp)
200006c6:	dc22                	sw	s0,56(sp)
200006c8:	da26                	sw	s1,52(sp)
200006ca:	d84a                	sw	s2,48(sp)
200006cc:	d64e                	sw	s3,44(sp)
200006ce:	d452                	sw	s4,40(sp)
200006d0:	d256                	sw	s5,36(sp)
200006d2:	d05a                	sw	s6,32(sp)
200006d4:	ce5e                	sw	s7,28(sp)
	SendStart();
200006d6:	39a5                	jal	2000034e <SendStart>
	SendByteNoAck( LSM6DS3_ADDRESS<<1 );
200006d8:	0d400513          	li	a0,212
200006dc:	3d05                	jal	2000050c <SendByteNoAck>
	SendByteNoAck( 0x3a );
200006de:	03a00513          	li	a0,58
200006e2:	352d                	jal	2000050c <SendByteNoAck>
	SendStart();
200006e4:	31ad                	jal	2000034e <SendStart>
	SendByteNoAck( (LSM6DS3_ADDRESS<<1)|1 );
200006e6:	0d500513          	li	a0,213
200006ea:	350d                	jal	2000050c <SendByteNoAck>

	uint32_t sw = 0;
	sw = GetByte( 0 );
200006ec:	4501                	li	a0,0
200006ee:	35f5                	jal	200005da <GetByte>
200006f0:	84aa                	mv	s1,a0
	sw |= GetByte( 0 ) << 8ULL;
200006f2:	4501                	li	a0,0
200006f4:	35dd                	jal	200005da <GetByte>
200006f6:	842a                	mv	s0,a0
	sw |= GetByte( 1 ) << 16ULL;
200006f8:	4505                	li	a0,1
200006fa:	35c5                	jal	200005da <GetByte>
200006fc:	0542                	slli	a0,a0,0x10
	sw |= GetByte( 0 ) << 8ULL;
200006fe:	0422                	slli	s0,s0,0x8
	sw |= GetByte( 1 ) << 16ULL;
20000700:	8c49                	or	s0,s0,a0
20000702:	8c45                	or	s0,s0,s1

	SendStop();
20000704:	395d                	jal	200003ba <SendStop>

	if( sw & 0x4000 )
20000706:	01141793          	slli	a5,s0,0x11
	{
		printf( "Full SW: %06x\n", (int)sw );
2000070a:	85a2                	mv	a1,s0
	if( sw & 0x4000 )
2000070c:	0407d463          	bgez	a5,20000754 <ProcessLSM6DS3+0x92>
		printf( "Full SW: %06x\n", (int)sw );
20000710:	650d                	lui	a0,0x3
20000712:	85050513          	addi	a0,a0,-1968 # 2850 <ModeTestLoop+0x128>
20000716:	e0001097          	auipc	ra,0xe0001
2000071a:	d94080e7          	jalr	-620(ra) # 14aa <printf>
		// Need to reset fifo.

		SetupRegisterMap( LSM6DS3_ADDRESS, 
			(const uint8_t[]){ 0x0a, 0x28, 0x0a, 0x2e },
2000071e:	2e0a37b7          	lui	a5,0x2e0a3
		SetupRegisterMap( LSM6DS3_ADDRESS, 
20000722:	668d                	lui	a3,0x3
			(const uint8_t[]){ 0x0a, 0x28, 0x0a, 0x2e },
20000724:	80a78793          	addi	a5,a5,-2038 # 2e0a280a <_eusrstack+0xe09f80a>
		SetupRegisterMap( LSM6DS3_ADDRESS, 
20000728:	86068693          	addi	a3,a3,-1952 # 2860 <ModeTestLoop+0x138>
2000072c:	4609                	li	a2,2
2000072e:	006c                	addi	a1,sp,12
20000730:	06a00513          	li	a0,106
			(const uint8_t[]){ 0x0a, 0x28, 0x0a, 0x2e },
20000734:	c63e                	sw	a5,12(sp)
		SetupRegisterMap( LSM6DS3_ADDRESS, 
20000736:	e0002097          	auipc	ra,0xe0002
2000073a:	8ac080e7          	jalr	-1876(ra) # 1fe2 <SetupRegisterMap.isra.0>
		//printf( "\n" );
	}
	printf( "\n" );

	SendStop();
}
2000073e:	50f2                	lw	ra,60(sp)
20000740:	5462                	lw	s0,56(sp)
20000742:	54d2                	lw	s1,52(sp)
20000744:	5942                	lw	s2,48(sp)
20000746:	59b2                	lw	s3,44(sp)
20000748:	5a22                	lw	s4,40(sp)
2000074a:	5a92                	lw	s5,36(sp)
2000074c:	5b02                	lw	s6,32(sp)
2000074e:	4bf2                	lw	s7,28(sp)
20000750:	6121                	addi	sp,sp,64
20000752:	8082                	ret
	printf( "%06x ", (unsigned int)sw );
20000754:	650d                	lui	a0,0x3
20000756:	87450513          	addi	a0,a0,-1932 # 2874 <ModeTestLoop+0x14c>
2000075a:	e0001097          	auipc	ra,0xe0001
2000075e:	d50080e7          	jalr	-688(ra) # 14aa <printf>
	if( samps > 63 ) samps = 63;
20000762:	7c047793          	andi	a5,s0,1984
20000766:	efc9                	bnez	a5,20000800 <ProcessLSM6DS3+0x13e>
20000768:	7ff47413          	andi	s0,s0,2047
	if( samps == 0 )
2000076c:	d869                	beqz	s0,2000073e <ProcessLSM6DS3+0x7c>
	SendStart();
2000076e:	36c5                	jal	2000034e <SendStart>
	SendByteNoAck( LSM6DS3_ADDRESS<<1 );
20000770:	0d400513          	li	a0,212
20000774:	3b61                	jal	2000050c <SendByteNoAck>
	SendByteNoAck( 0x20 );
20000776:	02000513          	li	a0,32
2000077a:	3b49                	jal	2000050c <SendByteNoAck>
	SendStart();
2000077c:	3ec9                	jal	2000034e <SendStart>
	SendByteNoAck( (LSM6DS3_ADDRESS<<1)|1 );
2000077e:	0d500513          	li	a0,213
20000782:	3369                	jal	2000050c <SendByteNoAck>
	uint32_t ta = GetByte( 0 );
20000784:	4501                	li	a0,0
20000786:	3d91                	jal	200005da <GetByte>
	ta |= GetByte( 0 )<<8; // Ignore FIFO status 4
20000788:	4501                	li	a0,0
2000078a:	3d81                	jal	200005da <GetByte>
	for( samp = 0; samp < samps; samp++ )
2000078c:	4481                	li	s1,0
			int end = (i==5 && samp == samps-1);
2000078e:	4a15                	li	s4,5
20000790:	fff40b13          	addi	s6,s0,-1
				printf( "%04x ", val );
20000794:	6b8d                	lui	s7,0x3
		for( i = 0; i < 6; i++ )
20000796:	4a99                	li	s5,6
20000798:	4901                	li	s2,0
			uint16_t val = GetByte( 0 );
2000079a:	4501                	li	a0,0
2000079c:	3d3d                	jal	200005da <GetByte>
2000079e:	89aa                	mv	s3,a0
			int end = (i==5 && samp == samps-1);
200007a0:	4501                	li	a0,0
200007a2:	01491b63          	bne	s2,s4,200007b8 <ProcessLSM6DS3+0xf6>
200007a6:	009b1963          	bne	s6,s1,200007b8 <ProcessLSM6DS3+0xf6>
			if( end ) printf( "." );
200007aa:	02e00513          	li	a0,46
200007ae:	e0001097          	auipc	ra,0xe0001
200007b2:	442080e7          	jalr	1090(ra) # 1bf0 <putchar>
			int end = (i==5 && samp == samps-1);
200007b6:	4505                	li	a0,1
			val |= GetByte( end ) << 8;
200007b8:	350d                	jal	200005da <GetByte>
			if( samp == 0 )
200007ba:	ec89                	bnez	s1,200007d4 <ProcessLSM6DS3+0x112>
			val |= GetByte( end ) << 8;
200007bc:	00851593          	slli	a1,a0,0x8
200007c0:	0135e5b3          	or	a1,a1,s3
				printf( "%04x ", val );
200007c4:	05c2                	slli	a1,a1,0x10
200007c6:	81c1                	srli	a1,a1,0x10
200007c8:	87cb8513          	addi	a0,s7,-1924 # 287c <ModeTestLoop+0x154>
200007cc:	e0001097          	auipc	ra,0xe0001
200007d0:	cde080e7          	jalr	-802(ra) # 14aa <printf>
		for( i = 0; i < 6; i++ )
200007d4:	0905                	addi	s2,s2,1
200007d6:	fd5912e3          	bne	s2,s5,2000079a <ProcessLSM6DS3+0xd8>
	for( samp = 0; samp < samps; samp++ )
200007da:	0485                	addi	s1,s1,1
200007dc:	fa941ee3          	bne	s0,s1,20000798 <ProcessLSM6DS3+0xd6>
	printf( "\n" );
200007e0:	4529                	li	a0,10
200007e2:	e0001097          	auipc	ra,0xe0001
200007e6:	40e080e7          	jalr	1038(ra) # 1bf0 <putchar>
}
200007ea:	5462                	lw	s0,56(sp)
200007ec:	50f2                	lw	ra,60(sp)
200007ee:	54d2                	lw	s1,52(sp)
200007f0:	5942                	lw	s2,48(sp)
200007f2:	59b2                	lw	s3,44(sp)
200007f4:	5a22                	lw	s4,40(sp)
200007f6:	5a92                	lw	s5,36(sp)
200007f8:	5b02                	lw	s6,32(sp)
200007fa:	4bf2                	lw	s7,28(sp)
200007fc:	6121                	addi	sp,sp,64
	SendStop();
200007fe:	be75                	j	200003ba <SendStop>
	if( samps > 63 ) samps = 63;
20000800:	03f00413          	li	s0,63
20000804:	b7ad                	j	2000076e <ProcessLSM6DS3+0xac>

20000806 <CoreLoop>:


void CoreLoop() __HIGH_CODE;

void CoreLoop()
{
20000806:	715d                	addi	sp,sp,-80
20000808:	d85a                	sw	s6,48(sp)

	uint32_t cimutag;
	uint32_t cimudat;
	int16_t cimu[3] = { 0 };

	unsigned nextdeadline = SysTick->CNT;
2000080a:	e000fb37          	lui	s6,0xe000f
{
2000080e:	d462                	sw	s8,40(sp)
	unsigned nextdeadline = SysTick->CNT;
20000810:	008b2c03          	lw	s8,8(s6) # e000f008 <_eusrstack+0xc000c008>
{
20000814:	c2a6                	sw	s1,68(sp)
20000816:	de4e                	sw	s3,60(sp)
20000818:	dc52                	sw	s4,56(sp)
2000081a:	da56                	sw	s5,52(sp)
	funDigitalWrite( SSD1306_DC_PIN, FUN_LOW );
2000081c:	400019b7          	lui	s3,0x40001
20000820:	6a85                	lui	s5,0x1
	R16_SPI0_TOTAL_CNT = 4;
20000822:	40004a37          	lui	s4,0x40004
{
20000826:	c0ca                	sw	s2,64(sp)
20000828:	d65e                	sw	s7,44(sp)
2000082a:	d266                	sw	s9,36(sp)
2000082c:	d06a                	sw	s10,32(sp)
	void * nextjump = &&lsm6_getcimu;
2000082e:	b0c18793          	addi	a5,gp,-1268 # 200008ac <CoreLoop+0xa6>
{
20000832:	c686                	sw	ra,76(sp)
20000834:	c4a2                	sw	s0,72(sp)
20000836:	ce6e                	sw	s11,28(sp)
	uint32_t fn = 0;
20000838:	4901                	li	s2,0
2000083a:	b0c18493          	addi	s1,gp,-1268 # 200008ac <CoreLoop+0xa6>
2000083e:	9c4a8a93          	addi	s5,s5,-1596 # 9c4 <_einit+0x934>
	funDigitalWrite( SSD1306_DC_PIN, FUN_LOW );
20000842:	0ac98993          	addi	s3,s3,172 # 400010ac <_eusrstack+0x1fffe0ac>
20000846:	40000c93          	li	s9,1024
	funDigitalWrite( SSD1306_CS_PIN, FUN_LOW );
2000084a:	4bc1                	li	s7,16
	R16_SPI0_TOTAL_CNT = 4;
2000084c:	0a31                	addi	s4,s4,12 # 4000400c <_eusrstack+0x2000100c>
2000084e:	4d11                	li	s10,4
20000850:	035906b3          	mul	a3,s2,s5
20000854:	96e2                	add	a3,a3,s8

	cont:
		// Target 16.697 kHz
		while( ((int32_t)( SysTick->CNT - nextdeadline )) < 0  );
20000856:	008b2703          	lw	a4,8(s6)
2000085a:	8f15                	sub	a4,a4,a3
2000085c:	fe074de3          	bltz	a4,20000856 <CoreLoop+0x50>
	funDigitalWrite( SSD1306_DC_PIN, FUN_LOW );
20000860:	0199a023          	sw	s9,0(s3)
	funDigitalWrite( SSD1306_CS_PIN, FUN_LOW );
20000864:	0179a023          	sw	s7,0(s3)
	R16_SPI0_TOTAL_CNT = 4;
20000868:	01aa1023          	sh	s10,0(s4)
	R8_SPI0_FIFO = 0xd3;
2000086c:	40004737          	lui	a4,0x40004
20000870:	fd300693          	li	a3,-45
20000874:	00d70823          	sb	a3,16(a4) # 40004010 <_eusrstack+0x20001010>
	R8_SPI0_FIFO = x;
20000878:	07f97693          	andi	a3,s2,127
2000087c:	00d70823          	sb	a3,16(a4)
	R8_SPI0_FIFO = 0xdc;
20000880:	fdc00693          	li	a3,-36
20000884:	00d70823          	sb	a3,16(a4)
		nextdeadline += 2500;
		spi_send_command_fast( fn&0x7f, fn>>7 );
20000888:	00795693          	srli	a3,s2,0x7
	R8_SPI0_FIFO = y;
2000088c:	0ff6f693          	zext.b	a3,a3
20000890:	00d70823          	sb	a3,16(a4)
	while( R16_SPI0_TOTAL_CNT );
20000894:	000a5703          	lhu	a4,0(s4)
20000898:	ff75                	bnez	a4,20000894 <CoreLoop+0x8e>
	funDigitalWrite( SSD1306_CS_PIN, FUN_HIGH );
2000089a:	40001737          	lui	a4,0x40001
2000089e:	0b772c23          	sw	s7,184(a4) # 400010b8 <_eusrstack+0x1fffe0b8>
		fn++;
200008a2:	0905                	addi	s2,s2,1
		goto *nextjump;
200008a4:	8782                	jr	a5
		cimudat |= GetByte( 0 ) << 8ULL;
		cimudat |= GetByte( 1 ) << 16ULL;
		SendStop();
		if( cimudat & 0x4000 )
		{
			nextjump = &&lsm6_force_fifo_reset;
200008a6:	b5818793          	addi	a5,gp,-1192 # 200008f8 <CoreLoop+0xf2>
200008aa:	b75d                	j	20000850 <CoreLoop+0x4a>
		SendStart();
200008ac:	344d                	jal	2000034e <SendStart>
		SendByteNoAck( LSM6DS3_ADDRESS<<1 );
200008ae:	0d400513          	li	a0,212
200008b2:	39a9                	jal	2000050c <SendByteNoAck>
		SendByteNoAck( 0x3a );
200008b4:	03a00513          	li	a0,58
200008b8:	3991                	jal	2000050c <SendByteNoAck>
		SendStart();
200008ba:	3c51                	jal	2000034e <SendStart>
		SendByteNoAck( (LSM6DS3_ADDRESS<<1)|1 );
200008bc:	0d500513          	li	a0,213
200008c0:	31b1                	jal	2000050c <SendByteNoAck>
		cimudat = GetByte( 0 );
200008c2:	4501                	li	a0,0
200008c4:	3b19                	jal	200005da <GetByte>
200008c6:	c62a                	sw	a0,12(sp)
		cimudat |= GetByte( 0 ) << 8ULL;
200008c8:	4501                	li	a0,0
200008ca:	3b01                	jal	200005da <GetByte>
200008cc:	8daa                	mv	s11,a0
		cimudat |= GetByte( 1 ) << 16ULL;
200008ce:	4505                	li	a0,1
200008d0:	3329                	jal	200005da <GetByte>
200008d2:	47b2                	lw	a5,12(sp)
200008d4:	0542                	slli	a0,a0,0x10
		cimudat |= GetByte( 0 ) << 8ULL;
200008d6:	0da2                	slli	s11,s11,0x8
		cimudat |= GetByte( 1 ) << 16ULL;
200008d8:	00adedb3          	or	s11,s11,a0
200008dc:	00fdedb3          	or	s11,s11,a5
		SendStop();
200008e0:	3ce9                	jal	200003ba <SendStop>
		if( cimudat & 0x4000 )
200008e2:	011d9793          	slli	a5,s11,0x11
200008e6:	fc07c0e3          	bltz	a5,200008a6 <CoreLoop+0xa0>
			goto cont;
		}
		else if( ( cimudat & 0x7ff ) > 0 )
200008ea:	015d9793          	slli	a5,s11,0x15
200008ee:	0a078563          	beqz	a5,20000998 <CoreLoop+0x192>
		{
			nextjump = &&lsm6_pull0;
200008f2:	b9418793          	addi	a5,gp,-1132 # 20000934 <CoreLoop+0x12e>
200008f6:	bfa9                	j	20000850 <CoreLoop+0x4a>
		}
		nextjump = &&lsm6_1;
		goto cont;

	lsm6_force_fifo_reset:
		SendStart();
200008f8:	3c99                	jal	2000034e <SendStart>
		SendByteNoAck( LSM6DS3_ADDRESS<<1 );
200008fa:	0d400513          	li	a0,212
200008fe:	3139                	jal	2000050c <SendByteNoAck>
		SendByteNoAck( 0x0a );
20000900:	4529                	li	a0,10
20000902:	3129                	jal	2000050c <SendByteNoAck>
		SendByteNoAck( 0x28 );
20000904:	02800513          	li	a0,40
20000908:	3111                	jal	2000050c <SendByteNoAck>
		SendStop();
2000090a:	3c45                	jal	200003ba <SendStop>
		SendStart();
2000090c:	3489                	jal	2000034e <SendStart>
		SendByteNoAck( LSM6DS3_ADDRESS<<1 );
2000090e:	0d400513          	li	a0,212
20000912:	3eed                	jal	2000050c <SendByteNoAck>
		SendByteNoAck( 0x0a );
20000914:	4529                	li	a0,10
20000916:	3edd                	jal	2000050c <SendByteNoAck>
		SendByteNoAck( 0x2e );
20000918:	02e00513          	li	a0,46
2000091c:	3ec5                	jal	2000050c <SendByteNoAck>
		SendStop();
2000091e:	3c71                	jal	200003ba <SendStop>
		Delay_Ms(20);
20000920:	00125537          	lui	a0,0x125
20000924:	f8050513          	addi	a0,a0,-128 # 124f80 <firmware.c.3f3d58ee+0x120998>
20000928:	e0000097          	auipc	ra,0xe0000
2000092c:	1d8080e7          	jalr	472(ra) # b00 <DelaySysTick>
	lsm6_1:
		nextjump = &&lsm6_2;
		goto cont;

	lsm6_2:
		nextjump = &&lsm6_getcimu;
20000930:	87a6                	mv	a5,s1
		goto cont;
20000932:	bf39                	j	20000850 <CoreLoop+0x4a>
		SendStart();
20000934:	3c29                	jal	2000034e <SendStart>
		SendByteNoAck( LSM6DS3_ADDRESS<<1 );
20000936:	0d400513          	li	a0,212
2000093a:	3ec9                	jal	2000050c <SendByteNoAck>
		SendByteNoAck( 0x78 );
2000093c:	07800513          	li	a0,120
20000940:	36f1                	jal	2000050c <SendByteNoAck>
		SendStart();
20000942:	3431                	jal	2000034e <SendStart>
		SendByteNoAck( (LSM6DS3_ADDRESS<<1)|1 );
20000944:	0d500513          	li	a0,213
20000948:	36d1                	jal	2000050c <SendByteNoAck>
		cimutag = GetByte( 0 ); // FIFO Tag
2000094a:	4501                	li	a0,0
2000094c:	3179                	jal	200005da <GetByte>
2000094e:	842a                	mv	s0,a0
		nextjump = &&lsm6_pull1;
20000950:	bb618793          	addi	a5,gp,-1098 # 20000956 <CoreLoop+0x150>
		goto cont;
20000954:	bdf5                	j	20000850 <CoreLoop+0x4a>
		tmp = GetByte( 0 );
20000956:	4501                	li	a0,0
20000958:	3149                	jal	200005da <GetByte>
		cimu[0] = tmp | GetByte( 0 ) << 8;
2000095a:	4501                	li	a0,0
2000095c:	39bd                	jal	200005da <GetByte>
		tmp = GetByte( 0 );
2000095e:	4501                	li	a0,0
20000960:	39ad                	jal	200005da <GetByte>
		cimu[1] = tmp | GetByte( 0 ) << 8;
20000962:	4501                	li	a0,0
20000964:	399d                	jal	200005da <GetByte>
		tmp = GetByte( 0 );
20000966:	4501                	li	a0,0
20000968:	398d                	jal	200005da <GetByte>
		cimu[2] = tmp | GetByte( 1 ) << 8;
2000096a:	4505                	li	a0,1
2000096c:	31bd                	jal	200005da <GetByte>
		SendStop();
2000096e:	34b1                	jal	200003ba <SendStop>
		nextjump = &&lsm6_pull2;
20000970:	bd618793          	addi	a5,gp,-1066 # 20000976 <CoreLoop+0x170>
		goto cont;
20000974:	bdf1                	j	20000850 <CoreLoop+0x4a>
		cimutag >>= 3;
20000976:	800d                	srli	s0,s0,0x3
		if( cimutag == 1 )
20000978:	fff40713          	addi	a4,s0,-1
2000097c:	4789                	li	a5,2
2000097e:	00e7fa63          	bgeu	a5,a4,20000992 <CoreLoop+0x18c>
			printf( "Confusing tag: %d\n", (int)cimutag );
20000982:	650d                	lui	a0,0x3
20000984:	85a2                	mv	a1,s0
20000986:	88450513          	addi	a0,a0,-1916 # 2884 <ModeTestLoop+0x15c>
2000098a:	e0001097          	auipc	ra,0xe0001
2000098e:	b20080e7          	jalr	-1248(ra) # 14aa <printf>
		nextjump = &&lsm6_process;
20000992:	bf818793          	addi	a5,gp,-1032 # 20000998 <CoreLoop+0x192>
20000996:	bd6d                	j	20000850 <CoreLoop+0x4a>
		nextjump = &&lsm6_1;
20000998:	bfe18793          	addi	a5,gp,-1026 # 2000099e <CoreLoop+0x198>
2000099c:	bd55                	j	20000850 <CoreLoop+0x4a>
		nextjump = &&lsm6_2;
2000099e:	b9018793          	addi	a5,gp,-1136 # 20000930 <CoreLoop+0x12a>
		goto cont;
200009a2:	b57d                	j	20000850 <CoreLoop+0x4a>

Disassembly of section .text:

00000a34 <mini_pad>:
	if(pad_to == 0) pad_to = len;
     a34:	c699                	beqz	a3,a42 <mini_pad+0xe>
	int overflow = 0;
     a36:	4801                	li	a6,0
	if(len > pad_to) {
     a38:	00b6d763          	bge	a3,a1,a46 <mini_pad+0x12>
		len = pad_to;
     a3c:	85b6                	mv	a1,a3
		overflow = 1;
     a3e:	4805                	li	a6,1
     a40:	a019                	j	a46 <mini_pad+0x12>
	int overflow = 0;
     a42:	4801                	li	a6,0
	if(pad_to == 0) pad_to = len;
     a44:	86ae                	mv	a3,a1
	for(i = pad_to - len; i > 0; i --) {
     a46:	8e8d                	sub	a3,a3,a1
	char * pbuffer = buffer;
     a48:	87ba                	mv	a5,a4
     a4a:	00e68333          	add	t1,a3,a4
	for(i = pad_to - len; i > 0; i --) {
     a4e:	40f308b3          	sub	a7,t1,a5
     a52:	05104a63          	bgtz	a7,aa6 <mini_pad+0x72>
     a56:	fff6c793          	not	a5,a3
     a5a:	87fd                	srai	a5,a5,0x1f
     a5c:	8efd                	and	a3,a3,a5
     a5e:	96ba                	add	a3,a3,a4
     a60:	4781                	li	a5,0
	for(i = len; i > 0; i --) {
     a62:	40f58633          	sub	a2,a1,a5
     a66:	00f688b3          	add	a7,a3,a5
     a6a:	04c04263          	bgtz	a2,aae <mini_pad+0x7a>
     a6e:	fff5c793          	not	a5,a1
     a72:	87fd                	srai	a5,a5,0x1f
     a74:	8dfd                	and	a1,a1,a5
     a76:	95b6                	add	a1,a1,a3
	len = pbuffer - buffer;
     a78:	40e58533          	sub	a0,a1,a4
	if(overflow) {
     a7c:	02080463          	beqz	a6,aa4 <mini_pad+0x70>
		for (i = 0; i < 3 && pbuffer > buffer; i ++) {
     a80:	02b77263          	bgeu	a4,a1,aa4 <mini_pad+0x70>
			*(pbuffer-- - 1) = '*';
     a84:	02a00793          	li	a5,42
     a88:	fef58fa3          	sb	a5,-1(a1)
     a8c:	fff58693          	addi	a3,a1,-1
		for (i = 0; i < 3 && pbuffer > buffer; i ++) {
     a90:	00d77a63          	bgeu	a4,a3,aa4 <mini_pad+0x70>
			*(pbuffer-- - 1) = '*';
     a94:	fef58f23          	sb	a5,-2(a1)
     a98:	ffe58693          	addi	a3,a1,-2
		for (i = 0; i < 3 && pbuffer > buffer; i ++) {
     a9c:	00d77463          	bgeu	a4,a3,aa4 <mini_pad+0x70>
			*(pbuffer-- - 1) = '*';
     aa0:	fef58ea3          	sb	a5,-3(a1)
}
     aa4:	8082                	ret
		*(pbuffer++) = pad_char;
     aa6:	0785                	addi	a5,a5,1
     aa8:	fec78fa3          	sb	a2,-1(a5)
	for(i = pad_to - len; i > 0; i --) {
     aac:	b74d                	j	a4e <mini_pad+0x1a>
		*(pbuffer++) = *(ptr++);
     aae:	00f50633          	add	a2,a0,a5
     ab2:	00064603          	lbu	a2,0(a2)
     ab6:	0785                	addi	a5,a5,1
     ab8:	00c88023          	sb	a2,0(a7)
	for(i = len; i > 0; i --) {
     abc:	b75d                	j	a62 <mini_pad+0x2e>

00000abe <_puts>:
{
     abe:	86aa                	mv	a3,a0
     ac0:	852e                	mv	a0,a1
	if(!buf) return len;
     ac2:	ce01                	beqz	a2,ada <_puts+0x1c>
	char * p0 = b->buffer;
     ac4:	00062883          	lw	a7,0(a2)
	for (i = 0; i < len; i++) {
     ac8:	4701                	li	a4,0
		if(b->pbuffer == b->buffer + b->buffer_len - 1) {
     aca:	425c                	lw	a5,4(a2)
	for (i = 0; i < len; i++) {
     acc:	00a74863          	blt	a4,a0,adc <_puts+0x1e>
	*(b->pbuffer) = 0;
     ad0:	00078023          	sb	zero,0(a5)
	return b->pbuffer - p0;
     ad4:	4248                	lw	a0,4(a2)
     ad6:	41150533          	sub	a0,a0,a7
}
     ada:	8082                	ret
		if(b->pbuffer == b->buffer + b->buffer_len - 1) {
     adc:	00862803          	lw	a6,8(a2)
     ae0:	420c                	lw	a1,0(a2)
     ae2:	187d                	addi	a6,a6,-1
     ae4:	95c2                	add	a1,a1,a6
     ae6:	feb785e3          	beq	a5,a1,ad0 <_puts+0x12>
		*(b->pbuffer ++) = s[i];
     aea:	00178593          	addi	a1,a5,1
     aee:	c24c                	sw	a1,4(a2)
     af0:	00e685b3          	add	a1,a3,a4
     af4:	0005c583          	lbu	a1,0(a1)
	for (i = 0; i < len; i++) {
     af8:	0705                	addi	a4,a4,1
		*(b->pbuffer ++) = s[i];
     afa:	00b78023          	sb	a1,0(a5)
	for (i = 0; i < len; i++) {
     afe:	b7f1                	j	aca <_puts+0xc>

00000b00 <DelaySysTick>:
	while( ((int32_t)( SysTick->CNT - targend )) < 0 );
#elif defined(CH32V20x) || defined(CH32V30x) || defined(CH32X03x) || defined(CH32L103) || defined(CH582_CH583) || defined(CH591_CH592) || defined(CH32H41x)
	uint64_t targend = SysTick->CNT + n;
	while( ((int64_t)( SysTick->CNT - targend )) < 0 );
#elif defined(CH32V10x) || defined(CH570_CH572) || defined(CH584_CH585)
	uint32_t targend = SysTick->CNTL + n;
     b00:	e000f737          	lui	a4,0xe000f
     b04:	471c                	lw	a5,8(a4)
     b06:	953e                	add	a0,a0,a5
	while( ((int32_t)( SysTick->CNTL - targend )) < 0 );
     b08:	471c                	lw	a5,8(a4)
     b0a:	8f89                	sub	a5,a5,a0
     b0c:	fe07cee3          	bltz	a5,b08 <DelaySysTick+0x8>
	uint64_t targend = SysTick->CNT - n;
	while( ((int64_t)( SysTick->CNT - targend )) > 0 );
#else
	#error DelaySysTick not defined.
#endif
}
     b10:	8082                	ret

00000b12 <mini_itoa.part.0>:
	int	negative = 0;
     b12:	4881                	li	a7,0
	if (value < 0 && !unsig) {
     b14:	00055663          	bgez	a0,b20 <mini_itoa.part.0+0xe>
     b18:	e681                	bnez	a3,b20 <mini_itoa.part.0+0xe>
		value = -value;
     b1a:	40a00533          	neg	a0,a0
		negative = 1;
     b1e:	4885                	li	a7,1
     b20:	8a05                	andi	a2,a2,1
     b22:	06100793          	li	a5,97
     b26:	c219                	beqz	a2,b2c <mini_itoa.part.0+0x1a>
     b28:	04100793          	li	a5,65
	int	negative = 0;
     b2c:	883a                	mv	a6,a4
		*(pbuffer++) = (digit < 10 ? '0' + digit : (uppercase ? 'A' : 'a') + digit - 10);
     b2e:	4e25                	li	t3,9
     b30:	ff678613          	addi	a2,a5,-10
		int digit = value % radix;
     b34:	02b577b3          	remu	a5,a0,a1
     b38:	832a                	mv	t1,a0
		*(pbuffer++) = (digit < 10 ? '0' + digit : (uppercase ? 'A' : 'a') + digit - 10);
     b3a:	0ff7f693          	zext.b	a3,a5
     b3e:	04fe6463          	bltu	t3,a5,b86 <mini_itoa.part.0+0x74>
     b42:	03068693          	addi	a3,a3,48
     b46:	0ff6f693          	zext.b	a3,a3
     b4a:	00d80023          	sb	a3,0(a6)
     b4e:	00180793          	addi	a5,a6,1
		value /= radix;
     b52:	02b55533          	divu	a0,a0,a1
	} while (value > 0);
     b56:	02b37663          	bgeu	t1,a1,b82 <mini_itoa.part.0+0x70>
	if (negative)
     b5a:	00088863          	beqz	a7,b6a <mini_itoa.part.0+0x58>
		*(pbuffer++) = '-';
     b5e:	02d00693          	li	a3,45
     b62:	00d78023          	sb	a3,0(a5)
     b66:	00280793          	addi	a5,a6,2
	len = (pbuffer - buffer);
     b6a:	40e78533          	sub	a0,a5,a4
	for (i = 0; i < len / 2; i++) {
     b6e:	4609                	li	a2,2
	*(pbuffer) = '\0';
     b70:	00078023          	sb	zero,0(a5)
	for (i = 0; i < len / 2; i++) {
     b74:	4681                	li	a3,0
     b76:	02c54633          	div	a2,a0,a2
     b7a:	17fd                	addi	a5,a5,-1
     b7c:	00c6c763          	blt	a3,a2,b8a <mini_itoa.part.0+0x78>
}
     b80:	8082                	ret
		*(pbuffer++) = (digit < 10 ? '0' + digit : (uppercase ? 'A' : 'a') + digit - 10);
     b82:	883e                	mv	a6,a5
     b84:	bf45                	j	b34 <mini_itoa.part.0+0x22>
     b86:	96b2                	add	a3,a3,a2
     b88:	bf7d                	j	b46 <mini_itoa.part.0+0x34>
		char j = buffer[i];
     b8a:	00d705b3          	add	a1,a4,a3
		buffer[i] = buffer[len-i-1];
     b8e:	0007c883          	lbu	a7,0(a5)
		char j = buffer[i];
     b92:	0005c803          	lbu	a6,0(a1)
	for (i = 0; i < len / 2; i++) {
     b96:	0685                	addi	a3,a3,1
		buffer[i] = buffer[len-i-1];
     b98:	01158023          	sb	a7,0(a1)
		buffer[len-i-1] = j;
     b9c:	01078023          	sb	a6,0(a5)
	for (i = 0; i < len / 2; i++) {
     ba0:	bfe9                	j	b7a <mini_itoa.part.0+0x68>

00000ba2 <ssd1306_drawPixel>:
void ssd1306_drawPixel(uint32_t x, uint32_t y, int color)
{
	uint32_t addr;
	
	/* clip */
	if(x >= SSD1306_W)
     ba2:	00b56733          	or	a4,a0,a1
     ba6:	07f00793          	li	a5,127
     baa:	02e7e563          	bltu	a5,a4,bd4 <ssd1306_drawPixel+0x32>
		return;
	if(y >= SSD1306_H)
		return;
	
	/* compute buffer address */
	addr = x + SSD1306_W*(y/8);
     bae:	0035d793          	srli	a5,a1,0x3
     bb2:	079e                	slli	a5,a5,0x7
     bb4:	97aa                	add	a5,a5,a0
	
	/* set/clear bit in buffer */
	if(color)
		ssd1306_buffer[addr] |= (1<<(y&7));
     bb6:	20002537          	lui	a0,0x20002
     bba:	8e450513          	addi	a0,a0,-1820 # 200018e4 <ssd1306_buffer>
     bbe:	953e                	add	a0,a0,a5
     bc0:	899d                	andi	a1,a1,7
     bc2:	4705                	li	a4,1
     bc4:	00054783          	lbu	a5,0(a0)
     bc8:	00b71733          	sll	a4,a4,a1
	if(color)
     bcc:	c609                	beqz	a2,bd6 <ssd1306_drawPixel+0x34>
		ssd1306_buffer[addr] |= (1<<(y&7));
     bce:	8fd9                	or	a5,a5,a4
	else
		ssd1306_buffer[addr] &= ~(1<<(y&7));
     bd0:	00f50023          	sb	a5,0(a0)
}
     bd4:	8082                	ret
		ssd1306_buffer[addr] &= ~(1<<(y&7));
     bd6:	fff74713          	not	a4,a4
     bda:	8ff9                	and	a5,a5,a4
     bdc:	bfd5                	j	bd0 <ssd1306_drawPixel+0x2e>

00000bde <DevSetMode>:
	if(mode) {
     bde:	4000c7b7          	lui	a5,0x4000c
     be2:	10078793          	addi	a5,a5,256 # 4000c100 <_eusrstack+0x20009100>
		BB->CTRL_CFG = DEVSETMODE_ON;
     be6:	4398                	lw	a4,0(a5)
     be8:	fffd06b7          	lui	a3,0xfffd0
     bec:	16fd                	addi	a3,a3,-1 # fffcffff <_eusrstack+0xdffccfff>
     bee:	8f75                	and	a4,a4,a3
	if(mode) {
     bf0:	c115                	beqz	a0,c14 <DevSetMode+0x36>
		BB->CTRL_CFG = DEVSETMODE_ON;
     bf2:	000206b7          	lui	a3,0x20
     bf6:	8f55                	or	a4,a4,a3
     bf8:	c398                	sw	a4,0(a5)
		RF->RF2 |= 0x330000;
     bfa:	4000d737          	lui	a4,0x4000d
     bfe:	471c                	lw	a5,8(a4)
     c00:	003306b7          	lui	a3,0x330
     c04:	8fd5                	or	a5,a5,a3
     c06:	c71c                	sw	a5,8(a4)
	LL->CTRL_MOD = mode;
     c08:	4000c7b7          	lui	a5,0x4000c
     c0c:	20078793          	addi	a5,a5,512 # 4000c200 <_eusrstack+0x20009200>
     c10:	cba8                	sw	a0,80(a5)
}
     c12:	8082                	ret
		BB->CTRL_CFG = DEVSETMODE_OFF;
     c14:	66c1                	lui	a3,0x10
     c16:	8f55                	or	a4,a4,a3
     c18:	c398                	sw	a4,0(a5)
		RF->RF2 &= 0xffcdffff;
     c1a:	4000d6b7          	lui	a3,0x4000d
     c1e:	469c                	lw	a5,8(a3)
     c20:	ffce0737          	lui	a4,0xffce0
     c24:	177d                	addi	a4,a4,-1 # ffcdffff <_eusrstack+0xdfcdcfff>
     c26:	8ff9                	and	a5,a5,a4
     c28:	c69c                	sw	a5,8(a3)
     c2a:	bff9                	j	c08 <DevSetMode+0x2a>

00000c2c <RFEND_TXCTune>:
	RF->RF1 &= 0xfffffffe;
     c2c:	4000d7b7          	lui	a5,0x4000d
     c30:	43d8                	lw	a4,4(a5)
	RF->TXTUNE_CTRL = (RF->TXTUNE_CTRL & 0xfffe00ff) | (0xbf00 + (channel_map[channel] << 8));
     c32:	6631                	lui	a2,0xc
     c34:	f0060613          	addi	a2,a2,-256 # bf00 <firmware.c.3f3d58ee+0x7918>
	RF->RF1 &= 0xfffffffe;
     c38:	9b79                	andi	a4,a4,-2
     c3a:	c3d8                	sw	a4,4(a5)
	RF->TXTUNE_CTRL = (RF->TXTUNE_CTRL & 0xfffe00ff) | (0xbf00 + (channel_map[channel] << 8));
     c3c:	670d                	lui	a4,0x3
     c3e:	11870713          	addi	a4,a4,280 # 3118 <channel_map>
     c42:	972a                	add	a4,a4,a0
     c44:	00074703          	lbu	a4,0(a4)
     c48:	5f94                	lw	a3,56(a5)
     c4a:	0722                	slli	a4,a4,0x8
     c4c:	9732                	add	a4,a4,a2
     c4e:	7601                	lui	a2,0xfffe0
     c50:	0ff60613          	addi	a2,a2,255 # fffe00ff <_eusrstack+0xdffdd0ff>
     c54:	8ef1                	and	a3,a3,a2
     c56:	8f55                	or	a4,a4,a3
     c58:	df98                	sw	a4,56(a5)
	RF->RF1 |= 1;
     c5a:	43d8                	lw	a4,4(a5)
	LL->TMR = 8000;
     c5c:	6689                	lui	a3,0x2
     c5e:	f4068693          	addi	a3,a3,-192 # 1f40 <ModeExampleLoop+0x12e>
	RF->RF1 |= 1;
     c62:	00176713          	ori	a4,a4,1
     c66:	c3d8                	sw	a4,4(a5)
	LL->TMR = 8000;
     c68:	4000c737          	lui	a4,0x4000c
     c6c:	20070713          	addi	a4,a4,512 # 4000c200 <_eusrstack+0x20009200>
     c70:	d374                	sw	a3,100(a4)
	while(!(RF->TXCTUNE_CO_CTRL & (1 << 25)) || !(RF->TXCTUNE_CO_CTRL & (1 << 26))) {
     c72:	0907a683          	lw	a3,144(a5) # 4000d090 <_eusrstack+0x2000a090>
     c76:	00669613          	slli	a2,a3,0x6
     c7a:	00065863          	bgez	a2,c8a <RFEND_TXCTune+0x5e>
     c7e:	0907a683          	lw	a3,144(a5)
     c82:	00569613          	slli	a2,a3,0x5
     c86:	00064463          	bltz	a2,c8e <RFEND_TXCTune+0x62>
		if(LL->TMR == 0) {
     c8a:	5374                	lw	a3,100(a4)
     c8c:	f2fd                	bnez	a3,c72 <RFEND_TXCTune+0x46>
	uint8_t nCO = (uint8_t)RF->TXCTUNE_CO_CTRL & 0x3f;
     c8e:	4000d7b7          	lui	a5,0x4000d
     c92:	0907a503          	lw	a0,144(a5) # 4000d090 <_eusrstack+0x2000a090>
	uint8_t nGA = (uint8_t)(RF->TXCTUNE_GA_CTRL >> 10) & 0x7f;
     c96:	0947a783          	lw	a5,148(a5)
	return (nGA << 24) | nCO;
     c9a:	03f57513          	andi	a0,a0,63
	uint8_t nGA = (uint8_t)(RF->TXCTUNE_GA_CTRL >> 10) & 0x7f;
     c9e:	83a9                	srli	a5,a5,0xa
	return (nGA << 24) | nCO;
     ca0:	07f7f793          	andi	a5,a5,127
     ca4:	07e2                	slli	a5,a5,0x18
}
     ca6:	8d5d                	or	a0,a0,a5
     ca8:	8082                	ret

00000caa <DevSetChannel>:
	RF->RF11 &= 0xfffffffd;
     caa:	4000d737          	lui	a4,0x4000d
     cae:	575c                	lw	a5,44(a4)
	BB->CTRL_CFG = (BB->CTRL_CFG & 0xffffff80) | (channel & 0x7f);
     cb0:	07f57513          	andi	a0,a0,127
	RF->RF11 &= 0xfffffffd;
     cb4:	9bf5                	andi	a5,a5,-3
     cb6:	d75c                	sw	a5,44(a4)
	BB->CTRL_CFG = (BB->CTRL_CFG & 0xffffff80) | (channel & 0x7f);
     cb8:	4000c737          	lui	a4,0x4000c
     cbc:	10070713          	addi	a4,a4,256 # 4000c100 <_eusrstack+0x20009100>
     cc0:	431c                	lw	a5,0(a4)
     cc2:	f807f793          	andi	a5,a5,-128
     cc6:	8fc9                	or	a5,a5,a0
     cc8:	c31c                	sw	a5,0(a4)
}
     cca:	8082                	ret

00000ccc <RenderBSprite>:
	int sw = spr->w;
     ccc:	00051303          	lh	t1,0(a0)
{
     cd0:	1101                	addi	sp,sp,-32
     cd2:	ca4a                	sw	s2,20(sp)
     cd4:	c84e                	sw	s3,16(sp)
     cd6:	ce22                	sw	s0,28(sp)
     cd8:	cc26                	sw	s1,24(sp)
     cda:	c652                	sw	s4,12(sp)
     cdc:	c456                	sw	s5,8(sp)
     cde:	c25a                	sw	s6,4(sp)
     ce0:	c05e                	sw	s7,0(sp)
	int sh = spr->h;
     ce2:	00251903          	lh	s2,2(a0)
			bin += sw;
     ce6:	00231993          	slli	s3,t1,0x2
	const uint32_t * bin = &spr->data[0];
     cea:	0511                	addi	a0,a0,4
	for( y = 0; y < sh; y++, outy++ )
     cec:	4781                	li	a5,0
     cee:	00034363          	bltz	t1,cf4 <RenderBSprite+0x28>
     cf2:	879a                	mv	a5,t1
     cf4:	07c2                	slli	a5,a5,0x10
     cf6:	87c1                	srai	a5,a5,0x10
     cf8:	00279813          	slli	a6,a5,0x2
		else if( outy >= SSD1306_H )
     cfc:	07f00413          	li	s0,127
	for( y = 0; y < sh; y++, outy++ )
     d00:	87b2                	mv	a5,a2
		uint8_t * bout = &ssd1306_buffer[(outy>>3)*SSD1306_W + outx];
     d02:	20002a37          	lui	s4,0x20002
		int boutshiftmaskinv = ~(1<<boutshift);
     d06:	4a85                	li	s5,1
			for( x = 0; x < 16; x++, tx++, input >>= 1 )
     d08:	4b41                	li	s6,16
	for( y = 0; y < sh; y++, outy++ )
     d0a:	40c78733          	sub	a4,a5,a2
     d0e:	01274c63          	blt	a4,s2,d26 <RenderBSprite+0x5a>
}
     d12:	4472                	lw	s0,28(sp)
     d14:	44e2                	lw	s1,24(sp)
     d16:	4952                	lw	s2,20(sp)
     d18:	49c2                	lw	s3,16(sp)
     d1a:	4a32                	lw	s4,12(sp)
     d1c:	4aa2                	lw	s5,8(sp)
     d1e:	4b12                	lw	s6,4(sp)
     d20:	4b82                	lw	s7,0(sp)
     d22:	6105                	addi	sp,sp,32
     d24:	8082                	ret
		if( outy < 0 )
     d26:	0007d563          	bgez	a5,d30 <RenderBSprite+0x64>
			bin += sw;
     d2a:	954e                	add	a0,a0,s3
	for( y = 0; y < sh; y++, outy++ )
     d2c:	0785                	addi	a5,a5,1
     d2e:	bff1                	j	d0a <RenderBSprite+0x3e>
		else if( outy >= SSD1306_H )
     d30:	fef441e3          	blt	s0,a5,d12 <RenderBSprite+0x46>
		uint8_t * bout = &ssd1306_buffer[(outy>>3)*SSD1306_W + outx];
     d34:	4037d713          	srai	a4,a5,0x3
		int boutshift = outy&7;
     d38:	0077f493          	andi	s1,a5,7
		uint8_t * bout = &ssd1306_buffer[(outy>>3)*SSD1306_W + outx];
     d3c:	071e                	slli	a4,a4,0x7
     d3e:	8e4a0f93          	addi	t6,s4,-1820 # 200018e4 <ssd1306_buffer>
		int boutshiftmaskinv = ~(1<<boutshift);
     d42:	009a92b3          	sll	t0,s5,s1
     d46:	fff2c293          	not	t0,t0
		int tx = outx;
     d4a:	8eae                	mv	t4,a1
		for( group = 0; group < sw; group++ )
     d4c:	4e01                	li	t3,0
     d4e:	9fba                	add	t6,t6,a4
     d50:	01df8bb3          	add	s7,t6,t4
     d54:	006e4463          	blt	t3,t1,d5c <RenderBSprite+0x90>
     d58:	9542                	add	a0,a0,a6
     d5a:	bfc9                	j	d2c <RenderBSprite+0x60>
			uint32_t input = *(bin++);
     d5c:	002e1713          	slli	a4,t3,0x2
     d60:	972a                	add	a4,a4,a0
     d62:	00072f03          	lw	t5,0(a4)
			for( x = 0; x < 16; x++, tx++, input >>= 1 )
     d66:	4881                	li	a7,0
				if( tx < 0 || tx >= SSD1306_W ) continue;
     d68:	01d88733          	add	a4,a7,t4
     d6c:	02e46463          	bltu	s0,a4,d94 <RenderBSprite+0xc8>
				if( input & 1 )
     d70:	001f7713          	andi	a4,t5,1
     d74:	c305                	beqz	a4,d94 <RenderBSprite+0xc8>
					bout[x] = ( bout[x] & boutshiftmaskinv ) | (((input>>16)&1)<< ( boutshift));
     d76:	011b86b3          	add	a3,s7,a7
     d7a:	0006c383          	lbu	t2,0(a3)
     d7e:	010f5713          	srli	a4,t5,0x10
     d82:	8b05                	andi	a4,a4,1
     d84:	00971733          	sll	a4,a4,s1
     d88:	0053f3b3          	and	t2,t2,t0
     d8c:	00776733          	or	a4,a4,t2
     d90:	00e68023          	sb	a4,0(a3)
			for( x = 0; x < 16; x++, tx++, input >>= 1 )
     d94:	0885                	addi	a7,a7,1
     d96:	001f5f13          	srli	t5,t5,0x1
     d9a:	fd6897e3          	bne	a7,s6,d68 <RenderBSprite+0x9c>
     d9e:	0ec1                	addi	t4,t4,16
		for( group = 0; group < sw; group++ )
     da0:	0e05                	addi	t3,t3,1
     da2:	b77d                	j	d50 <RenderBSprite+0x84>

00000da4 <_rand_gen_32b>:
uint32_t _rand_gen_32b(void)
{
	uint32_t rand_out = 0;
	
	uint8_t bits = 32;
	while(bits--)
     da4:	c081a703          	lw	a4,-1016(gp) # 200009a8 <_rand_lfsr>
{
     da8:	02000693          	li	a3,32
	uint32_t rand_out = 0;
     dac:	4501                	li	a0,0
	uint32_t msb = bit_31 ^ bit_21 ^ bit_01 ^ bit_00;
     dae:	80000837          	lui	a6,0x80000
	uint32_t bit_01 = (_rand_lfsr << 30) & 0x80000000;
     db2:	01e71593          	slli	a1,a4,0x1e
	uint32_t bit_21 = (_rand_lfsr << 10) & 0x80000000;
     db6:	00a71793          	slli	a5,a4,0xa
	uint32_t msb = bit_31 ^ bit_21 ^ bit_01 ^ bit_00;
     dba:	8fad                	xor	a5,a5,a1
     dbc:	8fb9                	xor	a5,a5,a4
	uint32_t bit_00 = (_rand_lfsr << 31) & 0x80000000;
     dbe:	01f71593          	slli	a1,a4,0x1f
	uint32_t msb = bit_31 ^ bit_21 ^ bit_01 ^ bit_00;
     dc2:	0107f7b3          	and	a5,a5,a6
     dc6:	8fad                	xor	a5,a5,a1
	_rand_lfsr = (_rand_lfsr >> 1) | msb;
     dc8:	8305                	srli	a4,a4,0x1
	while(bits--)
     dca:	16fd                	addi	a3,a3,-1
	{
		// Shift the current rand value for the new LSB
		rand_out = rand_out << 1;
     dcc:	0506                	slli	a0,a0,0x1
	_rand_lfsr = (_rand_lfsr >> 1) | msb;
     dce:	8f5d                	or	a4,a4,a5
	while(bits--)
     dd0:	0ff6f693          	zext.b	a3,a3
	return msb >> 31;
     dd4:	83fd                	srli	a5,a5,0x1f
		// Append the LSB
		rand_out |= _rand_lfsr_update();
     dd6:	8d5d                	or	a0,a0,a5
	while(bits--)
     dd8:	fee9                	bnez	a3,db2 <_rand_gen_32b+0xe>
     dda:	c0e1a423          	sw	a4,-1016(gp) # 200009a8 <_rand_lfsr>
	}
	
	return rand_out;
}
     dde:	8082                	ret

00000de0 <ModePufferWirelessRX>:
void ModePufferWirelessRX( uint8_t * txmac, uint8_t * message, int messageLength, int rssi )
{
	//Note to self, this is bad but it works
	ModePuffer *m = (ModePuffer*) game;
	//Include this in modes to handle incoming traffic from the internet
}
     de0:	8082                	ret

00000de2 <badSin>:
	//0 returns 1
	//90 returns 0
	//180 returns -1
	//270 returns 0
	//We interpolate these values linearly because who has time for real lookup tables
	if(degrees >= 180){
     de2:	0b300793          	li	a5,179
     de6:	05a00713          	li	a4,90
     dea:	00a7d663          	bge	a5,a0,df6 <badSin+0x14>
		return -1 + ((degrees-180)/90);
     dee:	02e54533          	div	a0,a0,a4
     df2:	1575                	addi	a0,a0,-3
     df4:	8082                	ret
	}else{
		return -1 + ((180-degrees)/90);
     df6:	0b400793          	li	a5,180
     dfa:	40a78533          	sub	a0,a5,a0
     dfe:	02e54533          	div	a0,a0,a4
     e02:	157d                	addi	a0,a0,-1
	}
}
     e04:	8082                	ret

00000e06 <rollDice>:
static const char* deathText1 = "Game Over!";
static const char* deathText2 = "Your Score:";
static const char* deathText3 = "-Press R to";
static const char* deathText4 = " play again!";

int rollDice(){
     e06:	1141                	addi	sp,sp,-16
     e08:	c606                	sw	ra,12(sp)
     e0a:	c422                	sw	s0,8(sp)
	#endif

	// If RANDOM_STRENGTH is level 2, generate a 32-bit output, using 32 random
	// bits from the LFSR
	#if RANDOM_STRENGTH == 2
	rand_out = _rand_gen_32b();
     e0c:	3f61                	jal	da4 <_rand_gen_32b>
     e0e:	842a                	mv	s0,a0
     e10:	3f51                	jal	da4 <_rand_gen_32b>
	//more instructions but also more realistic!
	return (rand() % 6) + (rand() % 6) + 2; 
     e12:	4799                	li	a5,6
     e14:	02f47433          	remu	s0,s0,a5
}
     e18:	40b2                	lw	ra,12(sp)
	return (rand() % 6) + (rand() % 6) + 2; 
     e1a:	02f57533          	remu	a0,a0,a5
     e1e:	9522                	add	a0,a0,s0
}
     e20:	4422                	lw	s0,8(sp)
     e22:	0509                	addi	a0,a0,2
     e24:	0141                	addi	sp,sp,16
     e26:	8082                	ret

00000e28 <ModeShutWirelessRX>:
		}
	}
	return 1;
}

void ModeShutWirelessRX( uint8_t * txmac, uint8_t * message, int messageLength, int rssi )
     e28:	8082                	ret

00000e2a <funPinMode.part.0>:
	case GPIO_ModeIN_Floating:
		*(&R32_PA_PD_DRV + OFFSET_FOR_GPIOB(pin)) &= ~(pin & ~PB);
     e2a:	400017b7          	lui	a5,0x40001
     e2e:	0b478793          	addi	a5,a5,180 # 400010b4 <_eusrstack+0x1fffe0b4>
     e32:	4398                	lw	a4,0(a5)
     e34:	fff54513          	not	a0,a0
     e38:	8f69                	and	a4,a4,a0
     e3a:	c398                	sw	a4,0(a5)
		*(&R32_PA_PU + OFFSET_FOR_GPIOB(pin))     &= ~(pin & ~PB);
     e3c:	400017b7          	lui	a5,0x40001
     e40:	0b078793          	addi	a5,a5,176 # 400010b0 <_eusrstack+0x1fffe0b0>
     e44:	4398                	lw	a4,0(a5)
     e46:	8f69                	and	a4,a4,a0
     e48:	c398                	sw	a4,0(a5)
		*(&R32_PA_DIR + OFFSET_FOR_GPIOB(pin))    &= ~(pin & ~PB);
     e4a:	400017b7          	lui	a5,0x40001
     e4e:	0a078793          	addi	a5,a5,160 # 400010a0 <_eusrstack+0x1fffe0a0>
     e52:	4398                	lw	a4,0(a5)
     e54:	8d79                	and	a0,a0,a4
     e56:	c388                	sw	a0,0(a5)
	case GPIO_ModeOut_PP_20mA:
		*(&R32_PA_PD_DRV + OFFSET_FOR_GPIOB(pin)) |= (pin & ~PB);
		*(&R32_PA_DIR + OFFSET_FOR_GPIOB(pin))    |= (pin & ~PB);
		break;
	}
}
     e58:	8082                	ret

00000e5a <ssd1306_drawstr_sz.constprop.0>:
}

/*
 * draw a string to the display buffer, scaled to size
 */
void ssd1306_drawstr_sz(int x, int y, const char *str, uint8_t color, font_size_t font_size)
     e5a:	711d                	addi	sp,sp,-96
     e5c:	c6ce                	sw	s3,76(sp)
	
	while((c=*str++))
	{
		ssd1306_drawchar_sz(x, y, c, color, font_size);
		x += 8 * font_size;
		if(x>128 - 8 * font_size)
     e5e:	49c1                	li	s3,16
     e60:	40d989b3          	sub	s3,s3,a3
void ssd1306_drawstr_sz(int x, int y, const char *str, uint8_t color, font_size_t font_size)
     e64:	cca2                	sw	s0,88(sp)
     e66:	caa6                	sw	s1,84(sp)
     e68:	c8ca                	sw	s2,80(sp)
     e6a:	d86a                	sw	s10,48(sp)
     e6c:	d66e                	sw	s11,44(sp)
     e6e:	8436                	mv	s0,a3
		x += 8 * font_size;
     e70:	00369d93          	slli	s11,a3,0x3
void ssd1306_drawstr_sz(int x, int y, const char *str, uint8_t color, font_size_t font_size)
     e74:	ce86                	sw	ra,92(sp)
     e76:	c4d2                	sw	s4,72(sp)
     e78:	c2d6                	sw	s5,68(sp)
     e7a:	c0da                	sw	s6,64(sp)
     e7c:	de5e                	sw	s7,60(sp)
     e7e:	dc62                	sw	s8,56(sp)
     e80:	da66                	sw	s9,52(sp)
     e82:	84aa                	mv	s1,a0
     e84:	8d2e                	mv	s10,a1
     e86:	8932                	mv	s2,a2
		if(x>128 - 8 * font_size)
     e88:	098e                	slli	s3,s3,0x3
    uint8_t font_scale = (uint8_t)font_size;
     e8a:	0ff6f693          	zext.b	a3,a3
        d = fontdata[(chr << 3) + i];
     e8e:	688d                	lui	a7,0x3
	while((c=*str++))
     e90:	00094783          	lbu	a5,0(s2)
     e94:	0905                	addi	s2,s2,1
     e96:	cfb5                	beqz	a5,f12 <ssd1306_drawstr_sz.constprop.0+0xb8>
     e98:	876a                	mv	a4,s10
    uint8_t font_scale = (uint8_t)font_size;
     e9a:	4b81                	li	s7,0
        d = fontdata[(chr << 3) + i];
     e9c:	00379b13          	slli	s6,a5,0x3
     ea0:	017b07b3          	add	a5,s6,s7
     ea4:	8c088613          	addi	a2,a7,-1856 # 28c0 <fontdata>
     ea8:	97b2                	add	a5,a5,a2
     eaa:	0007ca83          	lbu	s5,0(a5)
     eae:	4a21                	li	s4,8
     eb0:	87a6                	mv	a5,s1
            if (d & 0x80)
     eb2:	007ad613          	srli	a2,s5,0x7
     eb6:	4c81                	li	s9,0
     eb8:	01978533          	add	a0,a5,s9
        d = fontdata[(chr << 3) + i];
     ebc:	4c01                	li	s8,0
                    ssd1306_drawPixel(x + (j * font_scale) + k, y + (i * font_scale) + l, col);
     ebe:	00ec05b3          	add	a1,s8,a4
     ec2:	ce36                	sw	a3,28(sp)
     ec4:	cc3e                	sw	a5,24(sp)
     ec6:	ca32                	sw	a2,20(sp)
     ec8:	c83a                	sw	a4,16(sp)
     eca:	c62a                	sw	a0,12(sp)
     ecc:	39d9                	jal	ba2 <ssd1306_drawPixel>
                for (uint8_t l = 0; l < font_scale; l++) {
     ece:	46f2                	lw	a3,28(sp)
     ed0:	0c05                	addi	s8,s8,1
     ed2:	0ffc7593          	zext.b	a1,s8
     ed6:	4532                	lw	a0,12(sp)
     ed8:	4742                	lw	a4,16(sp)
     eda:	4652                	lw	a2,20(sp)
     edc:	47e2                	lw	a5,24(sp)
     ede:	688d                	lui	a7,0x3
     ee0:	4321                	li	t1,8
     ee2:	fcd5eee3          	bltu	a1,a3,ebe <ssd1306_drawstr_sz.constprop.0+0x64>
            for (uint8_t k = 0; k < font_scale; k++) {
     ee6:	0c85                	addi	s9,s9,1
     ee8:	0ffcf593          	zext.b	a1,s9
     eec:	fcd5e6e3          	bltu	a1,a3,eb8 <ssd1306_drawstr_sz.constprop.0+0x5e>
        for (j = 0; j < 8; j++)
     ef0:	1a7d                	addi	s4,s4,-1
     ef2:	0a42                	slli	s4,s4,0x10
            d <<= 1;
     ef4:	0a86                	slli	s5,s5,0x1
        for (j = 0; j < 8; j++)
     ef6:	010a5a13          	srli	s4,s4,0x10
            d <<= 1;
     efa:	0ffafa93          	zext.b	s5,s5
        for (j = 0; j < 8; j++)
     efe:	97a2                	add	a5,a5,s0
     f00:	fa0a19e3          	bnez	s4,eb2 <ssd1306_drawstr_sz.constprop.0+0x58>
    for (i = 0; i < 8; i++)
     f04:	0b85                	addi	s7,s7,1
     f06:	9722                	add	a4,a4,s0
     f08:	f86b9ce3          	bne	s7,t1,ea0 <ssd1306_drawstr_sz.constprop.0+0x46>
     f0c:	94ee                	add	s1,s1,s11
		if(x>128 - 8 * font_size)
     f0e:	f899f1e3          	bgeu	s3,s1,e90 <ssd1306_drawstr_sz.constprop.0+0x36>
			break;
	}
}
     f12:	40f6                	lw	ra,92(sp)
     f14:	4466                	lw	s0,88(sp)
     f16:	44d6                	lw	s1,84(sp)
     f18:	4946                	lw	s2,80(sp)
     f1a:	49b6                	lw	s3,76(sp)
     f1c:	4a26                	lw	s4,72(sp)
     f1e:	4a96                	lw	s5,68(sp)
     f20:	4b06                	lw	s6,64(sp)
     f22:	5bf2                	lw	s7,60(sp)
     f24:	5c62                	lw	s8,56(sp)
     f26:	5cd2                	lw	s9,52(sp)
     f28:	5d42                	lw	s10,48(sp)
     f2a:	5db2                	lw	s11,44(sp)
     f2c:	6125                	addi	sp,sp,96
     f2e:	8082                	ret

00000f30 <ssd1306_drawFastHLine.constprop.0>:
	if((x >= SSD1306_W) || (y >= SSD1306_H)) return;
     f30:	00b567b3          	or	a5,a0,a1
     f34:	07f00693          	li	a3,127
     f38:	04f6e063          	bltu	a3,a5,f78 <ssd1306_drawFastHLine.constprop.0+0x48>
void ssd1306_drawFastHLine(uint32_t x, uint32_t y, uint32_t w, uint32_t color)
     f3c:	1141                	addi	sp,sp,-16
     f3e:	c422                	sw	s0,8(sp)
     f40:	c04a                	sw	s2,0(sp)
     f42:	c606                	sw	ra,12(sp)
     f44:	c226                	sw	s1,4(sp)
	if((x+w-1) >= SSD1306_W)  w = SSD1306_W-x;
     f46:	01550713          	addi	a4,a0,21
     f4a:	842a                	mv	s0,a0
     f4c:	892e                	mv	s2,a1
     f4e:	47d9                	li	a5,22
     f50:	00e6f563          	bgeu	a3,a4,f5a <ssd1306_drawFastHLine.constprop.0+0x2a>
     f54:	08000793          	li	a5,128
     f58:	8f89                	sub	a5,a5,a0
     f5a:	00f404b3          	add	s1,s0,a5
     f5e:	8522                	mv	a0,s0
        ssd1306_drawPixel(x++, y, color);
     f60:	4605                	li	a2,1
     f62:	0405                	addi	s0,s0,1
     f64:	85ca                	mv	a1,s2
     f66:	3935                	jal	ba2 <ssd1306_drawPixel>
	while (w--)
     f68:	fe849be3          	bne	s1,s0,f5e <ssd1306_drawFastHLine.constprop.0+0x2e>
}
     f6c:	40b2                	lw	ra,12(sp)
     f6e:	4422                	lw	s0,8(sp)
     f70:	4492                	lw	s1,4(sp)
     f72:	4902                	lw	s2,0(sp)
     f74:	0141                	addi	sp,sp,16
     f76:	8082                	ret
     f78:	8082                	ret

00000f7a <ssd1306_drawFastVLine.constprop.0>:
	if((x >= SSD1306_W) || (y >= SSD1306_H)) return;
     f7a:	07f00793          	li	a5,127
     f7e:	04a7c163          	blt	a5,a0,fc0 <ssd1306_drawFastVLine.constprop.0+0x46>
void ssd1306_drawFastVLine(int32_t x, int32_t y, int32_t h, uint32_t color)
     f82:	1141                	addi	sp,sp,-16
     f84:	c422                	sw	s0,8(sp)
     f86:	c04a                	sw	s2,0(sp)
     f88:	c606                	sw	ra,12(sp)
     f8a:	c226                	sw	s1,4(sp)
	if((y+h-1) >= SSD1306_H) h = SSD1306_H-y;
     f8c:	00c587b3          	add	a5,a1,a2
     f90:	08000713          	li	a4,128
     f94:	892a                	mv	s2,a0
     f96:	842e                	mv	s0,a1
     f98:	00f75463          	bge	a4,a5,fa0 <ssd1306_drawFastVLine.constprop.0+0x26>
     f9c:	40b70633          	sub	a2,a4,a1
     fa0:	008604b3          	add	s1,a2,s0
	while(h--)
     fa4:	00941863          	bne	s0,s1,fb4 <ssd1306_drawFastVLine.constprop.0+0x3a>
}
     fa8:	40b2                	lw	ra,12(sp)
     faa:	4422                	lw	s0,8(sp)
     fac:	4492                	lw	s1,4(sp)
     fae:	4902                	lw	s2,0(sp)
     fb0:	0141                	addi	sp,sp,16
     fb2:	8082                	ret
        ssd1306_drawPixel(x, y++, color);
     fb4:	85a2                	mv	a1,s0
     fb6:	4605                	li	a2,1
     fb8:	854a                	mv	a0,s2
     fba:	36e5                	jal	ba2 <ssd1306_drawPixel>
     fbc:	0405                	addi	s0,s0,1
     fbe:	b7dd                	j	fa4 <ssd1306_drawFastVLine.constprop.0+0x2a>
     fc0:	8082                	ret

00000fc2 <ssd1306_drawRect.constprop.0>:
void ssd1306_drawRect(int32_t x, int32_t y, uint32_t w, uint32_t h, uint32_t color)
     fc2:	1141                	addi	sp,sp,-16
     fc4:	c606                	sw	ra,12(sp)
     fc6:	c422                	sw	s0,8(sp)
     fc8:	c226                	sw	s1,4(sp)
     fca:	c04a                	sw	s2,0(sp)
     fcc:	84aa                	mv	s1,a0
     fce:	842e                	mv	s0,a1
     fd0:	8932                	mv	s2,a2
	ssd1306_drawFastVLine(x, y, h, color);
     fd2:	3765                	jal	f7a <ssd1306_drawFastVLine.constprop.0>
	ssd1306_drawFastVLine(x+w-1, y, h, color);
     fd4:	864a                	mv	a2,s2
     fd6:	85a2                	mv	a1,s0
     fd8:	01548513          	addi	a0,s1,21
     fdc:	3f79                	jal	f7a <ssd1306_drawFastVLine.constprop.0>
	ssd1306_drawFastHLine(x, y, w, color);
     fde:	85a2                	mv	a1,s0
     fe0:	8526                	mv	a0,s1
     fe2:	37b9                	jal	f30 <ssd1306_drawFastHLine.constprop.0>
	ssd1306_drawFastHLine(x, y+h-1, w, color);
     fe4:	fff40593          	addi	a1,s0,-1
}
     fe8:	4422                	lw	s0,8(sp)
     fea:	40b2                	lw	ra,12(sp)
	ssd1306_drawFastHLine(x, y+h-1, w, color);
     fec:	95ca                	add	a1,a1,s2
     fee:	8526                	mv	a0,s1
}
     ff0:	4902                	lw	s2,0(sp)
     ff2:	4492                	lw	s1,4(sp)
     ff4:	0141                	addi	sp,sp,16
	ssd1306_drawFastHLine(x, y+h-1, w, color);
     ff6:	bf2d                	j	f30 <ssd1306_drawFastHLine.constprop.0>

00000ff8 <internal_handle_input.constprop.0>:
	uint32_t dmd0 = *dmdata0;
     ff8:	e00007b7          	lui	a5,0xe0000
     ffc:	3407a783          	lw	a5,832(a5) # e0000340 <_eusrstack+0xbfffd340>
}
    1000:	8082                	ret

00001002 <_write.constprop.0>:
WEAK int _write(int fd, const char *buf, int size)
    1002:	7139                	addi	sp,sp,-64
    1004:	dc22                	sw	s0,56(sp)
	if( ( *DMDATA0 & 0xc0 ) == 0xc0 ) return 0;
    1006:	e0000437          	lui	s0,0xe0000
    100a:	34040413          	addi	s0,s0,832 # e0000340 <_eusrstack+0xbfffd340>
    100e:	401c                	lw	a5,0(s0)
WEAK int _write(int fd, const char *buf, int size)
    1010:	de06                	sw	ra,60(sp)
    1012:	da26                	sw	s1,52(sp)
    1014:	d84a                	sw	s2,48(sp)
    1016:	d64e                	sw	s3,44(sp)
    1018:	d452                	sw	s4,40(sp)
    101a:	d256                	sw	s5,36(sp)
    101c:	d05a                	sw	s6,32(sp)
    101e:	ce5e                	sw	s7,28(sp)
	if( ( *DMDATA0 & 0xc0 ) == 0xc0 ) return 0;
    1020:	0c07f793          	andi	a5,a5,192
    1024:	0c000713          	li	a4,192
    1028:	00e78b63          	beq	a5,a4,103e <_write.constprop.0+0x3c>
	char buffer[4] = { 0 };
    102c:	c602                	sw	zero,12(sp)
    102e:	84ae                	mv	s1,a1
	if( size == 0 )
    1030:	e5d5                	bnez	a1,10dc <_write.constprop.0+0xda>
		lastdmd = (*DMDATA0);
    1032:	401c                	lw	a5,0(s0)
		if( lastdmd && !(lastdmd&0x80) ) internal_handle_input( (uint32_t*)DMDATA0 );
    1034:	c789                	beqz	a5,103e <_write.constprop.0+0x3c>
    1036:	0807f793          	andi	a5,a5,128
    103a:	e391                	bnez	a5,103e <_write.constprop.0+0x3c>
    103c:	3f75                	jal	ff8 <internal_handle_input.constprop.0>
	if( ( *DMDATA0 & 0xc0 ) == 0xc0 ) return 0;
    103e:	4481                	li	s1,0
}
    1040:	50f2                	lw	ra,60(sp)
    1042:	5462                	lw	s0,56(sp)
    1044:	5942                	lw	s2,48(sp)
    1046:	59b2                	lw	s3,44(sp)
    1048:	5a22                	lw	s4,40(sp)
    104a:	5a92                	lw	s5,36(sp)
    104c:	5b02                	lw	s6,32(sp)
    104e:	4bf2                	lw	s7,28(sp)
    1050:	8526                	mv	a0,s1
    1052:	54d2                	lw	s1,52(sp)
    1054:	6121                	addi	sp,sp,64
    1056:	8082                	ret
		int tosend = size - place;
    1058:	412489b3          	sub	s3,s1,s2
		if( tosend > 7 ) tosend = 7;
    105c:	013b5363          	bge	s6,s3,1062 <_write.constprop.0+0x60>
    1060:	499d                	li	s3,7
    1062:	001007b7          	lui	a5,0x100
    1066:	0785                	addi	a5,a5,1 # 100001 <firmware.c.3f3d58ee+0xfba19>
		while( ( lastdmd = (*DMDATA0) ) & 0x80 )
    1068:	4018                	lw	a4,0(s0)
    106a:	08077693          	andi	a3,a4,128
    106e:	e6b1                	bnez	a3,10ba <_write.constprop.0+0xb8>
		if( lastdmd ) internal_handle_input( (uint32_t*)DMDATA0 );
    1070:	c311                	beqz	a4,1074 <_write.constprop.0+0x72>
    1072:	3759                	jal	ff8 <internal_handle_input.constprop.0>
    1074:	0078                	addi	a4,sp,12
		if( tosend > 7 ) tosend = 7;
    1076:	478d                	li	a5,3
    1078:	863a                	mv	a2,a4
		while( t < tosend )
    107a:	0537c763          	blt	a5,s3,10c8 <_write.constprop.0+0xc6>
		*DMDATA1 = *(uint32_t*)&(buffer[0]);
    107e:	47b2                	lw	a5,12(sp)
    1080:	012a0733          	add	a4,s4,s2
    1084:	00faa023          	sw	a5,0(s5)
		t = 0;
    1088:	4781                	li	a5,0
			buffer[t+1] = buf[t+place];
    108a:	00074583          	lbu	a1,0(a4)
    108e:	0785                	addi	a5,a5,1
    1090:	00f606b3          	add	a3,a2,a5
    1094:	00b68023          	sb	a1,0(a3)
		while( t < tosend && t < 3 )
    1098:	00f98563          	beq	s3,a5,10a2 <_write.constprop.0+0xa0>
    109c:	0705                	addi	a4,a4,1
    109e:	ff7796e3          	bne	a5,s7,108a <_write.constprop.0+0x88>
		buffer[0] = 0x80 | (tosend + 4);
    10a2:	00498793          	addi	a5,s3,4
    10a6:	f807e793          	ori	a5,a5,-128
    10aa:	00f10623          	sb	a5,12(sp)
		*DMDATA0 = *(uint32_t*)&(buffer[0]);
    10ae:	47b2                	lw	a5,12(sp)
		place += tosend;
    10b0:	994e                	add	s2,s2,s3
		*DMDATA0 = *(uint32_t*)&(buffer[0]);
    10b2:	c01c                	sw	a5,0(s0)
	while( place < size )
    10b4:	fa9942e3          	blt	s2,s1,1058 <_write.constprop.0+0x56>
    10b8:	b761                	j	1040 <_write.constprop.0+0x3e>
			if( timeout-- == 0 )
    10ba:	17fd                	addi	a5,a5,-1
    10bc:	f7d5                	bnez	a5,1068 <_write.constprop.0+0x66>
				*DMDATA0 |= 0xc0;
    10be:	401c                	lw	a5,0(s0)
    10c0:	0c07e793          	ori	a5,a5,192
    10c4:	c01c                	sw	a5,0(s0)
				return 0;
    10c6:	bfa5                	j	103e <_write.constprop.0+0x3c>
			buffer[t-3] = buf[t+place];
    10c8:	00f906b3          	add	a3,s2,a5
    10cc:	96d2                	add	a3,a3,s4
    10ce:	0006c683          	lbu	a3,0(a3)
			t++;
    10d2:	0785                	addi	a5,a5,1
    10d4:	0705                	addi	a4,a4,1
			buffer[t-3] = buf[t+place];
    10d6:	fed70fa3          	sb	a3,-1(a4)
    10da:	b745                	j	107a <_write.constprop.0+0x78>
		*DMDATA1 = *(uint32_t*)&(buffer[0]);
    10dc:	e0000ab7          	lui	s5,0xe0000
    10e0:	8a2a                	mv	s4,a0
    10e2:	4901                	li	s2,0
		if( tosend > 7 ) tosend = 7;
    10e4:	4b1d                	li	s6,7
		*DMDATA1 = *(uint32_t*)&(buffer[0]);
    10e6:	344a8a93          	addi	s5,s5,836 # e0000344 <_eusrstack+0xbfffd344>
		while( t < tosend && t < 3 )
    10ea:	4b8d                	li	s7,3
    10ec:	b7e1                	j	10b4 <_write.constprop.0+0xb2>

000010ee <__puts_uart>:
{
    10ee:	1141                	addi	sp,sp,-16
    10f0:	c422                	sw	s0,8(sp)
    10f2:	c606                	sw	ra,12(sp)
    10f4:	842e                	mv	s0,a1
	_write( 0, s, len );
    10f6:	3731                	jal	1002 <_write.constprop.0>
}
    10f8:	40b2                	lw	ra,12(sp)
    10fa:	8522                	mv	a0,s0
    10fc:	4422                	lw	s0,8(sp)
    10fe:	0141                	addi	sp,sp,16
    1100:	8082                	ret

00001102 <ssd1306_pkt_send.isra.0>:
}

/*
 * packet send for blocking polled operation via spi
 */
uint8_t ssd1306_pkt_send(const uint8_t *data, int sz, uint8_t cmd)
    1102:	400017b7          	lui	a5,0x40001
    1106:	0ac78793          	addi	a5,a5,172 # 400010ac <_eusrstack+0x1fffe0ac>
    110a:	40000713          	li	a4,1024
{
	if(cmd)
    110e:	ca1d                	beqz	a2,1144 <ssd1306_pkt_send.isra.0+0x42>
	{
		funDigitalWrite( SSD1306_DC_PIN, FUN_LOW );
    1110:	c398                	sw	a4,0(a5)
	else
	{
		funDigitalWrite( SSD1306_DC_PIN, FUN_HIGH );
	}

	funDigitalWrite( SSD1306_CS_PIN, FUN_LOW );
    1112:	4741                	li	a4,16
    1114:	c398                	sw	a4,0(a5)
			funDigitalWrite( SSD1306_SCK_PIN, FUN_HIGH );      ADD_N_NOPS(1)
			c<<=1;
		} while( --i );

#elif defined( CH5xx )
		while(! (R8_SPI0_INT_FLAG & RB_SPI_FREE) );
    1116:	400047b7          	lui	a5,0x40004
		R8_SPI0_BUFFER = *data++;
    111a:	40004737          	lui	a4,0x40004
    111e:	95aa                	add	a1,a1,a0
		while(! (R8_SPI0_INT_FLAG & RB_SPI_FREE) );
    1120:	0799                	addi	a5,a5,6 # 40004006 <_eusrstack+0x20001006>
		R8_SPI0_BUFFER = *data++;
    1122:	0711                	addi	a4,a4,4 # 40004004 <_eusrstack+0x20001004>
	while(sz--)
    1124:	02b51563          	bne	a0,a1,114e <ssd1306_pkt_send.isra.0+0x4c>
	
	// wait for not busy before exiting
#if SSD1306_SOFT_SPI
	// Nothing needed here.
#elif defined( CH5xx )
	while( !(R8_SPI0_INT_FLAG & RB_SPI_FREE)) { }
    1128:	40004737          	lui	a4,0x40004
    112c:	0719                	addi	a4,a4,6 # 40004006 <_eusrstack+0x20001006>
    112e:	00074783          	lbu	a5,0(a4)
    1132:	0407f793          	andi	a5,a5,64
    1136:	dfe5                	beqz	a5,112e <ssd1306_pkt_send.isra.0+0x2c>
#else
	while(SPI1->STATR & SPI_STATR_BSY) { }
#endif

	funDigitalWrite( SSD1306_CS_PIN, FUN_HIGH );
    1138:	400017b7          	lui	a5,0x40001
    113c:	4741                	li	a4,16
    113e:	0ae7ac23          	sw	a4,184(a5) # 400010b8 <_eusrstack+0x1fffe0b8>
	
	// we're happy
	return 0;
}
    1142:	8082                	ret
		funDigitalWrite( SSD1306_DC_PIN, FUN_HIGH );
    1144:	400016b7          	lui	a3,0x40001
    1148:	0ae6ac23          	sw	a4,184(a3) # 400010b8 <_eusrstack+0x1fffe0b8>
    114c:	b7d9                	j	1112 <ssd1306_pkt_send.isra.0+0x10>
		while(! (R8_SPI0_INT_FLAG & RB_SPI_FREE) );
    114e:	0007c683          	lbu	a3,0(a5)
    1152:	0406f693          	andi	a3,a3,64
    1156:	dee5                	beqz	a3,114e <ssd1306_pkt_send.isra.0+0x4c>
		R8_SPI0_BUFFER = *data++;
    1158:	00054683          	lbu	a3,0(a0)
    115c:	0505                	addi	a0,a0,1
    115e:	00d70023          	sb	a3,0(a4)
    1162:	b7c9                	j	1124 <ssd1306_pkt_send.isra.0+0x22>

00001164 <ssd1306_cmd.isra.0>:
uint8_t ssd1306_cmd(uint8_t cmd)
    1164:	1101                	addi	sp,sp,-32
	return ssd1306_pkt_send(&cmd, 1, 1);
    1166:	4605                	li	a2,1
uint8_t ssd1306_cmd(uint8_t cmd)
    1168:	00a107a3          	sb	a0,15(sp)
	return ssd1306_pkt_send(&cmd, 1, 1);
    116c:	85b2                	mv	a1,a2
    116e:	00f10513          	addi	a0,sp,15
uint8_t ssd1306_cmd(uint8_t cmd)
    1172:	ce06                	sw	ra,28(sp)
	return ssd1306_pkt_send(&cmd, 1, 1);
    1174:	3779                	jal	1102 <ssd1306_pkt_send.isra.0>
}
    1176:	40f2                	lw	ra,28(sp)
    1178:	6105                	addi	sp,sp,32
    117a:	8082                	ret

0000117c <ssd1306_refresh>:
{
    117c:	1141                	addi	sp,sp,-16
    117e:	c422                	sw	s0,8(sp)
	ssd1306_cmd(SSD1306_MEMORYMODE); // vertical addressing mode.
    1180:	02000513          	li	a0,32
    1184:	20002437          	lui	s0,0x20002
{
    1188:	c226                	sw	s1,4(sp)
    118a:	c04a                	sw	s2,0(sp)
    118c:	c606                	sw	ra,12(sp)
    118e:	8e440413          	addi	s0,s0,-1820 # 200018e4 <ssd1306_buffer>
	ssd1306_cmd(SSD1306_MEMORYMODE); // vertical addressing mode.
    1192:	3fc9                	jal	1164 <ssd1306_cmd.isra.0>
	for(i=0;i<SSD1306_H/8;i++)
    1194:	4481                	li	s1,0
		ssd1306_cmd( 0x10 | (0>>4) );
    1196:	4941                	li	s2,16
		ssd1306_cmd(0xb0 | i);
    1198:	fb04e513          	ori	a0,s1,-80
    119c:	0ff57513          	zext.b	a0,a0
    11a0:	37d1                	jal	1164 <ssd1306_cmd.isra.0>
		ssd1306_cmd( 0x00 | (0&0xf) ); 
    11a2:	4501                	li	a0,0
    11a4:	37c1                	jal	1164 <ssd1306_cmd.isra.0>
		ssd1306_cmd( 0x10 | (0>>4) );
    11a6:	4541                	li	a0,16
    11a8:	3f75                	jal	1164 <ssd1306_cmd.isra.0>
	return ssd1306_pkt_send(data, sz, 0);
    11aa:	8522                	mv	a0,s0
    11ac:	4601                	li	a2,0
    11ae:	02000593          	li	a1,32
    11b2:	3f81                	jal	1102 <ssd1306_pkt_send.isra.0>
    11b4:	02000593          	li	a1,32
    11b8:	00b40533          	add	a0,s0,a1
    11bc:	4601                	li	a2,0
    11be:	3791                	jal	1102 <ssd1306_pkt_send.isra.0>
    11c0:	04040513          	addi	a0,s0,64
    11c4:	4601                	li	a2,0
    11c6:	02000593          	li	a1,32
	for(i=0;i<SSD1306_H/8;i++)
    11ca:	0485                	addi	s1,s1,1
	return ssd1306_pkt_send(data, sz, 0);
    11cc:	3f1d                	jal	1102 <ssd1306_pkt_send.isra.0>
	for(i=0;i<SSD1306_H/8;i++)
    11ce:	04c2                	slli	s1,s1,0x10
	return ssd1306_pkt_send(data, sz, 0);
    11d0:	06040513          	addi	a0,s0,96
    11d4:	4601                	li	a2,0
    11d6:	02000593          	li	a1,32
	for(i=0;i<SSD1306_H/8;i++)
    11da:	80c1                	srli	s1,s1,0x10
	return ssd1306_pkt_send(data, sz, 0);
    11dc:	371d                	jal	1102 <ssd1306_pkt_send.isra.0>
	for(i=0;i<SSD1306_H/8;i++)
    11de:	08040413          	addi	s0,s0,128
    11e2:	fb249be3          	bne	s1,s2,1198 <ssd1306_refresh+0x1c>
}
    11e6:	40b2                	lw	ra,12(sp)
    11e8:	4422                	lw	s0,8(sp)
    11ea:	4492                	lw	s1,4(sp)
    11ec:	4902                	lw	s2,0(sp)
    11ee:	0141                	addi	sp,sp,16
    11f0:	8082                	ret

000011f2 <funPinMode.constprop.0>:
		*(&R32_PA_PD_DRV + OFFSET_FOR_GPIOB(pin)) |= (pin & ~PB);
    11f2:	400017b7          	lui	a5,0x40001
    11f6:	0b478793          	addi	a5,a5,180 # 400010b4 <_eusrstack+0x1fffe0b4>
    11fa:	4398                	lw	a4,0(a5)
    11fc:	8f49                	or	a4,a4,a0
    11fe:	c398                	sw	a4,0(a5)
		*(&R32_PA_DIR + OFFSET_FOR_GPIOB(pin))    |= (pin & ~PB);
    1200:	400017b7          	lui	a5,0x40001
    1204:	0a078793          	addi	a5,a5,160 # 400010a0 <_eusrstack+0x1fffe0a0>
    1208:	4398                	lw	a4,0(a5)
    120a:	8d59                	or	a0,a0,a4
    120c:	c388                	sw	a0,0(a5)
}
    120e:	8082                	ret

00001210 <handle_reset>:
	asm volatile( "\n\
    1210:	20000197          	auipc	gp,0x20000
    1214:	b9018193          	addi	gp,gp,-1136 # 20000da0 <__global_pointer$>
    1218:	20002117          	auipc	sp,0x20002
    121c:	de810113          	addi	sp,sp,-536 # 20003000 <_eusrstack>
	asm volatile(
    1220:	6b018513          	addi	a0,gp,1712 # 20001450 <frameentropy>
    1224:	20001597          	auipc	a1,0x20001
    1228:	ec058593          	addi	a1,a1,-320 # 200020e4 <_ebss>
    122c:	00b57763          	bgeu	a0,a1,123a <handle_reset+0x2a>
    1230:	00052023          	sw	zero,0(a0)
    1234:	0511                	addi	a0,a0,4
    1236:	feb56de3          	bltu	a0,a1,1230 <handle_reset+0x20>
    123a:	09000513          	li	a0,144
    123e:	1ffff597          	auipc	a1,0x1ffff
    1242:	dc258593          	addi	a1,a1,-574 # 20000000 <EventRelease>
    1246:	1ffff617          	auipc	a2,0x1ffff
    124a:	75e60613          	addi	a2,a2,1886 # 200009a4 <_data_vma>
    124e:	00c5fa63          	bgeu	a1,a2,1262 <handle_reset+0x52>
    1252:	00052283          	lw	t0,0(a0)
    1256:	0055a023          	sw	t0,0(a1)
    125a:	0511                	addi	a0,a0,4
    125c:	0591                	addi	a1,a1,4
    125e:	fec5eae3          	bltu	a1,a2,1252 <handle_reset+0x42>
    1262:	00002517          	auipc	a0,0x2
    1266:	ede50513          	addi	a0,a0,-290 # 3140 <_data_lma>
    126a:	c0418593          	addi	a1,gp,-1020 # 200009a4 <_data_vma>
    126e:	6b018613          	addi	a2,gp,1712 # 20001450 <frameentropy>
    1272:	00c58a63          	beq	a1,a2,1286 <handle_reset+0x76>
    1276:	00052283          	lw	t0,0(a0)
    127a:	0055a023          	sw	t0,0(a1)
    127e:	0511                	addi	a0,a0,4
    1280:	0591                	addi	a1,a1,4
    1282:	fec5eae3          	bltu	a1,a2,1276 <handle_reset+0x66>
	asm volatile(
    1286:	00000793          	li	a5,0
    128a:	42fd                	li	t0,31
    128c:	bc029073          	csrw	0xbc0,t0
    1290:	6289                	lui	t0,0x2
    1292:	88828293          	addi	t0,t0,-1912 # 1888 <ModeShutLoop+0x108>
    1296:	3002a073          	csrs	mstatus,t0
    129a:	fffff297          	auipc	t0,0xfffff
    129e:	d6628293          	addi	t0,t0,-666 # 0 <InterruptVector>
    12a2:	0032e293          	ori	t0,t0,3
    12a6:	30529073          	csrw	mtvec,t0
	SysTick->CTLR = 5;
    12aa:	e000f7b7          	lui	a5,0xe000f
    12ae:	4715                	li	a4,5
    12b0:	c398                	sw	a4,0(a5)
	asm volatile(
    12b2:	6789                	lui	a5,0x2
    12b4:	06678793          	addi	a5,a5,102 # 2066 <main>
    12b8:	34179073          	csrw	mepc,a5
    12bc:	30200073          	mret

000012c0 <ADC1_2_IRQHandler>:
	asm volatile( "1: j 1b" );
    12c0:	a001                	j	12c0 <ADC1_2_IRQHandler>

000012c2 <strlen>:
	for (; *s; s++);
    12c2:	87aa                	mv	a5,a0
    12c4:	0007c703          	lbu	a4,0(a5)
    12c8:	e701                	bnez	a4,12d0 <strlen+0xe>
}
    12ca:	40a78533          	sub	a0,a5,a0
    12ce:	8082                	ret
	for (; *s; s++);
    12d0:	0785                	addi	a5,a5,1
    12d2:	bfcd                	j	12c4 <strlen+0x2>

000012d4 <mini_vpprintf>:
{
    12d4:	7175                	addi	sp,sp,-144
    12d6:	c522                	sw	s0,136(sp)
    12d8:	d2e6                	sw	s9,100(sp)
    12da:	c706                	sw	ra,140(sp)
    12dc:	c326                	sw	s1,132(sp)
    12de:	c14a                	sw	s2,128(sp)
    12e0:	dece                	sw	s3,124(sp)
    12e2:	dcd2                	sw	s4,120(sp)
    12e4:	dad6                	sw	s5,116(sp)
    12e6:	d8da                	sw	s6,112(sp)
    12e8:	d6de                	sw	s7,108(sp)
    12ea:	d4e2                	sw	s8,104(sp)
    12ec:	d0ea                	sw	s10,96(sp)
    12ee:	ceee                	sw	s11,92(sp)
    12f0:	8432                	mv	s0,a2
    12f2:	8cb6                	mv	s9,a3
	if(puts == (void*)0) {
    12f4:	e139                	bnez	a0,133a <mini_vpprintf+0x66>
		puts = _puts; buf = (void*)0;
    12f6:	6485                	lui	s1,0x1
    12f8:	4901                	li	s2,0
    12fa:	abe48493          	addi	s1,s1,-1346 # abe <_puts>
	int n = 0;
    12fe:	4981                	li	s3,0
		if (ch!='%') {
    1300:	02500a93          	li	s5,37
			if (ch == '0') pad_char = '0';
    1304:	03000a13          	li	s4,48
			while (ch >= '0' && ch <= '9') {
    1308:	4b25                	li	s6,9
				pad_to = pad_to * 10 + (ch - '0');
    130a:	4ba9                	li	s7,10
	while ((ch=*(fmt++))) {
    130c:	00044783          	lbu	a5,0(s0)
    1310:	00140d13          	addi	s10,s0,1
    1314:	00f10fa3          	sb	a5,31(sp)
    1318:	e785                	bnez	a5,1340 <mini_vpprintf+0x6c>
}
    131a:	40ba                	lw	ra,140(sp)
    131c:	442a                	lw	s0,136(sp)
    131e:	449a                	lw	s1,132(sp)
    1320:	490a                	lw	s2,128(sp)
    1322:	5a66                	lw	s4,120(sp)
    1324:	5ad6                	lw	s5,116(sp)
    1326:	5b46                	lw	s6,112(sp)
    1328:	5bb6                	lw	s7,108(sp)
    132a:	5c26                	lw	s8,104(sp)
    132c:	5c96                	lw	s9,100(sp)
    132e:	5d06                	lw	s10,96(sp)
    1330:	4df6                	lw	s11,92(sp)
    1332:	854e                	mv	a0,s3
    1334:	59f6                	lw	s3,124(sp)
    1336:	6149                	addi	sp,sp,144
    1338:	8082                	ret
    133a:	84aa                	mv	s1,a0
    133c:	892e                	mv	s2,a1
    133e:	b7c1                	j	12fe <mini_vpprintf+0x2a>
		if (ch!='%') {
    1340:	01578c63          	beq	a5,s5,1358 <mini_vpprintf+0x84>
			len = puts(&ch, len, buf);
    1344:	864a                	mv	a2,s2
    1346:	4585                	li	a1,1
    1348:	01f10513          	addi	a0,sp,31
    134c:	9482                	jalr	s1
    134e:	8c66                	mv	s8,s9
	while ((ch=*(fmt++))) {
    1350:	846a                	mv	s0,s10
		n = n + len;
    1352:	99aa                	add	s3,s3,a0
    1354:	8ce2                	mv	s9,s8
    1356:	bf5d                	j	130c <mini_vpprintf+0x38>
			ch=*(fmt++);
    1358:	00144703          	lbu	a4,1(s0)
    135c:	00240793          	addi	a5,s0,2
			if (ch == '0') pad_char = '0';
    1360:	8d52                	mv	s10,s4
			ch=*(fmt++);
    1362:	00e10fa3          	sb	a4,31(sp)
			if (ch == '0') pad_char = '0';
    1366:	07471e63          	bne	a4,s4,13e2 <mini_vpprintf+0x10e>
				ch=*(fmt++);
    136a:	843e                	mv	s0,a5
    136c:	4681                	li	a3,0
    136e:	4781                	li	a5,0
    1370:	a801                	j	1380 <mini_vpprintf+0xac>
				pad_to = pad_to * 10 + (ch - '0');
    1372:	037787b3          	mul	a5,a5,s7
				ch=*(fmt++);
    1376:	00044703          	lbu	a4,0(s0)
    137a:	0405                	addi	s0,s0,1
    137c:	4685                	li	a3,1
				pad_to = pad_to * 10 + (ch - '0');
    137e:	97b2                	add	a5,a5,a2
			while (ch >= '0' && ch <= '9') {
    1380:	fd070613          	addi	a2,a4,-48
    1384:	0ff67593          	zext.b	a1,a2
    1388:	febb75e3          	bgeu	s6,a1,1372 <mini_vpprintf+0x9e>
    138c:	c299                	beqz	a3,1392 <mini_vpprintf+0xbe>
    138e:	00e10fa3          	sb	a4,31(sp)
			if(pad_to > (signed int) sizeof(bf)) {
    1392:	46e1                	li	a3,24
    1394:	8dbe                	mv	s11,a5
    1396:	00f6d363          	bge	a3,a5,139c <mini_vpprintf+0xc8>
    139a:	8db6                	mv	s11,a3
			if (ch == 'l') {
    139c:	06c00693          	li	a3,108
			char l = 0;
    13a0:	4601                	li	a2,0
			if (ch == 'l') {
    13a2:	00d71863          	bne	a4,a3,13b2 <mini_vpprintf+0xde>
				ch=*(fmt++);
    13a6:	00044703          	lbu	a4,0(s0)
				l = 1;
    13aa:	4605                	li	a2,1
				ch=*(fmt++);
    13ac:	0405                	addi	s0,s0,1
    13ae:	00e10fa3          	sb	a4,31(sp)
			switch (ch) {
    13b2:	01f14683          	lbu	a3,31(sp)
    13b6:	06400713          	li	a4,100
    13ba:	06e68363          	beq	a3,a4,1420 <mini_vpprintf+0x14c>
    13be:	02d76563          	bltu	a4,a3,13e8 <mini_vpprintf+0x114>
    13c2:	05800793          	li	a5,88
    13c6:	0af68063          	beq	a3,a5,1466 <mini_vpprintf+0x192>
    13ca:	06300793          	li	a5,99
    13ce:	0af68e63          	beq	a3,a5,148a <mini_vpprintf+0x1b6>
    13d2:	d6a1                	beqz	a3,131a <mini_vpprintf+0x46>
					len = puts(&ch, len, buf);
    13d4:	864a                	mv	a2,s2
    13d6:	4585                	li	a1,1
    13d8:	01f10513          	addi	a0,sp,31
    13dc:	9482                	jalr	s1
					break;
    13de:	8c66                	mv	s8,s9
    13e0:	bf8d                	j	1352 <mini_vpprintf+0x7e>
			char pad_char = ' ';
    13e2:	02000d13          	li	s10,32
    13e6:	b751                	j	136a <mini_vpprintf+0x96>
			switch (ch) {
    13e8:	07500713          	li	a4,117
    13ec:	02e68a63          	beq	a3,a4,1420 <mini_vpprintf+0x14c>
    13f0:	07800713          	li	a4,120
    13f4:	06e68963          	beq	a3,a4,1466 <mini_vpprintf+0x192>
    13f8:	07300713          	li	a4,115
    13fc:	fce69ce3          	bne	a3,a4,13d4 <mini_vpprintf+0x100>
					ptr = va_arg(va, char*);
    1400:	004c8c13          	addi	s8,s9,4
    1404:	000cac83          	lw	s9,0(s9)
    1408:	c63e                	sw	a5,12(sp)
					len = mini_strlen(ptr);
    140a:	8566                	mv	a0,s9
    140c:	3d5d                	jal	12c2 <strlen>
					if (pad_to > 0) {
    140e:	47b2                	lw	a5,12(sp)
					len = mini_strlen(ptr);
    1410:	85aa                	mv	a1,a0
					if (pad_to > 0) {
    1412:	08f05963          	blez	a5,14a4 <mini_vpprintf+0x1d0>
						len = mini_pad(ptr, len, pad_char, pad_to, bf);
    1416:	1838                	addi	a4,sp,56
    1418:	86ee                	mv	a3,s11
    141a:	866a                	mv	a2,s10
    141c:	8566                	mv	a0,s9
    141e:	a025                	j	1446 <mini_vpprintf+0x172>
						len = mini_itoa(va_arg(va, unsigned long), 10, 0, (ch=='u'), bf2);
    1420:	004c8c13          	addi	s8,s9,4
					if(l) {
    1424:	ca05                	beqz	a2,1454 <mini_vpprintf+0x180>
						len = mini_itoa(va_arg(va, unsigned long), 10, 0, (ch=='u'), bf2);
    1426:	f8b68693          	addi	a3,a3,-117
    142a:	1018                	addi	a4,sp,32
    142c:	0016b693          	seqz	a3,a3
    1430:	000ca503          	lw	a0,0(s9)
    1434:	4601                	li	a2,0
    1436:	45a9                	li	a1,10
    1438:	edaff0ef          	jal	b12 <mini_itoa.part.0>
					len = mini_pad(bf2, len, pad_char, pad_to, bf);
    143c:	1838                	addi	a4,sp,56
    143e:	86ee                	mv	a3,s11
    1440:	866a                	mv	a2,s10
    1442:	85aa                	mv	a1,a0
					len = mini_pad(bf2, len, pad_char, pad_to, bf);
    1444:	1008                	addi	a0,sp,32
    1446:	deeff0ef          	jal	a34 <mini_pad>
    144a:	85aa                	mv	a1,a0
					len = puts(bf, len, buf);
    144c:	864a                	mv	a2,s2
    144e:	1828                	addi	a0,sp,56
    1450:	9482                	jalr	s1
					break;
    1452:	b701                	j	1352 <mini_vpprintf+0x7e>
						if(ch == 'u') {
    1454:	07500793          	li	a5,117
    1458:	1018                	addi	a4,sp,32
    145a:	00f69463          	bne	a3,a5,1462 <mini_vpprintf+0x18e>
	if (radix > 16)
    145e:	4685                	li	a3,1
    1460:	bfc1                	j	1430 <mini_vpprintf+0x15c>
    1462:	4681                	li	a3,0
    1464:	b7f1                	j	1430 <mini_vpprintf+0x15c>
					if(l) {
    1466:	000ca503          	lw	a0,0(s9)
						len = mini_itoa(va_arg(va, unsigned long), 16, (ch=='X'), 1, bf2);
    146a:	fa868613          	addi	a2,a3,-88
    146e:	1018                	addi	a4,sp,32
    1470:	4685                	li	a3,1
    1472:	00163613          	seqz	a2,a2
    1476:	45c1                	li	a1,16
    1478:	e9aff0ef          	jal	b12 <mini_itoa.part.0>
						len = mini_itoa(va_arg(va, unsigned long), 10, 0, (ch=='u'), bf2);
    147c:	004c8c13          	addi	s8,s9,4
	if (radix > 16)
    1480:	85aa                	mv	a1,a0
					len = mini_pad(bf2, len, pad_char, pad_to, bf);
    1482:	1838                	addi	a4,sp,56
    1484:	86ee                	mv	a3,s11
    1486:	866a                	mv	a2,s10
    1488:	bf75                	j	1444 <mini_vpprintf+0x170>
					ch = (char)(va_arg(va, int));
    148a:	000ca783          	lw	a5,0(s9)
    148e:	004c8c13          	addi	s8,s9,4
					len = mini_pad(&ch, 1, pad_char, pad_to, bf);
    1492:	1838                	addi	a4,sp,56
					ch = (char)(va_arg(va, int));
    1494:	00f10fa3          	sb	a5,31(sp)
					len = mini_pad(&ch, 1, pad_char, pad_to, bf);
    1498:	86ee                	mv	a3,s11
    149a:	866a                	mv	a2,s10
    149c:	4585                	li	a1,1
    149e:	01f10513          	addi	a0,sp,31
    14a2:	b755                	j	1446 <mini_vpprintf+0x172>
						len = puts(ptr, len, buf);
    14a4:	864a                	mv	a2,s2
    14a6:	8566                	mv	a0,s9
    14a8:	b765                	j	1450 <mini_vpprintf+0x17c>

000014aa <printf>:
{
    14aa:	7139                	addi	sp,sp,-64
    14ac:	d432                	sw	a2,40(sp)
	int ret_status = mini_vpprintf(__puts_uart, 0, format, args);
    14ae:	862a                	mv	a2,a0
    14b0:	6505                	lui	a0,0x1
{
    14b2:	d22e                	sw	a1,36(sp)
    14b4:	d636                	sw	a3,44(sp)
	int ret_status = mini_vpprintf(__puts_uart, 0, format, args);
    14b6:	4581                	li	a1,0
	va_start( args, format );
    14b8:	1054                	addi	a3,sp,36
	int ret_status = mini_vpprintf(__puts_uart, 0, format, args);
    14ba:	0ee50513          	addi	a0,a0,238 # 10ee <__puts_uart>
{
    14be:	ce06                	sw	ra,28(sp)
    14c0:	d83a                	sw	a4,48(sp)
    14c2:	da3e                	sw	a5,52(sp)
    14c4:	dc42                	sw	a6,56(sp)
    14c6:	de46                	sw	a7,60(sp)
	va_start( args, format );
    14c8:	c636                	sw	a3,12(sp)
	int ret_status = mini_vpprintf(__puts_uart, 0, format, args);
    14ca:	3529                	jal	12d4 <mini_vpprintf>
}
    14cc:	40f2                	lw	ra,28(sp)
    14ce:	6121                	addi	sp,sp,64
    14d0:	8082                	ret

000014d2 <mini_vsnprintf>:
{
    14d2:	1101                	addi	sp,sp,-32
    14d4:	ce06                	sw	ra,28(sp)
    14d6:	cc22                	sw	s0,24(sp)
	b.buffer = buffer;
    14d8:	c22a                	sw	a0,4(sp)
	b.pbuffer = buffer;
    14da:	c42a                	sw	a0,8(sp)
	b.buffer_len = buffer_len;
    14dc:	c62e                	sw	a1,12(sp)
	if(buffer_len == 0) buffer = (void*) 0;
    14de:	c585                	beqz	a1,1506 <mini_vsnprintf+0x34>
	int n = mini_vpprintf(_puts, (buffer != (void*)0)?&b:(void*)0, fmt, va);
    14e0:	00a037b3          	snez	a5,a0
    14e4:	004c                	addi	a1,sp,4
    14e6:	40f007b3          	neg	a5,a5
    14ea:	842a                	mv	s0,a0
    14ec:	8dfd                	and	a1,a1,a5
    14ee:	6505                	lui	a0,0x1
    14f0:	abe50513          	addi	a0,a0,-1346 # abe <_puts>
    14f4:	33c5                	jal	12d4 <mini_vpprintf>
	if(buffer == (void*) 0) {
    14f6:	c401                	beqz	s0,14fe <mini_vsnprintf+0x2c>
	return b.pbuffer - b.buffer;
    14f8:	4522                	lw	a0,8(sp)
    14fa:	4792                	lw	a5,4(sp)
    14fc:	8d1d                	sub	a0,a0,a5
}
    14fe:	40f2                	lw	ra,28(sp)
    1500:	4462                	lw	s0,24(sp)
    1502:	6105                	addi	sp,sp,32
    1504:	8082                	ret
    1506:	4401                	li	s0,0
	int n = mini_vpprintf(_puts, (buffer != (void*)0)?&b:(void*)0, fmt, va);
    1508:	4581                	li	a1,0
    150a:	b7d5                	j	14ee <mini_vsnprintf+0x1c>

0000150c <sprintf>:
{
    150c:	7139                	addi	sp,sp,-64
    150e:	d432                	sw	a2,40(sp)
	int ret = mini_vsnprintf( buffer, INT_MAX, format, args );
    1510:	862e                	mv	a2,a1
    1512:	800005b7          	lui	a1,0x80000
{
    1516:	d636                	sw	a3,44(sp)
	int ret = mini_vsnprintf( buffer, INT_MAX, format, args );
    1518:	15fd                	addi	a1,a1,-1 # 7fffffff <_eusrstack+0x5fffcfff>
	va_start( args, format );
    151a:	1034                	addi	a3,sp,40
{
    151c:	ce06                	sw	ra,28(sp)
    151e:	d83a                	sw	a4,48(sp)
    1520:	da3e                	sw	a5,52(sp)
    1522:	dc42                	sw	a6,56(sp)
    1524:	de46                	sw	a7,60(sp)
	va_start( args, format );
    1526:	c636                	sw	a3,12(sp)
	int ret = mini_vsnprintf( buffer, INT_MAX, format, args );
    1528:	376d                	jal	14d2 <mini_vsnprintf>
}
    152a:	40f2                	lw	ra,28(sp)
    152c:	6121                	addi	sp,sp,64
    152e:	8082                	ret

00001530 <memset>:
WEAK void *memset(void *dest, int c, size_t n) { unsigned char *s = dest; for (; n; n--, s++) *s = c; return dest; }
    1530:	962a                	add	a2,a2,a0
    1532:	87aa                	mv	a5,a0
    1534:	00c79363          	bne	a5,a2,153a <memset+0xa>
    1538:	8082                	ret
    153a:	00b78023          	sb	a1,0(a5)
    153e:	0785                	addi	a5,a5,1
    1540:	bfd5                	j	1534 <memset+0x4>

00001542 <ssd1306_setbuf.constprop.0>:
	memset(ssd1306_buffer, color ? 0xFF : 0x00, sizeof(ssd1306_buffer));
    1542:	6605                	lui	a2,0x1
    1544:	20002537          	lui	a0,0x20002
    1548:	80060613          	addi	a2,a2,-2048 # 800 <_einit+0x770>
    154c:	4581                	li	a1,0
    154e:	8e450513          	addi	a0,a0,-1820 # 200018e4 <ssd1306_buffer>
    1552:	bff9                	j	1530 <memset>

00001554 <ModePufferLoop>:

void ModePufferLoop( void * mode, uint32_t deltaTime, uint32_t * pressures, uint32_t clickedMask, uint32_t lastClickMask )
{
    1554:	1101                	addi	sp,sp,-32
    1556:	c64e                	sw	s3,12(sp)
	
	ModePuffer * m = (ModePuffer *)mode;
	uint32_t newClickedMask = (clickedMask & ( clickedMask ^ lastClickMask ) );
    1558:	fff74993          	not	s3,a4
{
    155c:	cc22                	sw	s0,24(sp)
    155e:	ca26                	sw	s1,20(sp)
    1560:	842a                	mv	s0,a0
    1562:	c84a                	sw	s2,16(sp)
    1564:	ce06                	sw	ra,28(sp)
    1566:	892e                	mv	s2,a1
	uint32_t newClickedMask = (clickedMask & ( clickedMask ^ lastClickMask ) );
    1568:	00d9f9b3          	and	s3,s3,a3
    ssd1306_setbuf(0x00); // Clear screen
    156c:	3fd9                	jal	1542 <ssd1306_setbuf.constprop.0>
	
	if(m->curPoke < m->popNum){
    156e:	01241783          	lh	a5,18(s0)
    1572:	01041483          	lh	s1,16(s0)
    1576:	0897c663          	blt	a5,s1,1602 <ModePufferLoop+0xae>
		}
		//printf("%d,%d\n",m->spriteTime,deltaTime);
	}
	//printf("%d\n",deltaTime);
	
	if(newClickedMask & 2){
    157a:	0029f793          	andi	a5,s3,2
    157e:	e3e9                	bnez	a5,1640 <ModePufferLoop+0xec>
		//Pressed the button
		m->curPoke++;
	}
	if(newClickedMask & 4 && m->curPoke >= m->popNum){
    1580:	0049f993          	andi	s3,s3,4
    1584:	0c099463          	bnez	s3,164c <ModePufferLoop+0xf8>
		m->spriteTime = 0;
		m->popNum = getNewPufferPokes();
		m->displayAdd = getRandExtraPokes();
	}
	
    if(m->popNum == 0){
    1588:	0e049d63          	bnez	s1,1682 <ModePufferLoop+0x12e>
		ssd1306_drawstr_sz(5,0,TitleText,1,1);
    158c:	6609                	lui	a2,0x2
    158e:	4685                	li	a3,1
    1590:	73460613          	addi	a2,a2,1844 # 2734 <ModeTestLoop+0xc>
    1594:	4581                	li	a1,0
    1596:	4515                	li	a0,5
    1598:	8c3ff0ef          	jal	e5a <ssd1306_drawstr_sz.constprop.0>
		ssd1306_drawstr_sz(0,20,Instructions1,1,1);
    159c:	6609                	lui	a2,0x2
    159e:	4685                	li	a3,1
    15a0:	74860613          	addi	a2,a2,1864 # 2748 <ModeTestLoop+0x20>
    15a4:	45d1                	li	a1,20
    15a6:	4501                	li	a0,0
    15a8:	8b3ff0ef          	jal	e5a <ssd1306_drawstr_sz.constprop.0>
		ssd1306_drawstr_sz(0,32,Instructions2,1,1);
    15ac:	6609                	lui	a2,0x2
    15ae:	4685                	li	a3,1
    15b0:	75c60613          	addi	a2,a2,1884 # 275c <ModeTestLoop+0x34>
    15b4:	02000593          	li	a1,32
    15b8:	4501                	li	a0,0
    15ba:	8a1ff0ef          	jal	e5a <ssd1306_drawstr_sz.constprop.0>
		ssd1306_drawstr_sz(0,44,Instructions3,1,1);
    15be:	6609                	lui	a2,0x2
    15c0:	4685                	li	a3,1
    15c2:	76c60613          	addi	a2,a2,1900 # 276c <ModeTestLoop+0x44>
    15c6:	02c00593          	li	a1,44
    15ca:	4501                	li	a0,0
    15cc:	88fff0ef          	jal	e5a <ssd1306_drawstr_sz.constprop.0>
		ssd1306_drawstr_sz(0,73,NewGameText1,1,1);
    15d0:	6609                	lui	a2,0x2
    15d2:	4685                	li	a3,1
    15d4:	78060613          	addi	a2,a2,1920 # 2780 <ModeTestLoop+0x58>
    15d8:	04900593          	li	a1,73
    15dc:	4501                	li	a0,0
    15de:	87dff0ef          	jal	e5a <ssd1306_drawstr_sz.constprop.0>
		ssd1306_drawstr_sz(0,85,NewGameText2,1,1);
    15e2:	6609                	lui	a2,0x2
    15e4:	4685                	li	a3,1
    15e6:	78c60613          	addi	a2,a2,1932 # 278c <ModeTestLoop+0x64>
    15ea:	05500593          	li	a1,85
	}else if(m->curPoke >= m->popNum){
		ssd1306_drawstr_sz(25,40,GameOverText,1,1);
		ssd1306_drawstr_sz(0,60,NewGameText1,1,1);
		ssd1306_drawstr_sz(0,72,NewGameText2,1,1);
    15ee:	4501                	li	a0,0
    15f0:	86bff0ef          	jal	e5a <ssd1306_drawstr_sz.constprop.0>
		}

	}
	
	ssd1306_refresh();
}
    15f4:	4462                	lw	s0,24(sp)
    15f6:	40f2                	lw	ra,28(sp)
    15f8:	44d2                	lw	s1,20(sp)
    15fa:	4942                	lw	s2,16(sp)
    15fc:	49b2                	lw	s3,12(sp)
    15fe:	6105                	addi	sp,sp,32
	ssd1306_refresh();
    1600:	beb5                	j	117c <ssd1306_refresh>
		m->spriteTime += deltaTime;
    1602:	445c                	lw	a5,12(s0)
    1604:	00f905b3          	add	a1,s2,a5
		while(m->spriteTime > TimePerTick){
    1608:	67d5                	lui	a5,0x15
		m->spriteTime += deltaTime;
    160a:	c44c                	sw	a1,12(s0)
		while(m->spriteTime > TimePerTick){
    160c:	c0878793          	addi	a5,a5,-1016 # 14c08 <firmware.c.3f3d58ee+0x10620>
			m->frameNum++;
    1610:	00841703          	lh	a4,8(s0)
		while(m->spriteTime > TimePerTick){
    1614:	02b7e063          	bltu	a5,a1,1634 <ModePufferLoop+0xe0>
		while(m->frameNum > TicksPerLoop){
    1618:	4755                	li	a4,21
    161a:	00841783          	lh	a5,8(s0)
    161e:	f4f77ee3          	bgeu	a4,a5,157a <ModePufferLoop+0x26>
			m->frameNum -= TicksPerLoop;
    1622:	17ad                	addi	a5,a5,-21
    1624:	00f41423          	sh	a5,8(s0)
			m->curPoke++;
    1628:	01245783          	lhu	a5,18(s0)
    162c:	0785                	addi	a5,a5,1
    162e:	00f41923          	sh	a5,18(s0)
    1632:	b7e5                	j	161a <ModePufferLoop+0xc6>
			m->spriteTime -= TimePerTick;
    1634:	8d9d                	sub	a1,a1,a5
			m->frameNum++;
    1636:	0705                	addi	a4,a4,1
			m->spriteTime -= TimePerTick;
    1638:	c44c                	sw	a1,12(s0)
			m->frameNum++;
    163a:	00e41423          	sh	a4,8(s0)
    163e:	bfc9                	j	1610 <ModePufferLoop+0xbc>
		m->curPoke++;
    1640:	01245783          	lhu	a5,18(s0)
    1644:	0785                	addi	a5,a5,1
    1646:	00f41923          	sh	a5,18(s0)
    164a:	bf1d                	j	1580 <ModePufferLoop+0x2c>
	if(newClickedMask & 4 && m->curPoke >= m->popNum){
    164c:	01241783          	lh	a5,18(s0)
    1650:	f297cce3          	blt	a5,s1,1588 <ModePufferLoop+0x34>
		m->curPoke = 0;
    1654:	00041923          	sh	zero,18(s0)
		m->frameNum = 0;
    1658:	00041423          	sh	zero,8(s0)
		m->spriteTime = 0;
    165c:	00042623          	sw	zero,12(s0)
    1660:	f44ff0ef          	jal	da4 <_rand_gen_32b>
	return ((rand() % 35) + 20);
    1664:	02300793          	li	a5,35
    1668:	02f574b3          	remu	s1,a0,a5
		m->popNum = getNewPufferPokes();
    166c:	04d1                	addi	s1,s1,20
    166e:	00941823          	sh	s1,16(s0)
    1672:	f32ff0ef          	jal	da4 <_rand_gen_32b>
	return (rand() % 5) + 10;
    1676:	4795                	li	a5,5
    1678:	02f57533          	remu	a0,a0,a5
    167c:	0529                	addi	a0,a0,10
		m->displayAdd = getRandExtraPokes();
    167e:	00a41a23          	sh	a0,20(s0)
	}else if(m->curPoke >= m->popNum){
    1682:	01241703          	lh	a4,18(s0)
    1686:	02974b63          	blt	a4,s1,16bc <ModePufferLoop+0x168>
		ssd1306_drawstr_sz(25,40,GameOverText,1,1);
    168a:	6609                	lui	a2,0x2
    168c:	4685                	li	a3,1
    168e:	79c60613          	addi	a2,a2,1948 # 279c <ModeTestLoop+0x74>
    1692:	02800593          	li	a1,40
    1696:	4565                	li	a0,25
    1698:	fc2ff0ef          	jal	e5a <ssd1306_drawstr_sz.constprop.0>
		ssd1306_drawstr_sz(0,60,NewGameText1,1,1);
    169c:	6609                	lui	a2,0x2
    169e:	4685                	li	a3,1
    16a0:	78060613          	addi	a2,a2,1920 # 2780 <ModeTestLoop+0x58>
    16a4:	03c00593          	li	a1,60
    16a8:	4501                	li	a0,0
    16aa:	fb0ff0ef          	jal	e5a <ssd1306_drawstr_sz.constprop.0>
		ssd1306_drawstr_sz(0,72,NewGameText2,1,1);
    16ae:	6609                	lui	a2,0x2
    16b0:	4685                	li	a3,1
    16b2:	78c60613          	addi	a2,a2,1932 # 278c <ModeTestLoop+0x64>
    16b6:	04800593          	li	a1,72
    16ba:	bf15                	j	15ee <ModePufferLoop+0x9a>
		int radialSteps = (m->frameNum * SinStepsPerFrame) % TicksPerLoop;
    16bc:	00841503          	lh	a0,8(s0)
    16c0:	4995                	li	s3,5
    16c2:	46d5                	li	a3,21
    16c4:	03350533          	mul	a0,a0,s3
		int sinDegrees = radialSteps * 360  / TicksPerLoop;
    16c8:	16800793          	li	a5,360
		int radialSteps = (m->frameNum * SinStepsPerFrame) % TicksPerLoop;
    16cc:	02d57533          	remu	a0,a0,a3
		int sinDegrees = radialSteps * 360  / TicksPerLoop;
    16d0:	02f50533          	mul	a0,a0,a5
    16d4:	02d55533          	divu	a0,a0,a3
		int cosDegrees = (sinDegrees + 90) % 360;
    16d8:	05a50913          	addi	s2,a0,90
    16dc:	02f96933          	rem	s2,s2,a5
		int displayedPokes = (m->curPoke + m->displayAdd)*100/m->popNum;
    16e0:	01441783          	lh	a5,20(s0)
    16e4:	97ba                	add	a5,a5,a4
    16e6:	06400713          	li	a4,100
    16ea:	02e787b3          	mul	a5,a5,a4
		if(  displayedPokes  >  90  ){
    16ee:	05a00713          	li	a4,90
		int displayedPokes = (m->curPoke + m->displayAdd)*100/m->popNum;
    16f2:	0297c7b3          	div	a5,a5,s1
		if(  displayedPokes  >  90  ){
    16f6:	02f75763          	bge	a4,a5,1724 <ModePufferLoop+0x1d0>
			RenderBSprite(&fish2, 64+24*badSin(sinDegrees)-imageOffset,64+28*badSin(cosDegrees)-imageOffset);
    16fa:	ee8ff0ef          	jal	de2 <badSin>
    16fe:	842a                	mv	s0,a0
    1700:	854a                	mv	a0,s2
    1702:	ee0ff0ef          	jal	de2 <badSin>
    1706:	47f1                	li	a5,28
    1708:	02f50633          	mul	a2,a0,a5
    170c:	47e1                	li	a5,24
    170e:	14418513          	addi	a0,gp,324 # 20000ee4 <fish2>
    1712:	02f405b3          	mul	a1,s0,a5
    1716:	03460613          	addi	a2,a2,52
    171a:	03458593          	addi	a1,a1,52
			RenderBSprite(&fish0, 64-imageOffset,64-imageOffset);
    171e:	daeff0ef          	jal	ccc <RenderBSprite>
    1722:	bdc9                	j	15f4 <ModePufferLoop+0xa0>
		}else if(  displayedPokes  >  65  ){
    1724:	04100713          	li	a4,65
    1728:	02f75463          	bge	a4,a5,1750 <ModePufferLoop+0x1fc>
			RenderBSprite(&fish1, 64+17*badSin(sinDegrees)-imageOffset,64+17*badSin(cosDegrees)-imageOffset);
    172c:	eb6ff0ef          	jal	de2 <badSin>
    1730:	842a                	mv	s0,a0
    1732:	854a                	mv	a0,s2
    1734:	eaeff0ef          	jal	de2 <badSin>
    1738:	47c5                	li	a5,17
    173a:	02f50633          	mul	a2,a0,a5
    173e:	e8018513          	addi	a0,gp,-384 # 20000c20 <fish1>
    1742:	02f405b3          	mul	a1,s0,a5
    1746:	03460613          	addi	a2,a2,52
    174a:	03458593          	addi	a1,a1,52
    174e:	bfc1                	j	171e <ModePufferLoop+0x1ca>
		}else if(  displayedPokes  >  30  ){
    1750:	4779                	li	a4,30
    1752:	02f75363          	bge	a4,a5,1778 <ModePufferLoop+0x224>
			RenderBSprite(&fish0, 64+5*badSin(sinDegrees)-imageOffset,64+5*badSin(cosDegrees)-imageOffset);
    1756:	e8cff0ef          	jal	de2 <badSin>
    175a:	842a                	mv	s0,a0
    175c:	854a                	mv	a0,s2
    175e:	e84ff0ef          	jal	de2 <badSin>
    1762:	03350633          	mul	a2,a0,s3
    1766:	033405b3          	mul	a1,s0,s3
    176a:	03460613          	addi	a2,a2,52
    176e:	03458593          	addi	a1,a1,52
			RenderBSprite(&fish0, 64-imageOffset,64-imageOffset);
    1772:	c9c18513          	addi	a0,gp,-868 # 20000a3c <fish0>
    1776:	b765                	j	171e <ModePufferLoop+0x1ca>
    1778:	03400613          	li	a2,52
    177c:	85b2                	mv	a1,a2
    177e:	bfd5                	j	1772 <ModePufferLoop+0x21e>

00001780 <ModeShutLoop>:
	ModeShut *m = (ModeShut*) game;
	//Include this in modes to handle incoming traffic from the internet
}

void ModeShutLoop( void * mode, uint32_t deltaTime, uint32_t * pressures, uint32_t clickedMask, uint32_t lastClickMask )
{
    1780:	7135                	addi	sp,sp,-160
    1782:	cd22                	sw	s0,152(sp)
    1784:	cb26                	sw	s1,148(sp)
    1786:	842a                	mv	s0,a0
	ModeShut * m = (ModeShut *)mode;
	uint32_t newClickedMask = (clickedMask & ( clickedMask ^ lastClickMask ) );
    1788:	fff74493          	not	s1,a4
{
    178c:	c94a                	sw	s2,144(sp)
    178e:	cf06                	sw	ra,156(sp)
    1790:	c74e                	sw	s3,140(sp)
    1792:	c552                	sw	s4,136(sp)
    1794:	c356                	sw	s5,132(sp)
    1796:	c15a                	sw	s6,128(sp)
	uint32_t newClickedMask = (clickedMask & ( clickedMask ^ lastClickMask ) );
    1798:	8cf5                	and	s1,s1,a3
    ssd1306_setbuf(0x00); // Clear screen
    179a:	3365                	jal	1542 <ssd1306_setbuf.constprop.0>
	char t[128];//Allows us to dynamically draw text

	switch (m->gameState)
    179c:	03c42903          	lw	s2,60(s0)
    17a0:	02090063          	beqz	s2,17c0 <ModeShutLoop+0x40>
    17a4:	4785                	li	a5,1
    17a6:	1af90a63          	beq	s2,a5,195a <ModeShutLoop+0x1da>
				m->score=0;
			}
			break;
	}
	
	ssd1306_refresh();
    17aa:	3ac9                	jal	117c <ssd1306_refresh>
}
    17ac:	40fa                	lw	ra,156(sp)
    17ae:	446a                	lw	s0,152(sp)
    17b0:	44da                	lw	s1,148(sp)
    17b2:	494a                	lw	s2,144(sp)
    17b4:	49ba                	lw	s3,140(sp)
    17b6:	4a2a                	lw	s4,136(sp)
    17b8:	4a9a                	lw	s5,132(sp)
    17ba:	4b0a                	lw	s6,128(sp)
    17bc:	610d                	addi	sp,sp,160
    17be:	8082                	ret
			if(newClickedMask & 1){//Left
    17c0:	0014f793          	andi	a5,s1,1
    17c4:	cf89                	beqz	a5,17de <ModeShutLoop+0x5e>
    17c6:	5c1c                	lw	a5,56(s0)
					m->selected = (m->selected + 9) % 10;
    17c8:	46a9                	li	a3,10
    17ca:	07a5                	addi	a5,a5,9
    17cc:	02d7e7b3          	rem	a5,a5,a3
				}while(m->shutters[m->selected]!=0);
    17d0:	00478713          	addi	a4,a5,4
    17d4:	070a                	slli	a4,a4,0x2
    17d6:	9722                	add	a4,a4,s0
    17d8:	4318                	lw	a4,0(a4)
    17da:	fb65                	bnez	a4,17ca <ModeShutLoop+0x4a>
    17dc:	dc1c                	sw	a5,56(s0)
			if(newClickedMask & 4){//Right
    17de:	0044f793          	andi	a5,s1,4
    17e2:	cf89                	beqz	a5,17fc <ModeShutLoop+0x7c>
    17e4:	5c1c                	lw	a5,56(s0)
					m->selected = (m->selected + 1) % 10;
    17e6:	46a9                	li	a3,10
    17e8:	0785                	addi	a5,a5,1
    17ea:	02d7e7b3          	rem	a5,a5,a3
				}while(m->shutters[m->selected]!=0);
    17ee:	00478713          	addi	a4,a5,4
    17f2:	070a                	slli	a4,a4,0x2
    17f4:	9722                	add	a4,a4,s0
    17f6:	4318                	lw	a4,0(a4)
    17f8:	fb65                	bnez	a4,17e8 <ModeShutLoop+0x68>
    17fa:	dc1c                	sw	a5,56(s0)
			if(newClickedMask & 2){//Center, aka shutting
    17fc:	8889                	andi	s1,s1,2
    17fe:	01040993          	addi	s3,s0,16
    1802:	c0bd                	beqz	s1,1868 <ModeShutLoop+0xe8>
				if(m->remainingRoll >= (m->selected+1)){//if selected is 0 we're actually shutting the 1 spot
    1804:	5c1c                	lw	a5,56(s0)
    1806:	4454                	lw	a3,12(s0)
    1808:	00d7de63          	bge	a5,a3,1824 <ModeShutLoop+0xa4>
					m->shutters[m->selected] = 1;
    180c:	00478713          	addi	a4,a5,4
    1810:	070a                	slli	a4,a4,0x2
    1812:	9722                	add	a4,a4,s0
    1814:	4605                	li	a2,1
    1816:	c310                	sw	a2,0(a4)
					m->score += m->selected + 1;
    1818:	4418                	lw	a4,8(s0)
    181a:	97b2                	add	a5,a5,a2
					m->remainingRoll -= m->selected + 1;
    181c:	8e9d                	sub	a3,a3,a5
					m->score += m->selected + 1;
    181e:	973e                	add	a4,a4,a5
    1820:	c418                	sw	a4,8(s0)
					m->remainingRoll -= m->selected + 1;
    1822:	c454                	sw	a3,12(s0)
	for(int i=0; i<10; i++){
    1824:	84ce                	mv	s1,s3
    1826:	03840713          	addi	a4,s0,56
{
    182a:	87ce                	mv	a5,s3
		if(m->shutters[i] == 0){
    182c:	4394                	lw	a3,0(a5)
    182e:	1a068863          	beqz	a3,19de <ModeShutLoop+0x25e>
	for(int i=0; i<10; i++){
    1832:	0791                	addi	a5,a5,4
    1834:	fee79ce3          	bne	a5,a4,182c <ModeShutLoop+0xac>
					memset(m->shutters, 0, sizeof(int)*10);
    1838:	02800613          	li	a2,40
    183c:	4581                	li	a1,0
    183e:	854e                	mv	a0,s3
    1840:	39c5                	jal	1530 <memset>
					m->remainingRoll = rollDice();
    1842:	dc4ff0ef          	jal	e06 <rollDice>
    1846:	c448                	sw	a0,12(s0)
					m->selected = 0;
    1848:	02042c23          	sw	zero,56(s0)
	for(int i=0; i<m->remainingRoll; i++){
    184c:	aa71                	j	19e8 <ModeShutLoop+0x268>
		if(m->shutters[i] == 0){
    184e:	409c                	lw	a5,0(s1)
    1850:	0491                	addi	s1,s1,4
    1852:	efd1                	bnez	a5,18ee <ModeShutLoop+0x16e>
					while(m->shutters[m->selected]==1){
    1854:	4685                	li	a3,1
						m->selected = (m->selected + 1)%10;
    1856:	4629                	li	a2,10
					while(m->shutters[m->selected]==1){
    1858:	5c1c                	lw	a5,56(s0)
    185a:	00478713          	addi	a4,a5,4
    185e:	070a                	slli	a4,a4,0x2
    1860:	9722                	add	a4,a4,s0
    1862:	4318                	lw	a4,0(a4)
    1864:	08d70763          	beq	a4,a3,18f2 <ModeShutLoop+0x172>
			for(int x=0; x<5; x++){
    1868:	894e                	mv	s2,s3
{
    186a:	4a81                	li	s5,0
    186c:	4999                	li	s3,6
						sprintf(t, "%d", x + (y*5) + 1);
    186e:	6b09                	lui	s6,0x2
					if(m->shutters[x+y*5]==0){
    1870:	00092783          	lw	a5,0(s2)
    1874:	8a56                	mv	s4,s5
							ssd1306_drawRect(x*(shutterWidth+shutterOffset)+3, 30+(openShutterHeight-closedShutterHeight)+y*(closedShutterHeight+shutterOffset) , shutterWidth, closedShutterHeight, 1);
    1876:	ffd98493          	addi	s1,s3,-3
    187a:	0a85                	addi	s5,s5,1
					if(m->shutters[x+y*5]==0){
    187c:	c3c1                	beqz	a5,18fc <ModeShutLoop+0x17c>
							ssd1306_drawRect(x*(shutterWidth+shutterOffset)+3, 30+(openShutterHeight-closedShutterHeight)+y*(closedShutterHeight+shutterOffset) , shutterWidth, closedShutterHeight, 1);
    187e:	4659                	li	a2,22
    1880:	03500593          	li	a1,53
    1884:	8526                	mv	a0,s1
    1886:	f3cff0ef          	jal	fc2 <ssd1306_drawRect.constprop.0>
					if(m->selected == (x + y*5)){
    188a:	5c1c                	lw	a5,56(s0)
    188c:	00fa1963          	bne	s4,a5,189e <ModeShutLoop+0x11e>
						RenderBSprite(&finger, x*(shutterWidth+shutterOffset) + 6,
    1890:	02900613          	li	a2,41
    1894:	85ce                	mv	a1,s3
    1896:	c1418513          	addi	a0,gp,-1004 # 200009b4 <finger>
    189a:	c32ff0ef          	jal	ccc <RenderBSprite>
					if(m->shutters[x+y*5]==0){
    189e:	01492783          	lw	a5,20(s2)
    18a2:	c3c9                	beqz	a5,1924 <ModeShutLoop+0x1a4>
							ssd1306_drawRect(x*(shutterWidth+shutterOffset)+3, 30+(openShutterHeight-closedShutterHeight)+y*(closedShutterHeight+shutterOffset) , shutterWidth, closedShutterHeight, 1);
    18a4:	4659                	li	a2,22
    18a6:	04e00593          	li	a1,78
    18aa:	8526                	mv	a0,s1
    18ac:	f16ff0ef          	jal	fc2 <ssd1306_drawRect.constprop.0>
					if(m->selected == (x + y*5)){
    18b0:	5c18                	lw	a4,56(s0)
    18b2:	005a0793          	addi	a5,s4,5
    18b6:	00e79963          	bne	a5,a4,18c8 <ModeShutLoop+0x148>
						RenderBSprite(&finger, x*(shutterWidth+shutterOffset) + 6,
    18ba:	05900613          	li	a2,89
    18be:	85ce                	mv	a1,s3
    18c0:	c1418513          	addi	a0,gp,-1004 # 200009b4 <finger>
    18c4:	c08ff0ef          	jal	ccc <RenderBSprite>
			for(int x=0; x<5; x++){
    18c8:	4795                	li	a5,5
    18ca:	0911                	addi	s2,s2,4
    18cc:	09e5                	addi	s3,s3,25
    18ce:	fafa91e3          	bne	s5,a5,1870 <ModeShutLoop+0xf0>
			sprintf(t, "%d", m->remainingRoll);
    18d2:	4450                	lw	a2,12(s0)
    18d4:	6589                	lui	a1,0x2
    18d6:	7f858593          	addi	a1,a1,2040 # 27f8 <ModeTestLoop+0xd0>
    18da:	850a                	mv	a0,sp
    18dc:	3905                	jal	150c <sprintf>
			ssd1306_drawstr_sz(40,5,t,1,2);
    18de:	4689                	li	a3,2
    18e0:	860a                	mv	a2,sp
    18e2:	85d6                	mv	a1,s5
    18e4:	02800513          	li	a0,40
    18e8:	d72ff0ef          	jal	e5a <ssd1306_drawstr_sz.constprop.0>
			break;
    18ec:	bd7d                	j	17aa <ModeShutLoop+0x2a>
	for(int i=0; i<m->remainingRoll; i++){
    18ee:	0905                	addi	s2,s2,1
    18f0:	a8e5                	j	19e8 <ModeShutLoop+0x268>
						m->selected = (m->selected + 1)%10;
    18f2:	0785                	addi	a5,a5,1
    18f4:	02c7e7b3          	rem	a5,a5,a2
    18f8:	dc1c                	sw	a5,56(s0)
    18fa:	bfb9                	j	1858 <ModeShutLoop+0xd8>
						ssd1306_drawRect(x*(shutterWidth+shutterOffset)+3, 30+y*(openShutterHeight+shutterOffset), shutterWidth, openShutterHeight, 1);
    18fc:	8526                	mv	a0,s1
    18fe:	02d00613          	li	a2,45
    1902:	45f9                	li	a1,30
    1904:	ebeff0ef          	jal	fc2 <ssd1306_drawRect.constprop.0>
						sprintf(t, "%d", x + (y*5) + 1);
    1908:	8656                	mv	a2,s5
    190a:	7f8b0593          	addi	a1,s6,2040 # 27f8 <ModeTestLoop+0xd0>
    190e:	850a                	mv	a0,sp
    1910:	3ef5                	jal	150c <sprintf>
						ssd1306_drawstr_sz(
    1912:	4685                	li	a3,1
    1914:	860a                	mv	a2,sp
    1916:	02300593          	li	a1,35
    191a:	00598513          	addi	a0,s3,5
    191e:	d3cff0ef          	jal	e5a <ssd1306_drawstr_sz.constprop.0>
    1922:	b7a5                	j	188a <ModeShutLoop+0x10a>
						ssd1306_drawRect(x*(shutterWidth+shutterOffset)+3, 30+y*(openShutterHeight+shutterOffset), shutterWidth, openShutterHeight, 1);
    1924:	02d00613          	li	a2,45
    1928:	04e00593          	li	a1,78
    192c:	8526                	mv	a0,s1
    192e:	e94ff0ef          	jal	fc2 <ssd1306_drawRect.constprop.0>
						sprintf(t, "%d", x + (y*5) + 1);
    1932:	006a0613          	addi	a2,s4,6
    1936:	7f8b0593          	addi	a1,s6,2040
    193a:	850a                	mv	a0,sp
    193c:	3ec1                	jal	150c <sprintf>
						ssd1306_drawstr_sz(
    193e:	4791                	li	a5,4
    1940:	00598513          	addi	a0,s3,5
    1944:	00fa1463          	bne	s4,a5,194c <ModeShutLoop+0x1cc>
    1948:	06a00513          	li	a0,106
    194c:	4685                	li	a3,1
    194e:	860a                	mv	a2,sp
    1950:	05300593          	li	a1,83
    1954:	d06ff0ef          	jal	e5a <ssd1306_drawstr_sz.constprop.0>
    1958:	bfa1                	j	18b0 <ModeShutLoop+0x130>
			ssd1306_drawstr_sz(10,10,deathText1,1,1);
    195a:	45a9                	li	a1,10
    195c:	6609                	lui	a2,0x2
    195e:	852e                	mv	a0,a1
    1960:	86ca                	mv	a3,s2
    1962:	79c60613          	addi	a2,a2,1948 # 279c <ModeTestLoop+0x74>
    1966:	cf4ff0ef          	jal	e5a <ssd1306_drawstr_sz.constprop.0>
			ssd1306_drawstr_sz(10,22,deathText2,1,1);
    196a:	6609                	lui	a2,0x2
    196c:	86ca                	mv	a3,s2
    196e:	7a860613          	addi	a2,a2,1960 # 27a8 <ModeTestLoop+0x80>
    1972:	45d9                	li	a1,22
    1974:	4529                	li	a0,10
    1976:	ce4ff0ef          	jal	e5a <ssd1306_drawstr_sz.constprop.0>
			sprintf(t,"%d",m->score);
    197a:	4410                	lw	a2,8(s0)
    197c:	6589                	lui	a1,0x2
    197e:	7f858593          	addi	a1,a1,2040 # 27f8 <ModeTestLoop+0xd0>
    1982:	850a                	mv	a0,sp
    1984:	3661                	jal	150c <sprintf>
			ssd1306_drawstr_sz(20,43,t,1,3);
    1986:	468d                	li	a3,3
    1988:	860a                	mv	a2,sp
    198a:	02b00593          	li	a1,43
    198e:	4551                	li	a0,20
    1990:	ccaff0ef          	jal	e5a <ssd1306_drawstr_sz.constprop.0>
			ssd1306_drawstr_sz(10,90,deathText3,1,1);
    1994:	6609                	lui	a2,0x2
    1996:	86ca                	mv	a3,s2
    1998:	78060613          	addi	a2,a2,1920 # 2780 <ModeTestLoop+0x58>
    199c:	05a00593          	li	a1,90
    19a0:	4529                	li	a0,10
    19a2:	cb8ff0ef          	jal	e5a <ssd1306_drawstr_sz.constprop.0>
			ssd1306_drawstr_sz(10,102,deathText4,1,1);
    19a6:	6609                	lui	a2,0x2
    19a8:	86ca                	mv	a3,s2
    19aa:	78c60613          	addi	a2,a2,1932 # 278c <ModeTestLoop+0x64>
    19ae:	06600593          	li	a1,102
    19b2:	4529                	li	a0,10
			if(newClickedMask & 4){//Right
    19b4:	8891                	andi	s1,s1,4
			ssd1306_drawstr_sz(10,102,deathText4,1,1);
    19b6:	ca4ff0ef          	jal	e5a <ssd1306_drawstr_sz.constprop.0>
			if(newClickedMask & 4){//Right
    19ba:	de0488e3          	beqz	s1,17aa <ModeShutLoop+0x2a>
				memset(m->shutters, 0, sizeof(int)*10);
    19be:	02800613          	li	a2,40
    19c2:	4581                	li	a1,0
				m->gameState = 0;
    19c4:	02042e23          	sw	zero,60(s0)
				memset(m->shutters, 0, sizeof(int)*10);
    19c8:	01040513          	addi	a0,s0,16
    19cc:	3695                	jal	1530 <memset>
				m->remainingRoll = rollDice();
    19ce:	c38ff0ef          	jal	e06 <rollDice>
    19d2:	c448                	sw	a0,12(s0)
				m->selected = 0;
    19d4:	02042c23          	sw	zero,56(s0)
				m->score=0;
    19d8:	00042423          	sw	zero,8(s0)
    19dc:	b3f9                	j	17aa <ModeShutLoop+0x2a>
				if(m->remainingRoll == 0){
    19de:	4448                	lw	a0,12(s0)
    19e0:	e501                	bnez	a0,19e8 <ModeShutLoop+0x268>
					m->remainingRoll = rollDice();
    19e2:	c24ff0ef          	jal	e06 <rollDice>
    19e6:	c448                	sw	a0,12(s0)
	for(int i=0; i<m->remainingRoll; i++){
    19e8:	e6a943e3          	blt	s2,a0,184e <ModeShutLoop+0xce>
					m->gameState = 1;
    19ec:	4785                	li	a5,1
    19ee:	dc5c                	sw	a5,60(s0)
    19f0:	bda5                	j	1868 <ModeShutLoop+0xe8>

000019f2 <ModeMenuLoop>:

	int selectedEntry;
} ModeMenu;

void ModeMenuLoop( void * mode, uint32_t deltaTime, uint32_t * pressures, uint32_t clickedMask, uint32_t lastClickMask )
{
    19f2:	7135                	addi	sp,sp,-160
    19f4:	cd22                	sw	s0,152(sp)
    19f6:	843a                	mv	s0,a4
    19f8:	c94a                	sw	s2,144(sp)
    19fa:	c74e                	sw	s3,140(sp)
    19fc:	8936                	mv	s2,a3
	ModeMenu *m  = (ModeMenu*)mode;
	ssd1306_setbuf(0x00); // Clear screen

	uint32_t newClickedMask = (clickedMask & ( clickedMask ^ lastClickMask ) );
    19fe:	fff44413          	not	s0,s0
    1a02:	698d                	lui	s3,0x3
{
    1a04:	cb26                	sw	s1,148(sp)
    1a06:	c552                	sw	s4,136(sp)
    1a08:	c356                	sw	s5,132(sp)
    1a0a:	c15a                	sw	s6,128(sp)
    1a0c:	cf06                	sw	ra,156(sp)
    1a0e:	84aa                	mv	s1,a0
	uint32_t newClickedMask = (clickedMask & ( clickedMask ^ lastClickMask ) );
    1a10:	01247433          	and	s0,s0,s2
	ssd1306_setbuf(0x00); // Clear screen
    1a14:	363d                	jal	1542 <ssd1306_setbuf.constprop.0>

	int i;
	for( i = 1; i < sizeof(gameModes)/sizeof(gameModes[0]); i++ )
    1a16:	10498993          	addi	s3,s3,260 # 3104 <gameModes>
    1a1a:	4905                	li	s2,1
	{
		// Draw stuff to screen
		char st[128];
		sprintf( st, "%c%s", m->selectedEntry == i ? '>':' ', gameModes[i] );
    1a1c:	6b09                	lui	s6,0x2
		ssd1306_drawstr_sz(0, 20*(i-1), st, 1, 2 );
    1a1e:	4ad1                	li	s5,20
	for( i = 1; i < sizeof(gameModes)/sizeof(gameModes[0]); i++ )
    1a20:	4a15                	li	s4,5
		sprintf( st, "%c%s", m->selectedEntry == i ? '>':' ', gameModes[i] );
    1a22:	449c                	lw	a5,8(s1)
    1a24:	02000613          	li	a2,32
    1a28:	01279463          	bne	a5,s2,1a30 <ModeMenuLoop+0x3e>
    1a2c:	03e00613          	li	a2,62
    1a30:	0049a683          	lw	a3,4(s3)
    1a34:	7b4b0593          	addi	a1,s6,1972 # 27b4 <ModeTestLoop+0x8c>
    1a38:	850a                	mv	a0,sp
    1a3a:	3cc9                	jal	150c <sprintf>
		ssd1306_drawstr_sz(0, 20*(i-1), st, 1, 2 );
    1a3c:	035905b3          	mul	a1,s2,s5
    1a40:	4689                	li	a3,2
    1a42:	860a                	mv	a2,sp
    1a44:	4501                	li	a0,0
	for( i = 1; i < sizeof(gameModes)/sizeof(gameModes[0]); i++ )
    1a46:	0905                	addi	s2,s2,1
    1a48:	0991                	addi	s3,s3,4
		ssd1306_drawstr_sz(0, 20*(i-1), st, 1, 2 );
    1a4a:	15b1                	addi	a1,a1,-20
    1a4c:	c0eff0ef          	jal	e5a <ssd1306_drawstr_sz.constprop.0>
	for( i = 1; i < sizeof(gameModes)/sizeof(gameModes[0]); i++ )
    1a50:	fd4919e3          	bne	s2,s4,1a22 <ModeMenuLoop+0x30>
	}

	int ent = m->selectedEntry;
	if( newClickedMask & 1 )
    1a54:	00147713          	andi	a4,s0,1
	int ent = m->selectedEntry;
    1a58:	449c                	lw	a5,8(s1)
	if( newClickedMask & 1 )
    1a5a:	c709                	beqz	a4,1a64 <ModeMenuLoop+0x72>
	{
		ent--;
    1a5c:	17fd                	addi	a5,a5,-1
		if( ent < 1 ) ent = 1;
    1a5e:	00f04363          	bgtz	a5,1a64 <ModeMenuLoop+0x72>
    1a62:	4785                	li	a5,1
	}
	if( newClickedMask & 4 )
    1a64:	00447713          	andi	a4,s0,4
    1a68:	c711                	beqz	a4,1a74 <ModeMenuLoop+0x82>
	{
		ent++;
    1a6a:	0785                	addi	a5,a5,1
		if( ent >= sizeof(gameModes)/sizeof(gameModes[0]) ) ent = sizeof(gameModes)/sizeof(gameModes[0])-1;
    1a6c:	4711                	li	a4,4
    1a6e:	00f77363          	bgeu	a4,a5,1a74 <ModeMenuLoop+0x82>
    1a72:	87ba                	mv	a5,a4
	}
	m->selectedEntry = ent;
    1a74:	c49c                	sw	a5,8(s1)

	if( newClickedMask & 2 )
    1a76:	8809                	andi	s0,s0,2
    1a78:	c415                	beqz	s0,1aa4 <ModeMenuLoop+0xb2>
} gameUnion;

// Add it to this list.
void SelectMode( int modeNumber )
{
	switch(modeNumber)
    1a7a:	470d                	li	a4,3
    1a7c:	6c418413          	addi	s0,gp,1732 # 20001464 <gameUnion>
    1a80:	12e78363          	beq	a5,a4,1ba6 <ModeMenuLoop+0x1b4>
    1a84:	02f74b63          	blt	a4,a5,1aba <ModeMenuLoop+0xc8>
    1a88:	4705                	li	a4,1
    1a8a:	06e78763          	beq	a5,a4,1af8 <ModeMenuLoop+0x106>
    1a8e:	4709                	li	a4,2
    1a90:	08e78363          	beq	a5,a4,1b16 <ModeMenuLoop+0x124>
	ssd1306_refresh();
}

void EnterMenuMode( ModeMenu * m )
{
	memset( m, 0, sizeof( *m ) );
    1a94:	6c01a423          	sw	zero,1736(gp) # 20001468 <gameUnion+0x4>
	m->Update = ModeMenuLoop;
    1a98:	6789                	lui	a5,0x2
    1a9a:	9f278793          	addi	a5,a5,-1550 # 19f2 <ModeMenuLoop>
    1a9e:	c01c                	sw	a5,0(s0)
	m->selectedEntry = 1;
    1aa0:	4785                	li	a5,1
    1aa2:	c41c                	sw	a5,8(s0)
}
    1aa4:	446a                	lw	s0,152(sp)
    1aa6:	40fa                	lw	ra,156(sp)
    1aa8:	44da                	lw	s1,148(sp)
    1aaa:	494a                	lw	s2,144(sp)
    1aac:	49ba                	lw	s3,140(sp)
    1aae:	4a2a                	lw	s4,136(sp)
    1ab0:	4a9a                	lw	s5,132(sp)
    1ab2:	4b0a                	lw	s6,128(sp)
    1ab4:	610d                	addi	sp,sp,160
	ssd1306_refresh();
    1ab6:	ec6ff06f          	j	117c <ssd1306_refresh>
    1aba:	4711                	li	a4,4
    1abc:	fce79ce3          	bne	a5,a4,1a94 <ModeMenuLoop+0xa2>


void EnterShutMode( ModeShut * m )
{
	memset( m, 0, sizeof(*m) );
    1ac0:	03800613          	li	a2,56
    1ac4:	4581                	li	a1,0
    1ac6:	6cc18513          	addi	a0,gp,1740 # 2000146c <gameUnion+0x8>
    1aca:	349d                	jal	1530 <memset>
	m->Update = ModeShutLoop;
    1acc:	6785                	lui	a5,0x1
    1ace:	78078793          	addi	a5,a5,1920 # 1780 <ModeShutLoop>
    1ad2:	c01c                	sw	a5,0(s0)
	m->WirelessRX = ModeShutWirelessRX;
    1ad4:	6785                	lui	a5,0x1
    1ad6:	e2878793          	addi	a5,a5,-472 # e28 <ModeShutWirelessRX>
    1ada:	c05c                	sw	a5,4(s0)
	seed(frameentropy);
    1adc:	6b01a703          	lw	a4,1712(gp) # 20001450 <frameentropy>

	memset(m->shutters, 0, sizeof(int)*10);
    1ae0:	02800613          	li	a2,40
    1ae4:	4581                	li	a1,0
    1ae6:	6d418513          	addi	a0,gp,1748 # 20001474 <gameUnion+0x10>
	_rand_lfsr = seed_val;
    1aea:	c0e1a423          	sw	a4,-1016(gp) # 200009a8 <_rand_lfsr>
    1aee:	3489                	jal	1530 <memset>
	m->gameState = 0;
	m->score = 0;
	m->selected = 0;
	m->remainingRoll = rollDice();
    1af0:	b16ff0ef          	jal	e06 <rollDice>
    1af4:	c448                	sw	a0,12(s0)
}
    1af6:	b77d                	j	1aa4 <ModeMenuLoop+0xb2>
}


void EnterExampleMode( ModeExample * m )
{
	memset( m, 0, sizeof(*m) );
    1af8:	6cc18793          	addi	a5,gp,1740 # 2000146c <gameUnion+0x8>
    1afc:	0007a023          	sw	zero,0(a5)
    1b00:	0007a223          	sw	zero,4(a5)
	m->Update = ModeExampleLoop;
    1b04:	6789                	lui	a5,0x2
    1b06:	e1278793          	addi	a5,a5,-494 # 1e12 <ModeExampleLoop>
    1b0a:	c01c                	sw	a5,0(s0)
	m->WirelessRX = ModeExampleWirelessRX;
    1b0c:	6789                	lui	a5,0x2
    1b0e:	cb678793          	addi	a5,a5,-842 # 1cb6 <ModeExampleWirelessRX>
    1b12:	c05c                	sw	a5,4(s0)
	m->frameNumber = 0;
}
    1b14:	bf41                	j	1aa4 <ModeMenuLoop+0xb2>


void EnterTestMode( ModeTest * m )
{
	memset( m, 0, sizeof(*m) );
	m->Update = ModeTestLoop;
    1b16:	6789                	lui	a5,0x2
    1b18:	72878793          	addi	a5,a5,1832 # 2728 <ModeTestLoop>
    1b1c:	c01c                	sw	a5,0(s0)
	m->WirelessRX = ModeTestWirelessRX;
    1b1e:	6789                	lui	a5,0x2
    1b20:	c5478793          	addi	a5,a5,-940 # 1c54 <ModeTestWirelessRX>
    1b24:	c05c                	sw	a5,4(s0)
	for( i = 0; i < 128; i++ )
    1b26:	08000493          	li	s1,128
	ssd1306_setbuf(0x00); // Clear screen
    1b2a:	a19ff0ef          	jal	1542 <ssd1306_setbuf.constprop.0>
	for( i = 0; i < 128; i++ )
    1b2e:	4401                	li	s0,0
		ssd1306_drawPixel(i, i, 1);
    1b30:	85a2                	mv	a1,s0
    1b32:	8522                	mv	a0,s0
    1b34:	4605                	li	a2,1
	for( i = 0; i < 128; i++ )
    1b36:	0405                	addi	s0,s0,1
		ssd1306_drawPixel(i, i, 1);
    1b38:	86aff0ef          	jal	ba2 <ssd1306_drawPixel>
	for( i = 0; i < 128; i++ )
    1b3c:	fe941ae3          	bne	s0,s1,1b30 <ModeMenuLoop+0x13e>
	ssd1306_refresh();
    1b40:	e3cff0ef          	jal	117c <ssd1306_refresh>
	ssd1306_cmd(0xa8);
    1b44:	0a800513          	li	a0,168
    1b48:	e1cff0ef          	jal	1164 <ssd1306_cmd.isra.0>
	ssd1306_cmd(0x0 );
    1b4c:	4501                	li	a0,0
    1b4e:	e16ff0ef          	jal	1164 <ssd1306_cmd.isra.0>
	ssd1306_cmd(0xD5);
    1b52:	0d500513          	li	a0,213
    1b56:	e0eff0ef          	jal	1164 <ssd1306_cmd.isra.0>
	ssd1306_cmd(0xf0);
    1b5a:	0f000513          	li	a0,240
    1b5e:	e06ff0ef          	jal	1164 <ssd1306_cmd.isra.0>
	ssd1306_cmd(0xc8);
    1b62:	0c800513          	li	a0,200
    1b66:	dfeff0ef          	jal	1164 <ssd1306_cmd.isra.0>
	ssd1306_cmd(0xa1);
    1b6a:	0a100513          	li	a0,161
    1b6e:	df6ff0ef          	jal	1164 <ssd1306_cmd.isra.0>
	ssd1306_cmd(0xD9);
    1b72:	0d900513          	li	a0,217
    1b76:	deeff0ef          	jal	1164 <ssd1306_cmd.isra.0>
	ssd1306_cmd(0x11);
    1b7a:	4545                	li	a0,17
    1b7c:	de8ff0ef          	jal	1164 <ssd1306_cmd.isra.0>
	R8_SPI0_CLOCK_DIV = 3; 
    1b80:	40004737          	lui	a4,0x40004
    1b84:	468d                	li	a3,3
    1b86:	00d701a3          	sb	a3,3(a4) # 40004003 <_eusrstack+0x20001003>
	R8_SPI0_CTRL_MOD &= ~RB_SPI_FIFO_DIR;
    1b8a:	00074783          	lbu	a5,0(a4)
    1b8e:	0ef7f793          	andi	a5,a5,239
    1b92:	00f70023          	sb	a5,0(a4)
	R8_SPI0_CTRL_CFG |= RB_SPI_AUTO_IF | RB_SPI_DMA_ENABLE;
    1b96:	87ba                	mv	a5,a4
    1b98:	00174703          	lbu	a4,1(a4)
    1b9c:	01176713          	ori	a4,a4,17
    1ba0:	00e780a3          	sb	a4,1(a5)
}
    1ba4:	b701                	j	1aa4 <ModeMenuLoop+0xb2>


void EnterPufferMode( ModePuffer * m )
{
	memset( m, 0, sizeof(*m) );
    1ba6:	6cc18793          	addi	a5,gp,1740 # 2000146c <gameUnion+0x8>
    1baa:	0007a023          	sw	zero,0(a5)
    1bae:	0007a223          	sw	zero,4(a5)
    1bb2:	0007a423          	sw	zero,8(a5)
    1bb6:	0007a623          	sw	zero,12(a5)
	m->Update = ModePufferLoop;
    1bba:	6785                	lui	a5,0x1
    1bbc:	55478793          	addi	a5,a5,1364 # 1554 <ModePufferLoop>
    1bc0:	c01c                	sw	a5,0(s0)
	m->WirelessRX = ModePufferWirelessRX;
    1bc2:	6785                	lui	a5,0x1
    1bc4:	de078793          	addi	a5,a5,-544 # de0 <ModePufferWirelessRX>
    1bc8:	c05c                	sw	a5,4(s0)
    m->curPoke = 0;
	m->spriteTime = 0;
	m->frameNum = 0;
	m->displayAdd = 0;

	seed(frameentropy);
    1bca:	6b01a703          	lw	a4,1712(gp) # 20001450 <frameentropy>
    1bce:	c0e1a423          	sw	a4,-1016(gp) # 200009a8 <_rand_lfsr>
}
    1bd2:	bdc9                	j	1aa4 <ModeMenuLoop+0xb2>

00001bd4 <memcpy>:
	for (; n; n--) *d++ = *s++;
    1bd4:	4781                	li	a5,0
    1bd6:	00f61363          	bne	a2,a5,1bdc <memcpy+0x8>
}
    1bda:	8082                	ret
	for (; n; n--) *d++ = *s++;
    1bdc:	00f58733          	add	a4,a1,a5
    1be0:	00074683          	lbu	a3,0(a4)
    1be4:	00f50733          	add	a4,a0,a5
    1be8:	0785                	addi	a5,a5,1
    1bea:	00d70023          	sb	a3,0(a4)
    1bee:	b7e5                	j	1bd6 <memcpy+0x2>

00001bf0 <putchar>:
	if( ( *DMDATA0 & 0xc0 ) == 0xc0 ) return 0;
    1bf0:	e00007b7          	lui	a5,0xe0000
    1bf4:	34078793          	addi	a5,a5,832 # e0000340 <_eusrstack+0xbfffd340>
    1bf8:	4398                	lw	a4,0(a5)
    1bfa:	0c000693          	li	a3,192
    1bfe:	0c077713          	andi	a4,a4,192
    1c02:	04d70763          	beq	a4,a3,1c50 <putchar+0x60>
{
    1c06:	1141                	addi	sp,sp,-16
    1c08:	00100737          	lui	a4,0x100
    1c0c:	c422                	sw	s0,8(sp)
    1c0e:	c606                	sw	ra,12(sp)
    1c10:	842a                	mv	s0,a0
    1c12:	0705                	addi	a4,a4,1 # 100001 <firmware.c.3f3d58ee+0xfba19>
	while( ( lastdmd = (*DMDATA0) ) & 0x80 )
    1c14:	4394                	lw	a3,0(a5)
    1c16:	0806f613          	andi	a2,a3,128
    1c1a:	e205                	bnez	a2,1c3a <putchar+0x4a>
	if( lastdmd ) internal_handle_input( (uint32_t*)DMDATA0 );
    1c1c:	c299                	beqz	a3,1c22 <putchar+0x32>
    1c1e:	bdaff0ef          	jal	ff8 <internal_handle_input.constprop.0>
	*DMDATA0 = 0x85 | ((const char)c<<8);
    1c22:	00841793          	slli	a5,s0,0x8
    1c26:	07c2                	slli	a5,a5,0x10
    1c28:	83c1                	srli	a5,a5,0x10
    1c2a:	0857e793          	ori	a5,a5,133
    1c2e:	e0000737          	lui	a4,0xe0000
    1c32:	34f72023          	sw	a5,832(a4) # e0000340 <_eusrstack+0xbfffd340>
    1c36:	4505                	li	a0,1
    1c38:	a801                	j	1c48 <putchar+0x58>
		if( timeout-- == 0 )
    1c3a:	177d                	addi	a4,a4,-1
    1c3c:	ff61                	bnez	a4,1c14 <putchar+0x24>
			*DMDATA0 |= 0xc0;
    1c3e:	4398                	lw	a4,0(a5)
	if( ( *DMDATA0 & 0xc0 ) == 0xc0 ) return 0;
    1c40:	4501                	li	a0,0
			*DMDATA0 |= 0xc0;
    1c42:	0c076713          	ori	a4,a4,192
    1c46:	c398                	sw	a4,0(a5)
}
    1c48:	40b2                	lw	ra,12(sp)
    1c4a:	4422                	lw	s0,8(sp)
    1c4c:	0141                	addi	sp,sp,16
    1c4e:	8082                	ret
	if( ( *DMDATA0 & 0xc0 ) == 0xc0 ) return 0;
    1c50:	4501                	li	a0,0
}
    1c52:	8082                	ret

00001c54 <ModeTestWirelessRX>:
{
    1c54:	7179                	addi	sp,sp,-48
    1c56:	d422                	sw	s0,40(sp)
    1c58:	d226                	sw	s1,36(sp)
    1c5a:	d04a                	sw	s2,32(sp)
    1c5c:	ce4e                	sw	s3,28(sp)
    1c5e:	d606                	sw	ra,44(sp)
	printf( "%02x:%02x:%02x:%02x:%02x:%02x:%3d %d:", txmac[0], txmac[1], txmac[2], txmac[3], txmac[4], txmac[5], rssi, messageLength );
    1c60:	c032                	sw	a2,0(sp)
    1c62:	00554803          	lbu	a6,5(a0)
    1c66:	00454783          	lbu	a5,4(a0)
    1c6a:	00354703          	lbu	a4,3(a0)
    1c6e:	88b6                	mv	a7,a3
{
    1c70:	892e                	mv	s2,a1
	printf( "%02x:%02x:%02x:%02x:%02x:%02x:%3d %d:", txmac[0], txmac[1], txmac[2], txmac[3], txmac[4], txmac[5], rssi, messageLength );
    1c72:	00254683          	lbu	a3,2(a0)
    1c76:	00054583          	lbu	a1,0(a0)
{
    1c7a:	8432                	mv	s0,a2
	printf( "%02x:%02x:%02x:%02x:%02x:%02x:%3d %d:", txmac[0], txmac[1], txmac[2], txmac[3], txmac[4], txmac[5], rssi, messageLength );
    1c7c:	00154603          	lbu	a2,1(a0)
    1c80:	6509                	lui	a0,0x2
    1c82:	7bc50513          	addi	a0,a0,1980 # 27bc <ModeTestLoop+0x94>
    1c86:	825ff0ef          	jal	14aa <printf>
	for( i = 0; i < messageLength; i++ )
    1c8a:	4481                	li	s1,0
		printf( "%02x ", message[i] );
    1c8c:	6989                	lui	s3,0x2
	for( i = 0; i < messageLength; i++ )
    1c8e:	0084ca63          	blt	s1,s0,1ca2 <ModeTestWirelessRX+0x4e>
}
    1c92:	5422                	lw	s0,40(sp)
    1c94:	50b2                	lw	ra,44(sp)
    1c96:	5492                	lw	s1,36(sp)
    1c98:	5902                	lw	s2,32(sp)
    1c9a:	49f2                	lw	s3,28(sp)
	printf( "\n" );
    1c9c:	4529                	li	a0,10
}
    1c9e:	6145                	addi	sp,sp,48
	printf( "\n" );
    1ca0:	bf81                	j	1bf0 <putchar>
		printf( "%02x ", message[i] );
    1ca2:	009907b3          	add	a5,s2,s1
    1ca6:	0007c583          	lbu	a1,0(a5)
    1caa:	7e498513          	addi	a0,s3,2020 # 27e4 <ModeTestLoop+0xbc>
	for( i = 0; i < messageLength; i++ )
    1cae:	0485                	addi	s1,s1,1
		printf( "%02x ", message[i] );
    1cb0:	ffaff0ef          	jal	14aa <printf>
	for( i = 0; i < messageLength; i++ )
    1cb4:	bfe9                	j	1c8e <ModeTestWirelessRX+0x3a>

00001cb6 <ModeExampleWirelessRX>:
void ModeExampleWirelessRX( uint8_t * txmac, uint8_t * message, int messageLength, int rssi )
    1cb6:	bf79                	j	1c54 <ModeTestWirelessRX>

00001cb8 <SystemInit>:
	}
	else
	{
		if((sc & RB_CLK_SYS_MOD) == 0x40) // PLL div
		{
			SYS_SAFE_ACCESS(
    1cb8:	400017b7          	lui	a5,0x40001
    1cbc:	04078793          	addi	a5,a5,64 # 40001040 <_eusrstack+0x1fffe040>
    1cc0:	05700593          	li	a1,87
    1cc4:	00b78023          	sb	a1,0(a5)
    1cc8:	fa800613          	li	a2,-88
    1ccc:	00c78023          	sb	a2,0(a5)
    1cd0:	0001                	nop
    1cd2:	0001                	nop
    1cd4:	40001737          	lui	a4,0x40001
    1cd8:	00a74683          	lbu	a3,10(a4) # 4000100a <_eusrstack+0x1fffe00a>
    1cdc:	0106e693          	ori	a3,a3,16
    1ce0:	00d70523          	sb	a3,10(a4)
    1ce4:	40002737          	lui	a4,0x40002
    1ce8:	4685                	li	a3,1
    1cea:	80d703a3          	sb	a3,-2041(a4) # 40001807 <_eusrstack+0x1fffe807>
    1cee:	80574683          	lbu	a3,-2043(a4)
    1cf2:	0106e693          	ori	a3,a3,16
    1cf6:	80d702a3          	sb	a3,-2043(a4)
    1cfa:	00078023          	sb	zero,0(a5)
    1cfe:	0001                	nop
    1d00:	0001                	nop
		{
			SYS_SAFE_ACCESS(
				R8_FLASH_CFG = (sc & 0x1F) ? 0x02 : 0x07;
			);
		}
		SYS_SAFE_ACCESS(
    1d02:	00b78023          	sb	a1,0(a5)
    1d06:	00c78023          	sb	a2,0(a5)
    1d0a:	0001                	nop
    1d0c:	0001                	nop
    1d0e:	40001737          	lui	a4,0x40001
    1d12:	04a00693          	li	a3,74
    1d16:	00d70423          	sb	a3,8(a4) # 40001008 <_eusrstack+0x1fffe008>
    1d1a:	00078023          	sb	zero,0(a5)
    1d1e:	0001                	nop
    1d20:	0001                	nop
	*DMDATA1 = 0x00;
    1d22:	e00007b7          	lui	a5,0xe0000
    1d26:	3407a223          	sw	zero,836(a5) # e0000344 <_eusrstack+0xbfffd344>
	*DMDATA0 = 0x80;
    1d2a:	08000713          	li	a4,128
    1d2e:	34e7a023          	sw	a4,832(a5)
	SetupDebugPrintf();
#endif
#if defined(FUNCONF_SUPPORT_CONSTRUCTORS) && FUNCONF_SUPPORT_CONSTRUCTORS
	CallConstructors();
#endif
}
    1d32:	8082                	ret

00001d34 <ISLER_BEANBOY_INTERNAL_CALLBACK>:
{
    1d34:	1141                	addi	sp,sp,-16
    1d36:	c606                	sw	ra,12(sp)
    1d38:	c422                	sw	s0,8(sp)
	if( !iSLERCRCOK() ) return;
    1d3a:	1fffe097          	auipc	ra,0x1fffe
    1d3e:	2fa080e7          	jalr	762(ra) # 20000034 <iSLERCRCOK>
    1d42:	cd05                	beqz	a0,1d7a <ISLER_BEANBOY_INTERNAL_CALLBACK+0x46>



void ISLERCallback( uint8_t * txmac, uint8_t * message, int messageLength, int rssi )
{
	if( gameUnion.template.WirelessRX )
    1d44:	6c418793          	addi	a5,gp,1732 # 20001464 <gameUnion>
    1d48:	43c0                	lw	s0,4(a5)
    1d4a:	c805                	beqz	s0,1d7a <ISLER_BEANBOY_INTERNAL_CALLBACK+0x46>
	int rssi = ReadRSSI();
    1d4c:	1fffe097          	auipc	ra,0x1fffe
    1d50:	2d0080e7          	jalr	720(ra) # 2000001c <iSLERRSSI>
	int len = frame[0];
    1d54:	200017b7          	lui	a5,0x20001
    1d58:	4a47c603          	lbu	a2,1188(a5) # 200014a4 <LLE_BUF>
		gameUnion.template.WirelessRX( txmac, message, messageLength, rssi );
    1d5c:	87a2                	mv	a5,s0
}
    1d5e:	4422                	lw	s0,8(sp)
    1d60:	40b2                	lw	ra,12(sp)
	int rssi = ReadRSSI();
    1d62:	86aa                	mv	a3,a0
    1d64:	200015b7          	lui	a1,0x20001
    1d68:	20001537          	lui	a0,0x20001
    1d6c:	0611                	addi	a2,a2,4
    1d6e:	4ae58593          	addi	a1,a1,1198 # 200014ae <LLE_BUF+0xa>
    1d72:	4a650513          	addi	a0,a0,1190 # 200014a6 <LLE_BUF+0x2>
}
    1d76:	0141                	addi	sp,sp,16
    1d78:	8782                	jr	a5
    1d7a:	40b2                	lw	ra,12(sp)
    1d7c:	4422                	lw	s0,8(sp)
    1d7e:	0141                	addi	sp,sp,16
    1d80:	8082                	ret

00001d82 <LLE_IRQHandler>:
void LLE_IRQHandler() {
    1d82:	715d                	addi	sp,sp,-80
    1d84:	de22                	sw	s0,60(sp)
		rx_flag = LL->STATUS & 1;
    1d86:	4000c437          	lui	s0,0x4000c
    1d8a:	20040413          	addi	s0,s0,512 # 4000c200 <_eusrstack+0x20009200>
void LLE_IRQHandler() {
    1d8e:	dc26                	sw	s1,56(sp)
    1d90:	d23a                	sw	a4,36(sp)
		rx_flag = LL->STATUS & 1;
    1d92:	4404                	lw	s1,8(s0)
void LLE_IRQHandler() {
    1d94:	d03e                	sw	a5,32(sp)
		LL->STATUS &= LL->INT_EN;
    1d96:	4458                	lw	a4,12(s0)
    1d98:	441c                	lw	a5,8(s0)
void LLE_IRQHandler() {
    1d9a:	da2a                	sw	a0,52(sp)
    1d9c:	c686                	sw	ra,76(sp)
    1d9e:	c496                	sw	t0,72(sp)
    1da0:	c29a                	sw	t1,68(sp)
    1da2:	c09e                	sw	t2,64(sp)
    1da4:	d82e                	sw	a1,48(sp)
    1da6:	d632                	sw	a2,44(sp)
    1da8:	d436                	sw	a3,40(sp)
    1daa:	ce42                	sw	a6,28(sp)
    1dac:	cc46                	sw	a7,24(sp)
    1dae:	ca72                	sw	t3,20(sp)
    1db0:	c876                	sw	t4,16(sp)
    1db2:	c67a                	sw	t5,12(sp)
    1db4:	c47e                	sw	t6,8(sp)
		LL->STATUS &= LL->INT_EN;
    1db6:	8ff9                	and	a5,a5,a4
		BB->CTRL_TX = (BB->CTRL_TX & 0xfffffffc) | 1;
    1db8:	4000c737          	lui	a4,0x4000c
		LL->STATUS &= LL->INT_EN;
    1dbc:	c41c                	sw	a5,8(s0)
		BB->CTRL_TX = (BB->CTRL_TX & 0xfffffffc) | 1;
    1dbe:	10070713          	addi	a4,a4,256 # 4000c100 <_eusrstack+0x20009100>
    1dc2:	5b5c                	lw	a5,52(a4)
	DevSetMode(0);
    1dc4:	4501                	li	a0,0
	if( rx_flag )
    1dc6:	8885                	andi	s1,s1,1
		BB->CTRL_TX = (BB->CTRL_TX & 0xfffffffc) | 1;
    1dc8:	9bf1                	andi	a5,a5,-4
    1dca:	0017e793          	ori	a5,a5,1
    1dce:	db5c                	sw	a5,52(a4)
	DevSetMode(0);
    1dd0:	e0ffe0ef          	jal	bde <DevSetMode>
	LL->CTRL_MOD &= CTRL_MOD_RFSTOP;
    1dd4:	483c                	lw	a5,80(s0)
    1dd6:	8ff7f793          	andi	a5,a5,-1793
    1dda:	c83c                	sw	a5,80(s0)
	LL->LL0 |= 0x08;
    1ddc:	401c                	lw	a5,0(s0)
    1dde:	0087e793          	ori	a5,a5,8
    1de2:	c01c                	sw	a5,0(s0)
	if( rx_flag )
    1de4:	c091                	beqz	s1,1de8 <LLE_IRQHandler+0x66>
		ISLER_CALLBACK();
    1de6:	37b9                	jal	1d34 <ISLER_BEANBOY_INTERNAL_CALLBACK>
}
    1de8:	5472                	lw	s0,60(sp)
    1dea:	40b6                	lw	ra,76(sp)
    1dec:	42a6                	lw	t0,72(sp)
    1dee:	4316                	lw	t1,68(sp)
    1df0:	4386                	lw	t2,64(sp)
    1df2:	54e2                	lw	s1,56(sp)
    1df4:	5552                	lw	a0,52(sp)
    1df6:	55c2                	lw	a1,48(sp)
    1df8:	5632                	lw	a2,44(sp)
    1dfa:	56a2                	lw	a3,40(sp)
    1dfc:	5712                	lw	a4,36(sp)
    1dfe:	5782                	lw	a5,32(sp)
    1e00:	4872                	lw	a6,28(sp)
    1e02:	48e2                	lw	a7,24(sp)
    1e04:	4e52                	lw	t3,20(sp)
    1e06:	4ec2                	lw	t4,16(sp)
    1e08:	4f32                	lw	t5,12(sp)
    1e0a:	4fa2                	lw	t6,8(sp)
    1e0c:	6161                	addi	sp,sp,80
    1e0e:	30200073          	mret

00001e12 <ModeExampleLoop>:
{
    1e12:	7155                	addi	sp,sp,-208
    1e14:	c786                	sw	ra,204(sp)
    1e16:	c1ca                	sw	s2,192(sp)
    1e18:	df4e                	sw	s3,188(sp)
    1e1a:	8932                	mv	s2,a2
    1e1c:	89aa                	mv	s3,a0
    1e1e:	dd52                	sw	s4,184(sp)
    1e20:	db56                	sw	s5,180(sp)
    1e22:	d75e                	sw	s7,172(sp)
    1e24:	d366                	sw	s9,164(sp)
    1e26:	d16a                	sw	s10,160(sp)
    1e28:	8a2e                	mv	s4,a1
    1e2a:	c5a2                	sw	s0,200(sp)
    1e2c:	c3a6                	sw	s1,196(sp)
    1e2e:	d95a                	sw	s6,176(sp)
    1e30:	d562                	sw	s8,168(sp)
	ssd1306_setbuf(0x00); // Clear screen
    1e32:	f10ff0ef          	jal	1542 <ssd1306_setbuf.constprop.0>
	sprintf( st, "%08x", (int)SysTick->CNT );
    1e36:	e000f7b7          	lui	a5,0xe000f
    1e3a:	4790                	lw	a2,8(a5)
    1e3c:	6589                	lui	a1,0x2
    1e3e:	7ec58593          	addi	a1,a1,2028 # 27ec <ModeTestLoop+0xc4>
    1e42:	1008                	addi	a0,sp,32
    1e44:	ec8ff0ef          	jal	150c <sprintf>
	ssd1306_drawstr_sz(0, 0, st, 1, 2 );
    1e48:	4689                	li	a3,2
    1e4a:	1010                	addi	a2,sp,32
    1e4c:	4581                	li	a1,0
    1e4e:	4501                	li	a0,0
    1e50:	80aff0ef          	jal	e5a <ssd1306_drawstr_sz.constprop.0>
	sprintf( st, "%3d %d", (int)m->frameNumber, (int)pressures[3] );
    1e54:	00c92683          	lw	a3,12(s2)
    1e58:	0089a603          	lw	a2,8(s3)
    1e5c:	6589                	lui	a1,0x2
    1e5e:	7f458593          	addi	a1,a1,2036 # 27f4 <ModeTestLoop+0xcc>
    1e62:	1008                	addi	a0,sp,32
    1e64:	ea8ff0ef          	jal	150c <sprintf>
	ssd1306_drawstr_sz(0, 24, st, 1, 2 );
    1e68:	4689                	li	a3,2
    1e6a:	1010                	addi	a2,sp,32
    1e6c:	45e1                	li	a1,24
    1e6e:	4501                	li	a0,0
    1e70:	febfe0ef          	jal	e5a <ssd1306_drawstr_sz.constprop.0>
    1e74:	02000b93          	li	s7,32
    int err = 2 - 2 * radius;
    1e78:	4c85                	li	s9,1
        ssd1306_drawPixel(x + x_pos, y - y_pos, color);
    1e7a:	05a00a93          	li	s5,90
	for( btn = 0; btn < 3; btn++ )
    1e7e:	08000d13          	li	s10,128
		int p = pressures[btn]>>9;
    1e82:	00092403          	lw	s0,0(s2)
    int y_pos = 0;
    1e86:	4b01                	li	s6,0
    1e88:	8025                	srli	s0,s0,0x9
    int x_pos = -radius;
    1e8a:	408004b3          	neg	s1,s0
    int err = 2 - 2 * radius;
    1e8e:	408c8433          	sub	s0,s9,s0
    1e92:	0406                	slli	s0,s0,0x1
        ssd1306_drawPixel(x - x_pos, y + y_pos, color);
    1e94:	409b8c33          	sub	s8,s7,s1
    1e98:	05ab0593          	addi	a1,s6,90
    1e9c:	4605                	li	a2,1
    1e9e:	8562                	mv	a0,s8
    1ea0:	c42e                	sw	a1,8(sp)
    1ea2:	d01fe0ef          	jal	ba2 <ssd1306_drawPixel>
        ssd1306_drawPixel(x + x_pos, y + y_pos, color);
    1ea6:	45a2                	lw	a1,8(sp)
    1ea8:	009b8533          	add	a0,s7,s1
    1eac:	4605                	li	a2,1
    1eae:	c62a                	sw	a0,12(sp)
    1eb0:	cf3fe0ef          	jal	ba2 <ssd1306_drawPixel>
        ssd1306_drawPixel(x + x_pos, y - y_pos, color);
    1eb4:	4532                	lw	a0,12(sp)
    1eb6:	416a85b3          	sub	a1,s5,s6
    1eba:	4605                	li	a2,1
    1ebc:	c42e                	sw	a1,8(sp)
    1ebe:	ce5fe0ef          	jal	ba2 <ssd1306_drawPixel>
        ssd1306_drawPixel(x - x_pos, y - y_pos, color);
    1ec2:	45a2                	lw	a1,8(sp)
    1ec4:	4605                	li	a2,1
    1ec6:	8562                	mv	a0,s8
    1ec8:	cdbfe0ef          	jal	ba2 <ssd1306_drawPixel>
        if (e2 <= y_pos) {
    1ecc:	028b4963          	blt	s6,s0,1efe <ModeExampleLoop+0xec>
            err += ++y_pos * 2 + 1;
    1ed0:	0b05                	addi	s6,s6,1
    1ed2:	001b1793          	slli	a5,s6,0x1
    1ed6:	0785                	addi	a5,a5,1 # e000f001 <_eusrstack+0xc000c001>
            if(-x_pos == y_pos && e2 <= x_pos) {
    1ed8:	40900733          	neg	a4,s1
            err += ++y_pos * 2 + 1;
    1edc:	97a2                	add	a5,a5,s0
            if(-x_pos == y_pos && e2 <= x_pos) {
    1ede:	00eb1563          	bne	s6,a4,1ee8 <ModeExampleLoop+0xd6>
    1ee2:	0084c563          	blt	s1,s0,1eec <ModeExampleLoop+0xda>
              e2 = 0;
    1ee6:	4401                	li	s0,0
        if (e2 > x_pos) {
    1ee8:	0084d963          	bge	s1,s0,1efa <ModeExampleLoop+0xe8>
            err += ++x_pos * 2 + 1;
    1eec:	0485                	addi	s1,s1,1
    1eee:	00149713          	slli	a4,s1,0x1
    1ef2:	0705                	addi	a4,a4,1
    1ef4:	97ba                	add	a5,a5,a4
    } while (x_pos <= 0);
    1ef6:	01948663          	beq	s1,s9,1f02 <ModeExampleLoop+0xf0>
    int y_pos = 0;
    1efa:	843e                	mv	s0,a5
    1efc:	bf61                	j	1e94 <ModeExampleLoop+0x82>
    1efe:	87a2                	mv	a5,s0
    1f00:	b7e5                	j	1ee8 <ModeExampleLoop+0xd6>
	for( btn = 0; btn < 3; btn++ )
    1f02:	020b8b93          	addi	s7,s7,32
    1f06:	0911                	addi	s2,s2,4
    1f08:	f7ab9de3          	bne	s7,s10,1e82 <ModeExampleLoop+0x70>
	for( i = 0; i < 10; i++ )
    1f0c:	4401                	li	s0,0
		int x = (rand() % (128+80))-40;
    1f0e:	0d000493          	li	s1,208
	for( i = 0; i < 10; i++ )
    1f12:	4929                	li	s2,10
	rand_out = _rand_gen_32b();
    1f14:	e91fe0ef          	jal	da4 <_rand_gen_32b>
		int x = (rand() % (128+80))-40;
    1f18:	029575b3          	remu	a1,a0,s1
    1f1c:	fd858593          	addi	a1,a1,-40
    1f20:	c42e                	sw	a1,8(sp)
    1f22:	e83fe0ef          	jal	da4 <_rand_gen_32b>
		int y = (rand() % (128+80))-40;
    1f26:	02957633          	remu	a2,a0,s1
		RenderBSprite( (i&1)?&bubble:&bubblemirror, x, y );
    1f2a:	00147793          	andi	a5,s0,1
    1f2e:	45a2                	lw	a1,8(sp)
    1f30:	4a818513          	addi	a0,gp,1192 # 20001248 <bubblemirror>
		int y = (rand() % (128+80))-40;
    1f34:	fd860613          	addi	a2,a2,-40
		RenderBSprite( (i&1)?&bubble:&bubblemirror, x, y );
    1f38:	c399                	beqz	a5,1f3e <ModeExampleLoop+0x12c>
    1f3a:	5ac18513          	addi	a0,gp,1452 # 2000134c <bubble>
	for( i = 0; i < 10; i++ )
    1f3e:	0405                	addi	s0,s0,1
		RenderBSprite( (i&1)?&bubble:&bubblemirror, x, y );
    1f40:	d8dfe0ef          	jal	ccc <RenderBSprite>
	for( i = 0; i < 10; i++ )
    1f44:	fd2418e3          	bne	s0,s2,1f14 <ModeExampleLoop+0x102>
	ssd1306_refresh();
    1f48:	a34ff0ef          	jal	117c <ssd1306_refresh>
	int32_t us = m->usTilNextSend -= deltaTime;
    1f4c:	00c9a783          	lw	a5,12(s3)
    1f50:	414787b3          	sub	a5,a5,s4
	if( us < 0 )
    1f54:	0207c263          	bltz	a5,1f78 <ModeExampleLoop+0x166>
	int32_t us = m->usTilNextSend -= deltaTime;
    1f58:	00f9a623          	sw	a5,12(s3)
}
    1f5c:	40be                	lw	ra,204(sp)
    1f5e:	442e                	lw	s0,200(sp)
    1f60:	449e                	lw	s1,196(sp)
    1f62:	490e                	lw	s2,192(sp)
    1f64:	59fa                	lw	s3,188(sp)
    1f66:	5a6a                	lw	s4,184(sp)
    1f68:	5ada                	lw	s5,180(sp)
    1f6a:	5b4a                	lw	s6,176(sp)
    1f6c:	5bba                	lw	s7,172(sp)
    1f6e:	5c2a                	lw	s8,168(sp)
    1f70:	5c9a                	lw	s9,164(sp)
    1f72:	5d0a                	lw	s10,160(sp)
    1f74:	6169                	addi	sp,sp,208
    1f76:	8082                	ret
		m->usTilNextSend = 400000;
    1f78:	000627b7          	lui	a5,0x62
    1f7c:	a8078793          	addi	a5,a5,-1408 # 61a80 <firmware.c.3f3d58ee+0x5d498>
    1f80:	00f9a623          	sw	a5,12(s3)
	memcpy( pkt_tx+2, (uint32_t*)ROM_CFG_MAC_ADDR, 6 );
    1f84:	0003f5b7          	lui	a1,0x3f
	pkt_tx[0] = 0x02;
    1f88:	6785                	lui	a5,0x1
    1f8a:	0789                	addi	a5,a5,2 # 1002 <_write.constprop.0>
	memcpy( pkt_tx+2, (uint32_t*)ROM_CFG_MAC_ADDR, 6 );
    1f8c:	4619                	li	a2,6
    1f8e:	05e1                	addi	a1,a1,24 # 3f018 <firmware.c.3f3d58ee+0x3aa30>
    1f90:	01210513          	addi	a0,sp,18
	pkt_tx[0] = 0x02;
    1f94:	00f11823          	sh	a5,16(sp)
	memcpy( pkt_tx+2, (uint32_t*)ROM_CFG_MAC_ADDR, 6 );
    1f98:	3935                	jal	1bd4 <memcpy>
	memcpy( pkt_tx+10, message, messageLength );
    1f9a:	6589                	lui	a1,0x2
	pkt_tx[8] = 0xff; // Normally should be 0x03, 0x19, 0x00, 0x00 for BLE
    1f9c:	57fd                	li	a5,-1
	memcpy( pkt_tx+10, message, messageLength );
    1f9e:	4619                	li	a2,6
    1fa0:	7fc58593          	addi	a1,a1,2044 # 27fc <ModeTestLoop+0xd4>
    1fa4:	01a10513          	addi	a0,sp,26
	pkt_tx[8] = 0xff; // Normally should be 0x03, 0x19, 0x00, 0x00 for BLE
    1fa8:	00f11c23          	sh	a5,24(sp)
	memcpy( pkt_tx+10, message, messageLength );
    1fac:	3125                	jal	1bd4 <memcpy>
	Frame_TX(ACCESS_ADDRESS, pkt_tx, messageLength+10, iSLERChannel, PHY_MODE);
    1fae:	6b41c403          	lbu	s0,1716(gp) # 20001454 <iSLERChannel>
    1fb2:	4641                	li	a2,16
    1fb4:	8e89c537          	lui	a0,0x8e89c
    1fb8:	00c105b3          	add	a1,sp,a2
    1fbc:	4705                	li	a4,1
    1fbe:	86a2                	mv	a3,s0
    1fc0:	ed650513          	addi	a0,a0,-298 # 8e89bed6 <_eusrstack+0x6e898ed6>
    1fc4:	1fffe097          	auipc	ra,0x1fffe
    1fc8:	090080e7          	jalr	144(ra) # 20000054 <iSLERTX>
	Frame_RX(ACCESS_ADDRESS, iSLERChannel, PHY_MODE);
    1fcc:	8e89c537          	lui	a0,0x8e89c
    1fd0:	4605                	li	a2,1
    1fd2:	85a2                	mv	a1,s0
    1fd4:	ed650513          	addi	a0,a0,-298 # 8e89bed6 <_eusrstack+0x6e898ed6>
    1fd8:	1fffe097          	auipc	ra,0x1fffe
    1fdc:	1b4080e7          	jalr	436(ra) # 2000018c <iSLERRX>
}
    1fe0:	bfb5                	j	1f5c <ModeExampleLoop+0x14a>

00001fe2 <SetupRegisterMap.isra.0>:
int SetupRegisterMap( int address, const uint8_t * regptr, int regs, const char * name )
    1fe2:	1101                	addi	sp,sp,-32
		int b = SendByte( address<<1 );
    1fe4:	0506                	slli	a0,a0,0x1
int SetupRegisterMap( int address, const uint8_t * regptr, int regs, const char * name )
    1fe6:	cc22                	sw	s0,24(sp)
    1fe8:	ca26                	sw	s1,20(sp)
    1fea:	c84a                	sw	s2,16(sp)
    1fec:	c64e                	sw	s3,12(sp)
    1fee:	c452                	sw	s4,8(sp)
    1ff0:	c256                	sw	s5,4(sp)
    1ff2:	ce06                	sw	ra,28(sp)
    1ff4:	c05a                	sw	s6,0(sp)
    1ff6:	842e                	mv	s0,a1
    1ff8:	89b2                	mv	s3,a2
    1ffa:	8a36                	mv	s4,a3
	for( i = 0; i < regs; i++ )
    1ffc:	4901                	li	s2,0
		int b = SendByte( address<<1 );
    1ffe:	0ff57493          	zext.b	s1,a0
			printf( "%s Cannot Configure @ %d\n", name, i );
    2002:	6a8d                	lui	s5,0x3
		SendStart();
    2004:	1fffe097          	auipc	ra,0x1fffe
    2008:	34a080e7          	jalr	842(ra) # 2000034e <SendStart>
		int b = SendByte( address<<1 );
    200c:	8526                	mv	a0,s1
    200e:	1fffe097          	auipc	ra,0x1fffe
    2012:	42c080e7          	jalr	1068(ra) # 2000043a <SendByte>
		if( b )
    2016:	c505                	beqz	a0,203e <SetupRegisterMap.isra.0+0x5c>
			printf( "%s Cannot Configure @ %d\n", name, i );
    2018:	864a                	mv	a2,s2
    201a:	85d2                	mv	a1,s4
    201c:	804a8513          	addi	a0,s5,-2044 # 2804 <ModeTestLoop+0xdc>
    2020:	c8aff0ef          	jal	14aa <printf>
	for( i = 0; i < regs; i++ )
    2024:	0905                	addi	s2,s2,1
    2026:	fd391fe3          	bne	s2,s3,2004 <SetupRegisterMap.isra.0+0x22>
}
    202a:	40f2                	lw	ra,28(sp)
    202c:	4462                	lw	s0,24(sp)
    202e:	44d2                	lw	s1,20(sp)
    2030:	4942                	lw	s2,16(sp)
    2032:	49b2                	lw	s3,12(sp)
    2034:	4a22                	lw	s4,8(sp)
    2036:	4a92                	lw	s5,4(sp)
    2038:	4b02                	lw	s6,0(sp)
    203a:	6105                	addi	sp,sp,32
    203c:	8082                	ret
		SendByte( a );
    203e:	00044503          	lbu	a0,0(s0)
		int v = *(regptr++);
    2042:	00240b13          	addi	s6,s0,2
		SendByte( a );
    2046:	1fffe097          	auipc	ra,0x1fffe
    204a:	3f4080e7          	jalr	1012(ra) # 2000043a <SendByte>
		b = SendByte( v );
    204e:	00144503          	lbu	a0,1(s0)
		int v = *(regptr++);
    2052:	845a                	mv	s0,s6
		b = SendByte( v );
    2054:	1fffe097          	auipc	ra,0x1fffe
    2058:	3e6080e7          	jalr	998(ra) # 2000043a <SendByte>
		SendStop();
    205c:	1fffe097          	auipc	ra,0x1fffe
    2060:	35e080e7          	jalr	862(ra) # 200003ba <SendStop>
    2064:	b7c1                	j	2024 <SetupRegisterMap.isra.0+0x42>

00002066 <main>:
}


int main()
{
    2066:	7175                	addi	sp,sp,-144
    2068:	c706                	sw	ra,140(sp)
    206a:	c522                	sw	s0,136(sp)
    206c:	c326                	sw	s1,132(sp)
    206e:	c14a                	sw	s2,128(sp)
    2070:	dece                	sw	s3,124(sp)
    2072:	dcd2                	sw	s4,120(sp)
    2074:	dad6                	sw	s5,116(sp)
    2076:	d8da                	sw	s6,112(sp)
    2078:	d6de                	sw	s7,108(sp)
    207a:	d4e2                	sw	s8,104(sp)
    207c:	d2e6                	sw	s9,100(sp)
    207e:	d0ea                	sw	s10,96(sp)
    2080:	ceee                	sw	s11,92(sp)

/////////////////////////////////////////////////////////////////////////////////////////////////

static void BeanboySetup()
{
	SystemInit();
    2082:	391d                	jal	1cb8 <SystemInit>

	funGpioInitAll(); // no-op on ch5xx

	funPinMode( PA11, GPIO_CFGLR_OUT_10Mhz_PP );
    2084:	6505                	lui	a0,0x1
    2086:	80050513          	addi	a0,a0,-2048 # 800 <_einit+0x770>
//	funDigitalWrite( PA11, 1 ); // BS1 = 1 for I2C
	funDigitalWrite( PA11, 0 ); // BS1 = 0 for SPI
    208a:	400014b7          	lui	s1,0x40001
    208e:	6b05                	lui	s6,0x1
    2090:	0ac48493          	addi	s1,s1,172 # 400010ac <_eusrstack+0x1fffe0ac>
	funPinMode( PA11, GPIO_CFGLR_OUT_10Mhz_PP );
    2094:	95eff0ef          	jal	11f2 <funPinMode.constprop.0>
	funDigitalWrite( PA11, 0 ); // BS1 = 0 for SPI
    2098:	800b0b13          	addi	s6,s6,-2048 # 800 <_einit+0x770>
    209c:	0164a023          	sw	s6,0(s1)

	funPinMode( PA6, GPIO_CFGLR_OUT_10Mhz_PP );
    20a0:	04000513          	li	a0,64
    20a4:	94eff0ef          	jal	11f2 <funPinMode.constprop.0>
	funDigitalWrite( PA6, 1 ); // RES
    20a8:	04000a13          	li	s4,64
    20ac:	40001937          	lui	s2,0x40001
    20b0:	0b492c23          	sw	s4,184(s2) # 400010b8 <_eusrstack+0x1fffe0b8>
	funPinMode( PA4, GPIO_CFGLR_OUT_10Mhz_PP );
    20b4:	4541                	li	a0,16
    20b6:	93cff0ef          	jal	11f2 <funPinMode.constprop.0>
	funDigitalWrite( PA4, 0 ); // SCS
    20ba:	4bc1                	li	s7,16
	funPinMode( PA10, GPIO_CFGLR_OUT_10Mhz_PP );
	funDigitalWrite( PA10, 0 ); // D/C
    20bc:	40000a93          	li	s5,1024
	funPinMode( PA10, GPIO_CFGLR_OUT_10Mhz_PP );
    20c0:	40000513          	li	a0,1024
	funDigitalWrite( PA4, 0 ); // SCS
    20c4:	0174a023          	sw	s7,0(s1)
	funPinMode( PA10, GPIO_CFGLR_OUT_10Mhz_PP );
    20c8:	92aff0ef          	jal	11f2 <funPinMode.constprop.0>
	funDigitalWrite( PA10, 0 ); // D/C
    20cc:	0154a023          	sw	s5,0(s1)
	ConfigI2C();
    20d0:	1fffe097          	auipc	ra,0x1fffe
    20d4:	266080e7          	jalr	614(ra) # 20000336 <ConfigI2C>
	SetupRegisterMap( QMC6309_ADDRESS, (const uint8_t[]){ 0x12, 0x81 }, 1, "LSM6DS3 RESET" );
    20d8:	77e1                	lui	a5,0xffff8
    20da:	01c10993          	addi	s3,sp,28
    20de:	668d                	lui	a3,0x3
    20e0:	11278793          	addi	a5,a5,274 # ffff8112 <_eusrstack+0xdfff5112>
    20e4:	82068693          	addi	a3,a3,-2016 # 2820 <ModeTestLoop+0xf8>
    20e8:	4605                	li	a2,1
    20ea:	85ce                	mv	a1,s3
    20ec:	07c00513          	li	a0,124
    20f0:	00f11e23          	sh	a5,28(sp)
    20f4:	35fd                	jal	1fe2 <SetupRegisterMap.isra.0>
	SetupRegisterMap( QMC6309_ADDRESS, (const uint8_t[]){ 0x0b, 0x80, 0x0b, 0x00 }, 2, "QMC6309 RESET" );
    20f6:	000b87b7          	lui	a5,0xb8
    20fa:	1020                	addi	s0,sp,40
    20fc:	668d                	lui	a3,0x3
    20fe:	07ad                	addi	a5,a5,11 # b800b <firmware.c.3f3d58ee+0xb3a23>
    2100:	83068693          	addi	a3,a3,-2000 # 2830 <ModeTestLoop+0x108>
    2104:	4609                	li	a2,2
    2106:	85a2                	mv	a1,s0
    2108:	07c00513          	li	a0,124
    210c:	d43e                	sw	a5,40(sp)
    210e:	3dd1                	jal	1fe2 <SetupRegisterMap.isra.0>
	SetupRegisterMap( LSM6DS3_ADDRESS, LSM6DS3Regmap, sizeof(LSM6DS3Regmap)/2, "LSM6DS3" );
    2110:	668d                	lui	a3,0x3
    2112:	658d                	lui	a1,0x3
    2114:	84068693          	addi	a3,a3,-1984 # 2840 <ModeTestLoop+0x118>
    2118:	463d                	li	a2,15
    211a:	0c058593          	addi	a1,a1,192 # 30c0 <LSM6DS3Regmap.1>
    211e:	06a00513          	li	a0,106
    2122:	35c1                	jal	1fe2 <SetupRegisterMap.isra.0>
	SetupRegisterMap( QMC6309_ADDRESS, QMC6309Regmap, sizeof(QMC6309Regmap)/2, "QMC6309" );
    2124:	668d                	lui	a3,0x3
    2126:	4609                	li	a2,2
    2128:	c1018593          	addi	a1,gp,-1008 # 200009b0 <QMC6309Regmap.0>
    212c:	84868693          	addi	a3,a3,-1976 # 2848 <ModeTestLoop+0x120>
    2130:	07c00513          	li	a0,124
    2134:	357d                	jal	1fe2 <SetupRegisterMap.isra.0>
	DSCL_OUTPUT;
    2136:	0164a023          	sw	s6,0(s1)
	DSDA_OUTPUT;
    213a:	0154a023          	sw	s5,0(s1)
	Delay_Ms(10);
    213e:	00092537          	lui	a0,0x92
	funDigitalWrite( SSD1306_RST_PIN, FUN_LOW );
    2142:	0144a023          	sw	s4,0(s1)
	Delay_Ms(10);
    2146:	7c050513          	addi	a0,a0,1984 # 927c0 <firmware.c.3f3d58ee+0x8e1d8>
    214a:	9b7fe0ef          	jal	b00 <DelaySysTick>
	funPinMode( SSD1306_RST_PIN, GPIO_CFGLR_OUT_50Mhz_PP );
    214e:	8552                	mv	a0,s4
	funDigitalWrite( SSD1306_RST_PIN, FUN_HIGH );
    2150:	0b492c23          	sw	s4,184(s2)
	funPinMode( SSD1306_RST_PIN, GPIO_CFGLR_OUT_50Mhz_PP );
    2154:	89eff0ef          	jal	11f2 <funPinMode.constprop.0>
	funPinMode( SSD1306_CS_PIN, GPIO_CFGLR_OUT_50Mhz_PP );
    2158:	855e                	mv	a0,s7
    215a:	898ff0ef          	jal	11f2 <funPinMode.constprop.0>
	funPinMode( SSD1306_DC_PIN, GPIO_CFGLR_OUT_50Mhz_PP );
    215e:	8556                	mv	a0,s5
    2160:	892ff0ef          	jal	11f2 <funPinMode.constprop.0>
	funPinMode( SSD1306_MOSI_PIN, GPIO_CFGLR_OUT_50Mhz_PP );
    2164:	08000513          	li	a0,128
    2168:	88aff0ef          	jal	11f2 <funPinMode.constprop.0>
	funPinMode( SSD1306_SCK_PIN, GPIO_CFGLR_OUT_50Mhz_PP );
    216c:	02000513          	li	a0,32
    2170:	882ff0ef          	jal	11f2 <funPinMode.constprop.0>
	funDigitalWrite( SSD1306_RST_PIN, FUN_HIGH );
    2174:	0b492c23          	sw	s4,184(s2)
	funDigitalWrite( SSD1306_CS_PIN, FUN_HIGH );
    2178:	0b792c23          	sw	s7,184(s2)
	funDigitalWrite( SSD1306_DC_PIN, FUN_LOW );
    217c:	0154a023          	sw	s5,0(s1)
	R8_SPI0_CLOCK_DIV = FUNCONF_SYSTEM_CORE_CLOCK / 12000000; // 16MHz is the fastest I want to go - though it does seem to work up to ~60MHz. 
    2180:	400047b7          	lui	a5,0x40004
    2184:	4695                	li	a3,5
    2186:	00d781a3          	sb	a3,3(a5) # 40004003 <_eusrstack+0x20001003>
	R8_SPI0_CTRL_MOD  = RB_SPI_ALL_CLEAR;
    218a:	4689                	li	a3,2
    218c:	00d78023          	sb	a3,0(a5)
	R8_SPI0_CTRL_MOD  = RB_SPI_MOSI_OE | RB_SPI_2WIRE_MOD | RB_SPI_SCK_OE;
    2190:	06400713          	li	a4,100
    2194:	00e78023          	sb	a4,0(a5)
	R8_SPI0_CTRL_MOD |= RB_SPI_MST_SCK_MOD;
    2198:	0007c703          	lbu	a4,0(a5)
	Delay_Ms(10);
    219c:	00092537          	lui	a0,0x92
    21a0:	7c050513          	addi	a0,a0,1984 # 927c0 <firmware.c.3f3d58ee+0x8e1d8>
	R8_SPI0_CTRL_MOD |= RB_SPI_MST_SCK_MOD;
    21a4:	00876713          	ori	a4,a4,8
    21a8:	00e78023          	sb	a4,0(a5)
	R8_SPI0_CTRL_CFG = RB_MST_CLK_SEL;
    21ac:	00d780a3          	sb	a3,1(a5)
	funDigitalWrite( SSD1306_RST_PIN, FUN_LOW );
    21b0:	0144a023          	sw	s4,0(s1)
	Delay_Ms(10);
    21b4:	94dfe0ef          	jal	b00 <DelaySysTick>

	ssd1306_setbuf(0);
	
	// initialize OLED
#if !defined(SSD1306_CUSTOM_INIT_ARRAY) || !SSD1306_CUSTOM_INIT_ARRAY
	uint8_t *cmd_list = (uint8_t *)ssd1306_init_array;
    21b8:	648d                	lui	s1,0x3
	funDigitalWrite( SSD1306_RST_PIN, FUN_HIGH );
    21ba:	0b492c23          	sw	s4,184(s2)
	ssd1306_setbuf(0);
    21be:	b84ff0ef          	jal	1542 <ssd1306_setbuf.constprop.0>
	uint8_t *cmd_list = (uint8_t *)ssd1306_init_array;
    21c2:	0e048493          	addi	s1,s1,224 # 30e0 <ssd1306_init_array>
	while(*cmd_list != SSD1306_TERMINATE_CMDS)
    21c6:	0ff00913          	li	s2,255
    21ca:	0004c503          	lbu	a0,0(s1)
    21ce:	4f251963          	bne	a0,s2,26c0 <main+0x65a>
	{
		if(ssd1306_cmd(*cmd_list++))
			return 1;
	}
	
	ssd1306_refresh();	
    21d2:	fabfe0ef          	jal	117c <ssd1306_refresh>

	ssd1306_rst();

	ssd1306_spi_init();
	ssd1306_init();
	ssd1306_setbuf(0x00);
    21d6:	b6cff0ef          	jal	1542 <ssd1306_setbuf.constprop.0>

	// Turbo-time
	ssd1306_cmd(0xD5);
    21da:	0d500513          	li	a0,213
    21de:	f87fe0ef          	jal	1164 <ssd1306_cmd.isra.0>
	ssd1306_cmd(0xe0);
    21e2:	0e000513          	li	a0,224
    21e6:	f7ffe0ef          	jal	1164 <ssd1306_cmd.isra.0>

	ssd1306_cmd(0xc8);
    21ea:	0c800513          	li	a0,200
    21ee:	f77fe0ef          	jal	1164 <ssd1306_cmd.isra.0>
	ssd1306_cmd(0xa1);
    21f2:	0a100513          	li	a0,161
    21f6:	f6ffe0ef          	jal	1164 <ssd1306_cmd.isra.0>
	R8_TMR_CTRL_MOD = 0b00000010; // All clear
    21fa:	400027b7          	lui	a5,0x40002
    21fe:	4689                	li	a3,2
	R32_TMR_CNT_END = 0x03FFFFFF; // Maximum possible counter size.
    2200:	04000737          	lui	a4,0x4000
	R8_TMR_CTRL_MOD = 0b00000010; // All clear
    2204:	40d78023          	sb	a3,1024(a5) # 40002400 <_eusrstack+0x1ffff400>
	R32_TMR_CNT_END = 0x03FFFFFF; // Maximum possible counter size.
    2208:	177d                	addi	a4,a4,-1 # 3ffffff <firmware.c.3f3d58ee+0x3ffba17>
    220a:	40e7a623          	sw	a4,1036(a5)
	R8_TMR_CTRL_MOD = 0b11000101; // Capture mode rising edge
    220e:	fc500713          	li	a4,-59
    2212:	40e78023          	sb	a4,1024(a5)
	R8_TMR_INTER_EN = 0b10; // Capture event.
    2216:	40d78123          	sb	a3,1026(a5)
	R16_PIN_ALTERNATE_H |= 1<<6; // Map PA2 to CAP1 (could be PA7, PA4, or PA9) (see RB_TMR_PIN)
    221a:	400017b7          	lui	a5,0x40001
    221e:	01a7d703          	lhu	a4,26(a5) # 4000101a <_eusrstack+0x1fffe01a>
	NVIC->IENR[((uint32_t)(IRQn) >> 5)] = (1 << ((uint32_t)(IRQn) & 0x1F));
    2222:	e000e937          	lui	s2,0xe000e
    2226:	04076713          	ori	a4,a4,64
    222a:	00e79d23          	sh	a4,26(a5)
    222e:	010007b7          	lui	a5,0x1000
    2232:	10f92023          	sw	a5,256(s2) # e000e100 <_eusrstack+0xc000b100>
	uint32_t result; __ASM volatile( ADD_ARCH_ZICSR "csrr %0," "mstatus": "=r"(result) );
    2236:	300027f3          	csrr	a5,mstatus
	result |= 0x88;  __ASM volatile( ADD_ARCH_ZICSR "csrw mstatus, %0" : : "r" (result) );
    223a:	0887e793          	ori	a5,a5,136
    223e:	30079073          	csrw	mstatus,a5
	funPinMode( PA2, GPIO_ModeOut_PP_20mA );
    2242:	4511                	li	a0,4
    2244:	faffe0ef          	jal	11f2 <funPinMode.constprop.0>
	iSLERChannel = channel;
    2248:	4739                	li	a4,14
    224a:	6ae18a23          	sb	a4,1716(gp) # 20001454 <iSLERChannel>
	LL->LL5 = 0x8c;
    224e:	4000c7b7          	lui	a5,0x4000c
    2252:	20078793          	addi	a5,a5,512 # 4000c200 <_eusrstack+0x20009200>
    2256:	08c00713          	li	a4,140
    225a:	cbd8                	sw	a4,20(a5)
	LL->LL7 = 0x76;
    225c:	07600693          	li	a3,118
    2260:	cfd4                	sw	a3,28(a5)
	LL->LL9 = 0x8c;
    2262:	d3d8                	sw	a4,36(a5)
	LL->LL13 = 0x8c;
    2264:	dbd8                	sw	a4,52(a5)
	LL->LL17 = 0x8c;
    2266:	c3f8                	sw	a4,68(a5)
	LL->LL19 = 0x76;
    2268:	c7f4                	sw	a3,76(a5)
	LL->LL11 = 0x6c;
    226a:	06c00713          	li	a4,108
    226e:	d7d8                	sw	a4,44(a5)
	LL->LL15 = 0x6c;
    2270:	dfd8                	sw	a4,60(a5)
	LL->LL1 = 0x78;
    2272:	07800713          	li	a4,120
    2276:	c3d8                	sw	a4,4(a5)
	LL->INT_EN = 0x16000f;
    2278:	00160737          	lui	a4,0x160
	LL->LL21 = 0;
    227c:	0407aa23          	sw	zero,84(a5)
	LL->INT_EN = 0x16000f;
    2280:	073d                	addi	a4,a4,15 # 16000f <firmware.c.3f3d58ee+0x15ba27>
    2282:	c7d8                	sw	a4,12(a5)
	LL->RXBUF = (uint32_t)LLE_BUF;
    2284:	20001737          	lui	a4,0x20001
    2288:	4a470713          	addi	a4,a4,1188 # 200014a4 <LLE_BUF>
    228c:	dff8                	sw	a4,124(a5)
	LL->STATUS = 0xffffffff;
    228e:	577d                	li	a4,-1
	RF->RF10 = 0x480;
    2290:	4000d4b7          	lui	s1,0x4000d
	LL->STATUS = 0xffffffff;
    2294:	c798                	sw	a4,8(a5)
	RF->RF10 = 0x480;
    2296:	48000793          	li	a5,1152
    229a:	d49c                	sw	a5,40(s1)
	RF->RF12 &= 0xfff9ffff;
    229c:	589c                	lw	a5,48(s1)
    229e:	fffa0737          	lui	a4,0xfffa0
    22a2:	177d                	addi	a4,a4,-1 # fff9ffff <_eusrstack+0xdff9cfff>
    22a4:	8ff9                	and	a5,a5,a4
    22a6:	d89c                	sw	a5,48(s1)
	RF->RF12 |= 0x70000000;
    22a8:	589c                	lw	a5,48(s1)
    22aa:	70000737          	lui	a4,0x70000
	RF->RF15 = (RF->RF15 & 0xf8ffffff) | 0x2000000;
    22ae:	020006b7          	lui	a3,0x2000
	RF->RF12 |= 0x70000000;
    22b2:	8fd9                	or	a5,a5,a4
    22b4:	d89c                	sw	a5,48(s1)
	RF->RF15 = (RF->RF15 & 0xf8ffffff) | 0x2000000;
    22b6:	5cdc                	lw	a5,60(s1)
    22b8:	f9000737          	lui	a4,0xf9000
    22bc:	177d                	addi	a4,a4,-1 # f8ffffff <_eusrstack+0xd8ffcfff>
    22be:	8ff9                	and	a5,a5,a4
    22c0:	8fd5                	or	a5,a5,a3
    22c2:	dcdc                	sw	a5,60(s1)
	RF->RF15 = (RF->RF15 & 0x1fffffff) | 0x40000000;
    22c4:	5cdc                	lw	a5,60(s1)
    22c6:	40000737          	lui	a4,0x40000
	BB->CTRL_TX = (BB->CTRL_TX & 0x1ffffff) | (TxPower | 0x40) << 0x19;
    22ca:	16fd                	addi	a3,a3,-1 # 1ffffff <firmware.c.3f3d58ee+0x1ffba17>
	RF->RF15 = (RF->RF15 & 0x1fffffff) | 0x40000000;
    22cc:	078e                	slli	a5,a5,0x3
    22ce:	838d                	srli	a5,a5,0x3
    22d0:	8fd9                	or	a5,a5,a4
    22d2:	dcdc                	sw	a5,60(s1)
	RF->RF18 &= 0xfff8ffff;
    22d4:	44bc                	lw	a5,72(s1)
    22d6:	fff90737          	lui	a4,0xfff90
    22da:	177d                	addi	a4,a4,-1 # fff8ffff <_eusrstack+0xdff8cfff>
    22dc:	8ff9                	and	a5,a5,a4
    22de:	c4bc                	sw	a5,72(s1)
	RF->RF20 = (RF->RF20 & 0xfffff8ff) | 0x300;
    22e0:	48bc                	lw	a5,80(s1)
	RF->RF23 |= 0x70000;
    22e2:	00070737          	lui	a4,0x70
	NVIC->VTFIDR[3] = 0x14;
    22e6:	4bd1                	li	s7,20
	RF->RF20 = (RF->RF20 & 0xfffff8ff) | 0x300;
    22e8:	8ff7f793          	andi	a5,a5,-1793
    22ec:	3007e793          	ori	a5,a5,768
    22f0:	c8bc                	sw	a5,80(s1)
	RF->RF23 |= 0x70000;
    22f2:	4cfc                	lw	a5,92(s1)
	DevSetMode(DEVSETMODE_TUNE);
    22f4:	55800513          	li	a0,1368
	RF->RF23 |= 0x70000;
    22f8:	8fd9                	or	a5,a5,a4
    22fa:	ccfc                	sw	a5,92(s1)
	RF->RF23 |= 0x700000;
    22fc:	4cfc                	lw	a5,92(s1)
    22fe:	00700737          	lui	a4,0x700
    2302:	8fd9                	or	a5,a5,a4
    2304:	ccfc                	sw	a5,92(s1)
	BB->BB14 = 0x2020c;
    2306:	00020737          	lui	a4,0x20
    230a:	4000c7b7          	lui	a5,0x4000c
    230e:	10078793          	addi	a5,a5,256 # 4000c100 <_eusrstack+0x20009100>
    2312:	20c70713          	addi	a4,a4,524 # 2020c <firmware.c.3f3d58ee+0x1bc24>
    2316:	df98                	sw	a4,56(a5)
	BB->BB15 = 0x50;
    2318:	05000713          	li	a4,80
    231c:	dfd8                	sw	a4,60(a5)
	BB->CTRL_TX = (BB->CTRL_TX & 0x1ffffff) | (TxPower | 0x40) << 0x19;
    231e:	5bd8                	lw	a4,52(a5)
    2320:	8f75                	and	a4,a4,a3
    2322:	da0006b7          	lui	a3,0xda000
    2326:	8f55                	or	a4,a4,a3
    2328:	dbd8                	sw	a4,52(a5)
	BB->CTRL_CFG &= 0xfffffcff;
    232a:	4398                	lw	a4,0(a5)
    232c:	cff77713          	andi	a4,a4,-769
    2330:	c398                	sw	a4,0(a5)
	NVIC->VTFIDR[3] = 0x14;
    2332:	057909a3          	sb	s7,83(s2)
	DevSetMode(DEVSETMODE_TUNE);
    2336:	8a9fe0ef          	jal	bde <DevSetMode>
	RF->RF1 &= 0xfffffeff;
    233a:	40dc                	lw	a5,4(s1)
	RF->RF10 &= 0xffffefff;
    233c:	777d                	lui	a4,0xfffff
    233e:	177d                	addi	a4,a4,-1 # ffffefff <_eusrstack+0xdfffbfff>
	RF->RF1 &= 0xfffffeff;
    2340:	eff7f793          	andi	a5,a5,-257
    2344:	c0dc                	sw	a5,4(s1)
	RF->RF10 &= 0xffffefff;
    2346:	549c                	lw	a5,40(s1)
	uint32_t tune2401 = RFEND_TXCTune(37);
    2348:	02500513          	li	a0,37
	RF->RF10 &= 0xffffefff;
    234c:	8ff9                	and	a5,a5,a4
    234e:	d49c                	sw	a5,40(s1)
	RF->RF11 &= 0xffffffef;
    2350:	54dc                	lw	a5,44(s1)
	RF->RF2 |= 0x20000;
    2352:	00020737          	lui	a4,0x20
	RF->RF11 &= 0xffffffef;
    2356:	9bbd                	andi	a5,a5,-17
    2358:	d4dc                	sw	a5,44(s1)
	RF->RF2 |= 0x20000;
    235a:	449c                	lw	a5,8(s1)
    235c:	8fd9                	or	a5,a5,a4
    235e:	c49c                	sw	a5,8(s1)
	RF->RF1 |= 0x10;
    2360:	40dc                	lw	a5,4(s1)
    2362:	0107e793          	ori	a5,a5,16
    2366:	c0dc                	sw	a5,4(s1)
	uint32_t tune2401 = RFEND_TXCTune(37);
    2368:	8c5fe0ef          	jal	c2c <RFEND_TXCTune>
    236c:	84aa                	mv	s1,a0
	uint8_t nGA2401 = (uint8_t)(tune2401 >> 24) & 0x7f;
    236e:	01855b13          	srli	s6,a0,0x18
	uint32_t tune2480 = RFEND_TXCTune(39);
    2372:	02700513          	li	a0,39
    2376:	8b7fe0ef          	jal	c2c <RFEND_TXCTune>
    237a:	8a2a                	mv	s4,a0
	uint8_t nGA2480 = (uint8_t)(tune2480 >> 24) & 0x7f;
    237c:	01855c13          	srli	s8,a0,0x18
	uint32_t tune2440 = RFEND_TXCTune(18);
    2380:	4549                	li	a0,18
    2382:	8abfe0ef          	jal	c2c <RFEND_TXCTune>
	uint32_t dCO0140 = nCO2401 - nCO2440;
    2386:	0ff57793          	zext.b	a5,a0
	uint8_t txctune_co[sizeof(RF->TXCTUNE_CO)] = {0};
    238a:	02800613          	li	a2,40
	uint32_t tune2440 = RFEND_TXCTune(18);
    238e:	892a                	mv	s2,a0
	uint8_t nGA2440 = (uint8_t)(tune2440 >> 24) & 0x7f;
    2390:	01855a93          	srli	s5,a0,0x18
	uint32_t dCO0140 = nCO2401 - nCO2440;
    2394:	0ff4f493          	zext.b	s1,s1
	uint32_t dCO4080 = nCO2440 - nCO2480;
    2398:	0ffa7a13          	zext.b	s4,s4
	uint8_t txctune_co[sizeof(RF->TXCTUNE_CO)] = {0};
    239c:	4581                	li	a1,0
    239e:	8522                	mv	a0,s0
	uint32_t dCO0140 = nCO2401 - nCO2440;
    23a0:	8c9d                	sub	s1,s1,a5
	uint32_t dCO4080 = nCO2440 - nCO2480;
    23a2:	41478a33          	sub	s4,a5,s4
	uint8_t txctune_co[sizeof(RF->TXCTUNE_CO)] = {0};
    23a6:	98aff0ef          	jal	1530 <memset>
	for(int f = 0; f < int_points; f++) {
    23aa:	037486b3          	mul	a3,s1,s7
    23ae:	4781                	li	a5,0
		tune = (dCO0140 * (int_points -f)) / int_points;
    23b0:	865e                	mv	a2,s7
		txctune_co[f] = tune | (tune << 4);
    23b2:	00f405b3          	add	a1,s0,a5
	for(int f = 0; f < int_points; f++) {
    23b6:	0785                	addi	a5,a5,1
		tune = (dCO0140 * (int_points -f)) / int_points;
    23b8:	0376d733          	divu	a4,a3,s7
	for(int f = 0; f < int_points; f++) {
    23bc:	8e85                	sub	a3,a3,s1
		txctune_co[f] = tune | (tune << 4);
    23be:	0762                	slli	a4,a4,0x18
    23c0:	8761                	srai	a4,a4,0x18
    23c2:	00471513          	slli	a0,a4,0x4
    23c6:	8f49                	or	a4,a4,a0
    23c8:	00e58023          	sb	a4,0(a1)
	for(int f = 0; f < int_points; f++) {
    23cc:	fec793e3          	bne	a5,a2,23b2 <main+0x34c>
    23d0:	4681                	li	a3,0
		tune = (dCO4080 * (f -int_points)) / int_points;
    23d2:	4851                	li	a6,20
	for(int f = int_points; f < sizeof(RF->TXCTUNE_CO); f++) {
    23d4:	02800613          	li	a2,40
		tune = (dCO4080 * (f -int_points)) / int_points;
    23d8:	0306d733          	divu	a4,a3,a6
		txctune_co[f] = tune | (tune << 4);
    23dc:	00f405b3          	add	a1,s0,a5
	for(int f = int_points; f < sizeof(RF->TXCTUNE_CO); f++) {
    23e0:	0785                	addi	a5,a5,1
    23e2:	96d2                	add	a3,a3,s4
		txctune_co[f] = tune | (tune << 4);
    23e4:	0762                	slli	a4,a4,0x18
    23e6:	8761                	srai	a4,a4,0x18
    23e8:	00471513          	slli	a0,a4,0x4
    23ec:	8f49                	or	a4,a4,a0
    23ee:	00e58023          	sb	a4,0(a1)
	for(int f = int_points; f < sizeof(RF->TXCTUNE_CO); f++) {
    23f2:	fec793e3          	bne	a5,a2,23d8 <main+0x372>
    23f6:	86a2                	mv	a3,s0
	for(int i = 0; i < sizeof(txctune_co) /4; i++) {
    23f8:	4701                	li	a4,0
		RF->TXCTUNE_CO[i] = ((uint32_t*)txctune_co)[i];
    23fa:	4000d537          	lui	a0,0x4000d
	for(int i = 0; i < sizeof(txctune_co) /4; i++) {
    23fe:	4629                	li	a2,10
		RF->TXCTUNE_CO[i] = ((uint32_t*)txctune_co)[i];
    2400:	428c                	lw	a1,0(a3)
    2402:	02870793          	addi	a5,a4,40 # 20028 <firmware.c.3f3d58ee+0x1ba40>
    2406:	078a                	slli	a5,a5,0x2
    2408:	97aa                	add	a5,a5,a0
    240a:	c38c                	sw	a1,0(a5)
	for(int i = 0; i < sizeof(txctune_co) /4; i++) {
    240c:	0705                	addi	a4,a4,1
    240e:	0691                	addi	a3,a3,4 # da000004 <_eusrstack+0xb9ffd004>
    2410:	fec718e3          	bne	a4,a2,2400 <main+0x39a>
	uint32_t dGA0140 = nGA2401 - nGA2440;
    2414:	415b0633          	sub	a2,s6,s5
	uint32_t dGA4080 = nGA2440 - nGA2480;
    2418:	4695                	li	a3,5
    241a:	02d606b3          	mul	a3,a2,a3
    241e:	418a8ab3          	sub	s5,s5,s8
	uint8_t txctune_ga[sizeof(RF->TXCTUNE_GA)] = {0};
    2422:	ce02                	sw	zero,28(sp)
    2424:	d002                	sw	zero,32(sp)
    2426:	d202                	sw	zero,36(sp)
	for(int f = 1; f < int_points; f++) {
    2428:	4785                	li	a5,1
		tune = (dGA0140 * (int_points -f)) / int_points;
    242a:	4599                	li	a1,6
		txctune_ga[f] = tune | (tune << 4);
    242c:	00f98533          	add	a0,s3,a5
	for(int f = 1; f < int_points; f++) {
    2430:	0785                	addi	a5,a5,1
		tune = (dGA0140 * (int_points -f)) / int_points;
    2432:	02b6d733          	divu	a4,a3,a1
	for(int f = 1; f < int_points; f++) {
    2436:	8e91                	sub	a3,a3,a2
		txctune_ga[f] = tune | (tune << 4);
    2438:	0762                	slli	a4,a4,0x18
    243a:	8761                	srai	a4,a4,0x18
    243c:	00471813          	slli	a6,a4,0x4
    2440:	01076733          	or	a4,a4,a6
    2444:	00e50023          	sb	a4,0(a0) # 4000d000 <_eusrstack+0x2000a000>
	for(int f = 1; f < int_points; f++) {
    2448:	feb792e3          	bne	a5,a1,242c <main+0x3c6>
    244c:	4681                	li	a3,0
		tune = (dGA4080 * (f -int_points)) / int_points;
    244e:	4819                	li	a6,6
	for(int f = int_points; f < sizeof(RF->TXCTUNE_GA) -1; f++) {
    2450:	462d                	li	a2,11
		tune = (dGA4080 * (f -int_points)) / int_points;
    2452:	0306d733          	divu	a4,a3,a6
		txctune_ga[f] = tune | (tune << 4);
    2456:	00f985b3          	add	a1,s3,a5
	for(int f = int_points; f < sizeof(RF->TXCTUNE_GA) -1; f++) {
    245a:	0785                	addi	a5,a5,1
    245c:	96d6                	add	a3,a3,s5
		txctune_ga[f] = tune | (tune << 4);
    245e:	0762                	slli	a4,a4,0x18
    2460:	8761                	srai	a4,a4,0x18
    2462:	00471513          	slli	a0,a4,0x4
    2466:	8f49                	or	a4,a4,a0
    2468:	00e58023          	sb	a4,0(a1)
	for(int f = int_points; f < sizeof(RF->TXCTUNE_GA) -1; f++) {
    246c:	fec793e3          	bne	a5,a2,2452 <main+0x3ec>
		RF->TXCTUNE_GA[i] = ((uint32_t*)txctune_ga)[i];
    2470:	46f2                	lw	a3,28(sp)
    2472:	4000d7b7          	lui	a5,0x4000d
    2476:	08078713          	addi	a4,a5,128 # 4000d080 <_eusrstack+0x2000a080>
    247a:	c734                	sw	a3,72(a4)
    247c:	5682                	lw	a3,32(sp)
	RF->RF10 |= 0x1000;
    247e:	6605                	lui	a2,0x1
		RF->TXCTUNE_GA[i] = ((uint32_t*)txctune_ga)[i];
    2480:	c774                	sw	a3,76(a4)
    2482:	5692                	lw	a3,36(sp)
    2484:	cb34                	sw	a3,80(a4)
	RF->RF1 &= 0xffffffef;
    2486:	43d8                	lw	a4,4(a5)
	RF->TXTUNE_CTRL = (RF->TXTUNE_CTRL & 0xffffffc0) | (tune2440 & 0x3f);
    2488:	03f97693          	andi	a3,s2,63
	RF->RF1 &= 0xffffffef;
    248c:	9b3d                	andi	a4,a4,-17
    248e:	c3d8                	sw	a4,4(a5)
	RF->RF1 &= 0xfffffffe;
    2490:	43d8                	lw	a4,4(a5)
    2492:	9b79                	andi	a4,a4,-2
    2494:	c3d8                	sw	a4,4(a5)
	RF->RF10 |= 0x1000;
    2496:	5798                	lw	a4,40(a5)
    2498:	8f51                	or	a4,a4,a2
    249a:	d798                	sw	a4,40(a5)
	RF->RF11 |= 0x10;
    249c:	57d8                	lw	a4,44(a5)
    249e:	01076713          	ori	a4,a4,16
    24a2:	d7d8                	sw	a4,44(a5)
	RF->TXTUNE_CTRL = (RF->TXTUNE_CTRL & 0xffffffc0) | (tune2440 & 0x3f);
    24a4:	5f98                	lw	a4,56(a5)
    24a6:	fc077713          	andi	a4,a4,-64
    24aa:	8f55                	or	a4,a4,a3
    24ac:	df98                	sw	a4,56(a5)
	RF->TXTUNE_CTRL = (RF->TXTUNE_CTRL & 0x80ffffff) | (tune2440 & 0x7f000000);
    24ae:	5f98                	lw	a4,56(a5)
    24b0:	810006b7          	lui	a3,0x81000
    24b4:	16fd                	addi	a3,a3,-1 # 80ffffff <_eusrstack+0x60ffcfff>
    24b6:	8f75                	and	a4,a4,a3
    24b8:	7f0006b7          	lui	a3,0x7f000
    24bc:	00d97933          	and	s2,s2,a3
    24c0:	01276733          	or	a4,a4,s2
    24c4:	df98                	sw	a4,56(a5)
	RF->RF1 |= 0x100;
    24c6:	43d8                	lw	a4,4(a5)
	RF->RF20 &= 0xfffeffff;
    24c8:	76c1                	lui	a3,0xffff0
    24ca:	16fd                	addi	a3,a3,-1 # fffeffff <_eusrstack+0xdffecfff>
	RF->RF1 |= 0x100;
    24cc:	10076713          	ori	a4,a4,256
    24d0:	c3d8                	sw	a4,4(a5)
	RF->RF20 &= 0xfffeffff;
    24d2:	4bb8                	lw	a4,80(a5)
    24d4:	8f75                	and	a4,a4,a3
    24d6:	cbb8                	sw	a4,80(a5)
	RF->RF2 |= 0x200000;
    24d8:	4798                	lw	a4,8(a5)
    24da:	002006b7          	lui	a3,0x200
    24de:	8f55                	or	a4,a4,a3
    24e0:	c798                	sw	a4,8(a5)
	RF->RF3 = (RF->RF3 & 0xffffffef) | 0x10;
    24e2:	47d8                	lw	a4,12(a5)
	LL->TMR = 100;
    24e4:	06400693          	li	a3,100
	RF->RF3 = (RF->RF3 & 0xffffffef) | 0x10;
    24e8:	01076713          	ori	a4,a4,16
    24ec:	c7d8                	sw	a4,12(a5)
	RF->RF1 |= 0x1000;
    24ee:	43d8                	lw	a4,4(a5)
    24f0:	8f51                	or	a4,a4,a2
    24f2:	c3d8                	sw	a4,4(a5)
	LL->TMR = 100;
    24f4:	4000c737          	lui	a4,0x4000c
    24f8:	20070713          	addi	a4,a4,512 # 4000c200 <_eusrstack+0x20009200>
    24fc:	d374                	sw	a3,100(a4)
	while(LL->TMR && ((RF->RXTUNE >> 8) & 1));
    24fe:	5374                	lw	a3,100(a4)
    2500:	c691                	beqz	a3,250c <main+0x4a6>
    2502:	09c7a683          	lw	a3,156(a5)
    2506:	1006f693          	andi	a3,a3,256
    250a:	faf5                	bnez	a3,24fe <main+0x498>
	tuneFilter = RF->RXTUNE & 0x1f;
    250c:	4000d7b7          	lui	a5,0x4000d
    2510:	08078713          	addi	a4,a5,128 # 4000d080 <_eusrstack+0x2000a080>
    2514:	4f58                	lw	a4,28(a4)
	RF->RF20 |= 0x10000;
    2516:	6641                	lui	a2,0x10
	tuneFilter = RF->RXTUNE & 0x1f;
    2518:	8b7d                	andi	a4,a4,31
    251a:	6ae1ae23          	sw	a4,1724(gp) # 2000145c <tuneFilter>
	RF->RF20 |= 0x10000;
    251e:	4bb8                	lw	a4,80(a5)
    2520:	8f51                	or	a4,a4,a2
    2522:	cbb8                	sw	a4,80(a5)
	RF->RF20 = (RF->RF20 & 0xffffffe0) | tuneFilter;
    2524:	4bb8                	lw	a4,80(a5)
    2526:	6bc1a603          	lw	a2,1724(gp) # 2000145c <tuneFilter>
    252a:	9b01                	andi	a4,a4,-32
    252c:	8f51                	or	a4,a4,a2
    252e:	cbb8                	sw	a4,80(a5)
	RF->RF2 &= 0xffdfffff;
    2530:	4798                	lw	a4,8(a5)
    2532:	ffe00637          	lui	a2,0xffe00
    2536:	167d                	addi	a2,a2,-1 # ffdfffff <_eusrstack+0xdfdfcfff>
    2538:	8f71                	and	a4,a4,a2
    253a:	c798                	sw	a4,8(a5)
	tuneFilter2M = (tuneFilter +2 < 0x1f) ? (tuneFilter +2) : 0x1f;
    253c:	6bc1a703          	lw	a4,1724(gp) # 2000145c <tuneFilter>
    2540:	4679                	li	a2,30
    2542:	47fd                	li	a5,31
    2544:	0709                	addi	a4,a4,2
    2546:	00e66563          	bltu	a2,a4,2550 <main+0x4ea>
    254a:	6bc1a783          	lw	a5,1724(gp) # 2000145c <tuneFilter>
    254e:	0789                	addi	a5,a5,2
    2550:	6cf1a023          	sw	a5,1728(gp) # 20001460 <tuneFilter2M>
	RF->RF22 &= 0xfffeffff;
    2554:	4000d7b7          	lui	a5,0x4000d
    2558:	4fb8                	lw	a4,88(a5)
    255a:	76c1                	lui	a3,0xffff0
    255c:	16fd                	addi	a3,a3,-1 # fffeffff <_eusrstack+0xdffecfff>
    255e:	8f75                	and	a4,a4,a3
    2560:	cfb8                	sw	a4,88(a5)
	RF->RF2 |= 0x10000;
    2562:	4798                	lw	a4,8(a5)
    2564:	66c1                	lui	a3,0x10
	DevSetMode(0);
    2566:	4501                	li	a0,0
	RF->RF2 |= 0x10000;
    2568:	8f55                	or	a4,a4,a3
    256a:	c798                	sw	a4,8(a5)
	RF->RF3 = (RF->RF3 & 0xfffffeff) | 0x100;
    256c:	47d8                	lw	a4,12(a5)
	RF->RF1 = (RF->RF1 & 0xfffeffff) | 0x100000;
    256e:	ffef06b7          	lui	a3,0xffef0
    2572:	16fd                	addi	a3,a3,-1 # ffeeffff <_eusrstack+0xdfeecfff>
	RF->RF3 = (RF->RF3 & 0xfffffeff) | 0x100;
    2574:	10076713          	ori	a4,a4,256
    2578:	c7d8                	sw	a4,12(a5)
	RF->RF1 = (RF->RF1 & 0xfffeffff) | 0x100000;
    257a:	43d8                	lw	a4,4(a5)
	BeanboySetup();

	int frameno = 0;

	unsigned lastStart = 0;
    257c:	4901                	li	s2,0
    257e:	8f75                	and	a4,a4,a3
    2580:	001006b7          	lui	a3,0x100
    2584:	8f55                	or	a4,a4,a3
    2586:	c3d8                	sw	a4,4(a5)
	DevSetMode(0);
    2588:	e56fe0ef          	jal	bde <DevSetMode>
	NVIC->IPRIOR[0x15] |= 0x80;
    258c:	e000e7b7          	lui	a5,0xe000e
    2590:	4157c703          	lbu	a4,1045(a5) # e000e415 <_eusrstack+0xc000b415>
	Frame_RX(ACCESS_ADDRESS, channel, PHY_MODE);
    2594:	8e89c537          	lui	a0,0x8e89c
    2598:	4605                	li	a2,1
    259a:	08076713          	ori	a4,a4,128
    259e:	40e78aa3          	sb	a4,1045(a5)
	NVIC->IENR[((uint32_t)(IRQn) >> 5)] = (1 << ((uint32_t)(IRQn) & 0x1F));
    25a2:	00200737          	lui	a4,0x200
    25a6:	10e7a023          	sw	a4,256(a5)
    25aa:	45b9                	li	a1,14
    25ac:	ed650513          	addi	a0,a0,-298 # 8e89bed6 <_eusrstack+0x6e898ed6>
    25b0:	1fffe097          	auipc	ra,0x1fffe
    25b4:	bdc080e7          	jalr	-1060(ra) # 2000018c <iSLERRX>
	memset( m, 0, sizeof( *m ) );
    25b8:	6c01a423          	sw	zero,1736(gp) # 20001468 <gameUnion+0x4>
	m->Update = ModeMenuLoop;
    25bc:	6789                	lui	a5,0x2
    25be:	6c418713          	addi	a4,gp,1732 # 20001464 <gameUnion>
    25c2:	9f278793          	addi	a5,a5,-1550 # 19f2 <ModeMenuLoop>
    25c6:	c31c                	sw	a5,0(a4)
	m->selectedEntry = 1;
    25c8:	4785                	li	a5,1
    25ca:	c71c                	sw	a5,8(a4)

	game = &gameUnion.template;

	SelectMode( 0 ); // Menu mode

	uint32_t lastClickedMask = 0;
    25cc:	c402                	sw	zero,8(sp)
    25ce:	6c418b93          	addi	s7,gp,1732 # 20001464 <gameUnion>
    25d2:	4c21                	li	s8,8
    25d4:	10000c93          	li	s9,256
    25d8:	20000d13          	li	s10,512
		switch( btn )
    25dc:	c63e                	sw	a5,12(sp)
    25de:	4d89                	li	s11,2
		if( *((uint32_t*)0x4fff0000) == 0xaaaaaaaa )
    25e0:	4fff0b37          	lui	s6,0x4fff0
    25e4:	aaaabab7          	lui	s5,0xaaaab
    25e8:	8a22                	mv	s4,s0
	for( btn = 0; btn < 4; btn++ )
    25ea:	4481                	li	s1,0
		if( *((uint32_t*)0x4fff0000) == 0xaaaaaaaa )
    25ec:	aaaa8a93          	addi	s5,s5,-1366 # aaaaaaaa <_eusrstack+0x8aaa7aaa>
	switch(mode) {
    25f0:	4521                	li	a0,8
    25f2:	839fe0ef          	jal	e2a <funPinMode.part.0>
    25f6:	10000513          	li	a0,256
    25fa:	831fe0ef          	jal	e2a <funPinMode.part.0>
    25fe:	20000513          	li	a0,512
    2602:	829fe0ef          	jal	e2a <funPinMode.part.0>
		switch( btn )
    2606:	47b2                	lw	a5,12(sp)
    2608:	0cf48063          	beq	s1,a5,26c8 <main+0x662>
    260c:	0db48763          	beq	s1,s11,26da <main+0x674>
    2610:	e889                	bnez	s1,2622 <main+0x5bc>
			funPinMode( PA8, GPIO_CFGLR_OUT_10Mhz_PP );
    2612:	10000513          	li	a0,256
    2616:	bddfe0ef          	jal	11f2 <funPinMode.constprop.0>
			funDigitalWrite( PA3, 1 );
    261a:	400017b7          	lui	a5,0x40001
    261e:	0b87ac23          	sw	s8,184(a5) # 400010b8 <_eusrstack+0x1fffe0b8>
		if( *((uint32_t*)0x4fff0000) == 0xaaaaaaaa )
    2622:	000b2783          	lw	a5,0(s6) # 4fff0000 <_eusrstack+0x2ffed000>
    2626:	0d579263          	bne	a5,s5,26ea <main+0x684>
			p = *((uint32_t*)(0x4fff0004+4*btn));
    262a:	00249793          	slli	a5,s1,0x2
    262e:	97da                	add	a5,a5,s6
    2630:	43dc                	lw	a5,4(a5)
		uint32_t fe = frameentropy;
    2632:	6b01a683          	lw	a3,1712(gp) # 20001450 <frameentropy>
		pressures[btn] = p;
    2636:	00fa2023          	sw	a5,0(s4)
	for( btn = 0; btn < 4; btn++ )
    263a:	0485                	addi	s1,s1,1 # 4000d001 <_eusrstack+0x2000a001>
		fe += p;
    263c:	97b6                	add	a5,a5,a3
		fe ^= fe << 10;
    263e:	00a79693          	slli	a3,a5,0xa
    2642:	8fb5                	xor	a5,a5,a3
		fe ^= fe << 21;
    2644:	01579693          	slli	a3,a5,0x15
    2648:	8fb5                	xor	a5,a5,a3
		frameentropy = fe;
    264a:	6af1a823          	sw	a5,1712(gp) # 20001450 <frameentropy>
	for( btn = 0; btn < 4; btn++ )
    264e:	4791                	li	a5,4
    2650:	0a11                	addi	s4,s4,4
    2652:	f8f49fe3          	bne	s1,a5,25f0 <main+0x58a>
		// TODO: Make this debounce.
		int i;
		uint32_t clickedMask = 0;
		for( i = 0; i < 3; i++ )
		{
			if( pressures[i] > 5000 ) clickedMask |= 1<<i;
    2656:	54a2                	lw	s1,40(sp)
    2658:	6785                	lui	a5,0x1
    265a:	38878793          	addi	a5,a5,904 # 1388 <mini_vpprintf+0xb4>
    265e:	5732                	lw	a4,44(sp)
    2660:	0097b4b3          	sltu	s1,a5,s1
    2664:	6785                	lui	a5,0x1
    2666:	38878793          	addi	a5,a5,904 # 1388 <mini_vpprintf+0xb4>
    266a:	00e7f463          	bgeu	a5,a4,2672 <main+0x60c>
    266e:	0024e493          	ori	s1,s1,2
    2672:	5742                	lw	a4,48(sp)
    2674:	00e7f463          	bgeu	a5,a4,267c <main+0x616>
    2678:	0044e493          	ori	s1,s1,4
		}

		unsigned now = SysTick->CNT;
    267c:	e000f7b7          	lui	a5,0xe000f
    2680:	0087aa03          	lw	s4,8(a5) # e000f008 <_eusrstack+0xc000c008>
		unsigned deltaUS = (now - lastStart)/48; // Wacky math to make sure we don't lose microseconds.
    2684:	03000793          	li	a5,48
    2688:	412a0a33          	sub	s4,s4,s2
    268c:	02fa5a33          	divu	s4,s4,a5
		//printf("%d,%d,%d\n",now,lastStart,deltaUS);
		if( gameUnion.template.Update )
    2690:	000ba783          	lw	a5,0(s7)
    2694:	cb81                	beqz	a5,26a4 <main+0x63e>
		{
			gameUnion.template.Update( &gameUnion, deltaUS, pressures, clickedMask, lastClickedMask );
    2696:	4722                	lw	a4,8(sp)
    2698:	86a6                	mv	a3,s1
    269a:	8622                	mv	a2,s0
    269c:	85d2                	mv	a1,s4
    269e:	6c418513          	addi	a0,gp,1732 # 20001464 <gameUnion>
    26a2:	9782                	jalr	a5
		}
		lastStart += deltaUS * 48;
    26a4:	03000793          	li	a5,48
    26a8:	02fa0a33          	mul	s4,s4,a5
    26ac:	9952                	add	s2,s2,s4
		frameno++;

		// EMULATOR ONLY! BB19 contains a pointer to an incoming packet.
		while( BB->BB19 )
    26ae:	4000ca37          	lui	s4,0x4000c
    26b2:	100a0a13          	addi	s4,s4,256 # 4000c100 <_eusrstack+0x20009100>
    26b6:	04ca2783          	lw	a5,76(s4)
    26ba:	e3b5                	bnez	a5,271e <main+0x6b8>

	int rssi = ReadRSSI();
	int len = frame[0];
	ISLERCallback( frame+2, frame+10, len+4, rssi );
}*/
		lastClickedMask = clickedMask;
    26bc:	c426                	sw	s1,8(sp)
	{
    26be:	b71d                	j	25e4 <main+0x57e>
		if(ssd1306_cmd(*cmd_list++))
    26c0:	0485                	addi	s1,s1,1
    26c2:	aa3fe0ef          	jal	1164 <ssd1306_cmd.isra.0>
    26c6:	b611                	j	21ca <main+0x164>
			funPinMode( PA9, GPIO_CFGLR_OUT_10Mhz_PP );
    26c8:	20000513          	li	a0,512
    26cc:	b27fe0ef          	jal	11f2 <funPinMode.constprop.0>
			funDigitalWrite( PA8, 1 );
    26d0:	400017b7          	lui	a5,0x40001
    26d4:	0b97ac23          	sw	s9,184(a5) # 400010b8 <_eusrstack+0x1fffe0b8>
			break;
    26d8:	b7a9                	j	2622 <main+0x5bc>
			funPinMode( PA3, GPIO_CFGLR_OUT_10Mhz_PP );
    26da:	4521                	li	a0,8
    26dc:	b17fe0ef          	jal	11f2 <funPinMode.constprop.0>
			funDigitalWrite( PA9, 1 );
    26e0:	400017b7          	lui	a5,0x40001
    26e4:	0ba7ac23          	sw	s10,184(a5) # 400010b8 <_eusrstack+0x1fffe0b8>
			break;
    26e8:	bf2d                	j	2622 <main+0x5bc>
			lastfifo = 0;
    26ea:	6a01ac23          	sw	zero,1720(gp) # 20001458 <lastfifo>
			EventRelease();
    26ee:	1fffe097          	auipc	ra,0x1fffe
    26f2:	912080e7          	jalr	-1774(ra) # 20000000 <EventRelease>
			while( !lastfifo && --to );
    26f6:	6785                	lui	a5,0x1
    26f8:	fa078793          	addi	a5,a5,-96 # fa0 <ssd1306_drawFastVLine.constprop.0+0x26>
    26fc:	6b81a683          	lw	a3,1720(gp) # 20001458 <lastfifo>
    2700:	e299                	bnez	a3,2706 <main+0x6a0>
    2702:	17fd                	addi	a5,a5,-1
    2704:	ffe5                	bnez	a5,26fc <main+0x696>
			int r = lastfifo - 2; // 2 cycles back.
    2706:	6b81a703          	lw	a4,1720(gp) # 20001458 <lastfifo>
			int vtot = COEFFICIENT/r + ((const uint32_t)(VREF*FIXEDPOINT_SCALE));
    270a:	0034e7b7          	lui	a5,0x34e
    270e:	f2878793          	addi	a5,a5,-216 # 34df28 <firmware.c.3f3d58ee+0x349940>
			int r = lastfifo - 2; // 2 cycles back.
    2712:	1779                	addi	a4,a4,-2 # 1ffffe <firmware.c.3f3d58ee+0x1fba16>
			int vtot = COEFFICIENT/r + ((const uint32_t)(VREF*FIXEDPOINT_SCALE));
    2714:	02e7d7b3          	divu	a5,a5,a4
    2718:	06978793          	addi	a5,a5,105
    271c:	bf19                	j	2632 <main+0x5cc>
			ISLER_BEANBOY_INTERNAL_CALLBACK();
    271e:	e16ff0ef          	jal	1d34 <ISLER_BEANBOY_INTERNAL_CALLBACK>
			BB->BB19 = 0;
    2722:	040a2623          	sw	zero,76(s4)
    2726:	bf41                	j	26b6 <main+0x650>

00002728 <ModeTestLoop>:
{
    2728:	1141                	addi	sp,sp,-16
    272a:	c606                	sw	ra,12(sp)
	CoreLoop();
    272c:	1fffe097          	auipc	ra,0x1fffe
    2730:	0da080e7          	jalr	218(ra) # 20000806 <CoreLoop>
    2734:	6150                	.insn	2, 0x6150
    2736:	74207373          	.insn	4, 0x74207373
    273a:	6568                	.insn	2, 0x6568
    273c:	5020                	lw	s0,96(s0)
    273e:	6675                	lui	a2,0x1d
    2740:	6566                	.insn	2, 0x6566
    2742:	2172                	.insn	2, 0x2172
    2744:	0000                	unimp
    2746:	0000                	unimp
    2748:	502d                	c.li	zero,-21
    274a:	6572                	.insn	2, 0x6572
    274c:	43207373          	.insn	4, 0x43207373
    2750:	7420                	.insn	2, 0x7420
    2752:	6f50206f          	j	5646 <firmware.c.3f3d58ee+0x105e>
    2756:	0000656b          	.insn	4, 0x656b
    275a:	0000                	unimp
    275c:	472d                	li	a4,11
    275e:	7465                	lui	s0,0xffff9
    2760:	7220                	.insn	2, 0x7220
    2762:	6469                	lui	s0,0x1a
    2764:	6f20                	.insn	2, 0x6f20
    2766:	2066                	.insn	2, 0x2066
    2768:	6968                	.insn	2, 0x6968
    276a:	006d                	c.nop	27
    276c:	6220                	.insn	2, 0x6220
    276e:	6665                	lui	a2,0x19
    2770:	2065726f          	jal	tp,59976 <firmware.c.3f3d58ee+0x5538e>
    2774:	6568                	.insn	2, 0x6568
    2776:	7020                	.insn	2, 0x7020
    2778:	2173706f          	j	3a18e <firmware.c.3f3d58ee+0x35ba6>
    277c:	0000                	unimp
    277e:	0000                	unimp
    2780:	502d                	c.li	zero,-21
    2782:	6572                	.insn	2, 0x6572
    2784:	52207373          	.insn	4, 0x52207373
    2788:	7420                	.insn	2, 0x7420
    278a:	7020006f          	j	2e8c <fontdata+0x5cc>
    278e:	616c                	.insn	2, 0x616c
    2790:	2079                	jal	281e <ModeTestLoop+0xf6>
    2792:	6761                	lui	a4,0x18
    2794:	6961                	lui	s2,0x18
    2796:	216e                	.insn	2, 0x216e
    2798:	0000                	unimp
    279a:	0000                	unimp
    279c:	656d6147          	.insn	4, 0x656d6147
    27a0:	4f20                	lw	s0,88(a4)
    27a2:	6576                	.insn	2, 0x6576
    27a4:	2172                	.insn	2, 0x2172
    27a6:	0000                	unimp
    27a8:	6f59                	lui	t5,0x16
    27aa:	7275                	lui	tp,0xffffd
    27ac:	5320                	lw	s0,96(a4)
    27ae:	65726f63          	bltu	tp,s7,2e0c <fontdata+0x54c>
    27b2:	003a                	c.slli	zero,0xe
    27b4:	6325                	lui	t1,0x9
    27b6:	7325                	lui	t1,0xfffe9
    27b8:	0000                	unimp
    27ba:	0000                	unimp
    27bc:	3025                	jal	1fe4 <SetupRegisterMap.isra.0+0x2>
    27be:	7832                	.insn	2, 0x7832
    27c0:	253a                	.insn	2, 0x253a
    27c2:	3230                	.insn	2, 0x3230
    27c4:	3a78                	.insn	2, 0x3a78
    27c6:	3025                	jal	1fee <SetupRegisterMap.isra.0+0xc>
    27c8:	7832                	.insn	2, 0x7832
    27ca:	253a                	.insn	2, 0x253a
    27cc:	3230                	.insn	2, 0x3230
    27ce:	3a78                	.insn	2, 0x3a78
    27d0:	3025                	jal	1ff8 <SetupRegisterMap.isra.0+0x16>
    27d2:	7832                	.insn	2, 0x7832
    27d4:	253a                	.insn	2, 0x253a
    27d6:	3230                	.insn	2, 0x3230
    27d8:	3a78                	.insn	2, 0x3a78
    27da:	3325                	jal	2502 <main+0x49c>
    27dc:	2064                	.insn	2, 0x2064
    27de:	6425                	lui	s0,0x9
    27e0:	003a                	c.slli	zero,0xe
    27e2:	0000                	unimp
    27e4:	3025                	jal	200c <SetupRegisterMap.isra.0+0x2a>
    27e6:	7832                	.insn	2, 0x7832
    27e8:	0020                	addi	s0,sp,8
    27ea:	0000                	unimp
    27ec:	3025                	jal	2014 <SetupRegisterMap.isra.0+0x32>
    27ee:	7838                	.insn	2, 0x7838
    27f0:	0000                	unimp
    27f2:	0000                	unimp
    27f4:	3325                	jal	251c <main+0x4b6>
    27f6:	2064                	.insn	2, 0x2064
    27f8:	6425                	lui	s0,0x9
    27fa:	0000                	unimp
    27fc:	bbaa                	.insn	2, 0xbbaa
    27fe:	ddcc                	sw	a1,60(a1)
    2800:	ffee                	.insn	2, 0xffee
    2802:	0000                	unimp
    2804:	7325                	lui	t1,0xfffe9
    2806:	4320                	lw	s0,64(a4)
    2808:	6e61                	lui	t3,0x18
    280a:	6f6e                	.insn	2, 0x6f6e
    280c:	2074                	.insn	2, 0x2074
    280e:	666e6f43          	.insn	4, 0x666e6f43
    2812:	6769                	lui	a4,0x1a
    2814:	7275                	lui	tp,0xffffd
    2816:	2065                	jal	28be <ModeTestLoop+0x196>
    2818:	2040                	.insn	2, 0x2040
    281a:	6425                	lui	s0,0x9
    281c:	000a                	c.slli	zero,0x2
    281e:	0000                	unimp
    2820:	534c                	lw	a1,36(a4)
    2822:	364d                	jal	23c4 <main+0x35e>
    2824:	5344                	lw	s1,36(a4)
    2826:	45522033          	.insn	4, 0x45522033
    282a:	00544553          	.insn	4, 0x00544553
    282e:	0000                	unimp
    2830:	4d51                	li	s10,20
    2832:	30333643          	.insn	4, 0x30333643
    2836:	2039                	jal	2844 <ModeTestLoop+0x11c>
    2838:	4552                	lw	a0,20(sp)
    283a:	00544553          	.insn	4, 0x00544553
    283e:	0000                	unimp
    2840:	534c                	lw	a1,36(a4)
    2842:	364d                	jal	23e4 <main+0x37e>
    2844:	5344                	lw	s1,36(a4)
    2846:	4d510033          	.insn	4, 0x4d510033
    284a:	30333643          	.insn	4, 0x30333643
    284e:	0039                	c.nop	14
    2850:	7546                	.insn	2, 0x7546
    2852:	6c6c                	.insn	2, 0x6c6c
    2854:	5320                	lw	s0,96(a4)
    2856:	25203a57          	.insn	4, 0x25203a57
    285a:	3630                	.insn	2, 0x3630
    285c:	0a78                	addi	a4,sp,284
    285e:	0000                	unimp
    2860:	534c                	lw	a1,36(a4)
    2862:	364d                	jal	2404 <main+0x39e>
    2864:	5344                	lw	s1,36(a4)
    2866:	764f2033          	.insn	4, 0x764f2033
    286a:	7265                	lui	tp,0xffff9
    286c:	6c66                	.insn	2, 0x6c66
    286e:	0000776f          	jal	a4,986e <firmware.c.3f3d58ee+0x5286>
    2872:	0000                	unimp
    2874:	3025                	jal	209c <main+0x36>
    2876:	7836                	.insn	2, 0x7836
    2878:	0020                	addi	s0,sp,8
    287a:	0000                	unimp
    287c:	3025                	jal	20a4 <main+0x3e>
    287e:	7834                	.insn	2, 0x7834
    2880:	0020                	addi	s0,sp,8
    2882:	0000                	unimp
    2884:	666e6f43          	.insn	4, 0x666e6f43
    2888:	7375                	lui	t1,0xffffd
    288a:	6e69                	lui	t3,0x1a
    288c:	61742067          	.insn	4, 0x61742067
    2890:	25203a67          	.insn	4, 0x25203a67
    2894:	0a64                	addi	s1,sp,284
    2896:	0000                	unimp
    2898:	654d                	lui	a0,0x13
    289a:	756e                	.insn	2, 0x756e
    289c:	0000                	unimp
    289e:	0000                	unimp
    28a0:	7845                	lui	a6,0xffff1
    28a2:	6d61                	lui	s10,0x18
    28a4:	6c70                	.insn	2, 0x6c70
    28a6:	0065                	c.nop	25
    28a8:	6554                	.insn	2, 0x6554
    28aa:	00007473          	.insn	4, 0x7473
    28ae:	0000                	unimp
    28b0:	7550                	.insn	2, 0x7550
    28b2:	6666                	.insn	2, 0x6666
    28b4:	7265                	lui	tp,0xffff9
    28b6:	0000                	unimp
    28b8:	74756853          	.insn	4, 0x74756853
    28bc:	6f42                	.insn	2, 0x6f42
    28be:	0078                	addi	a4,sp,12

000028c0 <fontdata>:
	...
    28c8:	817e 81a5 99bd 7e81 ff7e ffdb e7c3 7eff     ~......~~......~
    28d8:	fe6c fefe 387c 0010 3810 fe7c 387c 0010     l...|8...8|.|8..
    28e8:	7c38 fe38 d6fe 3810 3810 fe7c 7cfe 3810     8|8....8.8|..|.8
    28f8:	0000 3c18 183c 0000 ffff c3e7 e7c3 ffff     ...<<...........
    2908:	3c00 4266 6642 003c c3ff bd99 99bd ffc3     .<fBBf<.........
    2918:	070f 7d0f cccc 78cc 663c 6666 183c 187e     ...}...x<fff<.~.
    2928:	333f 303f 7030 e0f0 637f 637f 6763 c0e6     ?3?00p...c.ccg..
    2938:	db18 e73c 3ce7 18db e080 fef8 e0f8 0080     ..<..<..........
    2948:	0e02 fe3e 0e3e 0002 3c18 187e 7e18 183c     ..>.>....<~..~<.
    2958:	6666 6666 0066 0066 db7f 7bdb 1b1b 001b     fffff.f....{....
    2968:	613e 663c 3c66 7c86 0000 0000 7e7e 007e     >a<ff<.|....~~~.
    2978:	3c18 187e 3c7e ff18 3c18 187e 1818 0018     .<~.~<...<~.....
    2988:	1818 1818 3c7e 0018 1800 fe0c 180c 0000     ....~<..........
    2998:	3000 fe60 3060 0000 0000 c0c0 fec0 0000     .0`.`0..........
    29a8:	2400 ff66 2466 0000 1800 7e3c ffff 0000     .$f.f$....<~....
    29b8:	ff00 7eff 183c 0000 0000 0000 0000 0000     ...~<...........
    29c8:	3c18 183c 0018 0018 6666 0024 0000 0000     .<<.....ff$.....
    29d8:	6c6c 6cfe 6cfe 006c 3e18 3c60 7c06 0018     ll.l.ll..>`<.|..
    29e8:	c600 18cc 6630 00c6 6c38 7638 ccdc 0076     ....0f..8l8v..v.
    29f8:	1818 0030 0000 0000 180c 3030 1830 000c     ..0.......000...
    2a08:	1830 0c0c 180c 0030 6600 ff3c 663c 0000     0.....0..f<.<f..
    2a18:	1800 7e18 1818 0000 0000 0000 1800 3018     ...~...........0
    2a28:	0000 7e00 0000 0000 0000 0000 1800 0018     ...~............
    2a38:	0c06 3018 c060 0080 6c38 d6c6 6cc6 0038     ...0`...8l...l8.
    2a48:	3818 1818 1818 007e c67c 1c06 6630 00fe     .8....~.|...0f..
    2a58:	c67c 3c06 c606 007c 3c1c cc6c 0cfe 001e     |..<..|..<l.....
    2a68:	c0fe fcc0 c606 007c 6038 fcc0 c6c6 007c     ......|.8`....|.
    2a78:	c6fe 180c 3030 0030 c67c 7cc6 c6c6 007c     ....000.|..|..|.
    2a88:	c67c 7ec6 0c06 0078 1800 0018 1800 0018     |..~..x.........
    2a98:	1800 0018 1800 3018 0c06 3018 0c18 0006     .......0...0....
    2aa8:	0000 007e 7e00 0000 3060 0c18 3018 0060     ..~..~..`0...0`.
    2ab8:	c67c 180c 0018 0018 c67c dede c0de 0078     |.......|.....x.
    2ac8:	6c38 fec6 c6c6 00c6 66fc 7c66 6666 00fc     8l.......ff|ff..
    2ad8:	663c c0c0 66c0 003c 6cf8 6666 6c66 00f8     <f...f<..lfffl..
    2ae8:	62fe 7868 6268 00fe 62fe 7868 6068 00f0     .bhxhb...bhxh`..
    2af8:	663c c0c0 66ce 003a c6c6 fec6 c6c6 00c6     <f...f:.........
    2b08:	183c 1818 1818 003c 0c1e 0c0c cccc 0078     <.....<.......x.
    2b18:	66e6 786c 666c 00e6 60f0 6060 6662 00fe     .flxlf...```bf..
    2b28:	eec6 fefe c6d6 00c6 e6c6 def6 c6ce 00c6     ................
    2b38:	c67c c6c6 c6c6 007c 66fc 7c66 6060 00f0     |.....|..ff|``..
    2b48:	c67c c6c6 cec6 0e7c 66fc 7c66 666c 00e6     |.....|..ff|lf..
    2b58:	663c 1830 660c 003c 7e7e 185a 1818 003c     <f0..f<.~~Z...<.
    2b68:	c6c6 c6c6 c6c6 007c c6c6 c6c6 6cc6 0038     ......|......l8.
    2b78:	c6c6 d6c6 fed6 006c c6c6 386c c66c 00c6     ......l...l8l...
    2b88:	6666 3c66 1818 003c c6fe 188c 6632 00fe     fff<..<.....2f..
    2b98:	303c 3030 3030 003c 60c0 1830 060c 0002     <00000<..`0.....
    2ba8:	0c3c 0c0c 0c0c 003c 3810 c66c 0000 0000     <.....<..8l.....
    2bb8:	0000 0000 0000 ff00 1830 000c 0000 0000     ........0.......
    2bc8:	0000 0c78 cc7c 0076 60e0 667c 6666 00dc     ..x.|.v..`|fff..
    2bd8:	0000 c67c c6c0 007c 0c1c cc7c cccc 0076     ..|...|...|...v.
    2be8:	0000 c67c c0fe 007c 663c f860 6060 00f0     ..|...|.<f`.``..
    2bf8:	0000 cc76 7ccc f80c 60e0 766c 6666 00e6     ..v..|...`lvff..
    2c08:	0018 1838 1818 003c 0006 0606 6606 3c66     ..8...<......ff<
    2c18:	60e0 6c66 6c78 00e6 1838 1818 1818 003c     .`flxl..8.....<.
    2c28:	0000 feec d6d6 00d6 0000 66dc 6666 0066     ...........ffff.
    2c38:	0000 c67c c6c6 007c 0000 66dc 7c66 f060     ..|...|....ff|`.
    2c48:	0000 cc76 7ccc 1e0c 0000 76dc 6060 00f0     ..v..|.....v``..
    2c58:	0000 c07e 067c 00fc 3030 30fc 3630 001c     ..~.|...00.006..
    2c68:	0000 cccc cccc 0076 0000 c6c6 6cc6 0038     ......v......l8.
    2c78:	0000 d6c6 fed6 006c 0000 6cc6 6c38 00c6     ......l....l8l..
    2c88:	0000 c6c6 7ec6 fc06 0000 4c7e 3218 007e     .....~....~L.2~.
    2c98:	180e 7018 1818 000e 1818 1818 1818 0018     ...p............
    2ca8:	1870 0e18 1818 0070 dc76 0000 0000 0000     p.....p.v.......
    2cb8:	1000 6c38 c6c6 00fe c67c c0c0 7cc6 780c     ..8l....|....|.x
    2cc8:	00cc cccc cccc 0076 180c c67c c0fe 007c     ......v...|...|.
    2cd8:	827c 0c78 cc7c 0076 00c6 0c78 cc7c 0076     |.x.|.v...x.|.v.
    2ce8:	1830 0c78 cc7c 0076 3030 0c78 cc7c 0076     0.x.|.v.00x.|.v.
    2cf8:	0000 c07e 7ec0 380c 827c c67c c0fe 007c     ..~..~.8|.|...|.
    2d08:	00c6 c67c c0fe 007c 1830 c67c c0fe 007c     ..|...|.0.|...|.
    2d18:	0066 1838 1818 003c 827c 1838 1818 003c     f.8...<.|.8...<.
    2d28:	1830 3800 1818 003c 38c6 c66c c6fe 00c6     0..8..<..8l.....
    2d38:	6c38 c67c c6fe 00c6 3018 c0fe c0f8 00fe     8l|......0......
    2d48:	0000 187e d87e 007e 6c3e fecc cccc 00ce     ..~.~.~.>l......
    2d58:	827c c67c c6c6 007c 00c6 c67c c6c6 007c     |.|...|...|...|.
    2d68:	1830 c67c c6c6 007c 8478 cc00 cccc 0076     0.|...|.x.....v.
    2d78:	3060 cccc cccc 0076 00c6 c6c6 7ec6 fc06     `0....v......~..
    2d88:	38c6 c66c 6cc6 0038 00c6 c6c6 c6c6 007c     .8l..l8.......|.
    2d98:	1818 c07e 7ec0 1818 6c38 f064 6660 00fc     ..~..~..8ld.`f..
    2da8:	6666 7e3c 7e18 1818 ccf8 facc cfc6 c7c6     ff<~.~..........
    2db8:	1b0e 3c18 d818 0070 3018 0c78 cc7c 0076     ...<..p..0x.|.v.
    2dc8:	180c 3800 1818 003c 180c c67c c6c6 007c     ...8..<...|...|.
    2dd8:	3018 cccc cccc 0076 dc76 dc00 6666 0066     .0....v.v...fff.
    2de8:	dc76 e600 def6 00ce 6c3c 3e6c 7e00 0000     v.......<ll>.~..
    2df8:	6c38 386c 7c00 0000 0018 1818 6330 003e     8ll8.|......0c>.
    2e08:	0000 fe00 c0c0 0000 0000 fe00 0606 0000     ................
    2e18:	e663 7e6c 6633 0fcc e663 7a6c 6a36 06df     c.l~3f..c.lz6j..
    2e28:	0018 1818 3c3c 0018 3300 cc66 3366 0000     ....<<...3f.f3..
    2e38:	cc00 3366 cc66 0000 8822 8822 8822 8822     ..f3f...".".".".
    2e48:	aa55 aa55 aa55 aa55 dd77 dd77 dd77 dd77     U.U.U.U.w.w.w.w.
    2e58:	1818 1818 1818 1818 1818 1818 18f8 1818     ................
    2e68:	1818 18f8 18f8 1818 3636 3636 36f6 3636     ........6666.666
    2e78:	0000 0000 36fe 3636 0000 18f8 18f8 1818     .....666........
    2e88:	3636 06f6 36f6 3636 3636 3636 3636 3636     66...66666666666
    2e98:	0000 06fe 36f6 3636 3636 06f6 00fe 0000     .....66666......
    2ea8:	3636 3636 00fe 0000 1818 18f8 00f8 0000     6666............
    2eb8:	0000 0000 18f8 1818 1818 1818 001f 0000     ................
    2ec8:	1818 1818 00ff 0000 0000 0000 18ff 1818     ................
    2ed8:	1818 1818 181f 1818 0000 0000 00ff 0000     ................
    2ee8:	1818 1818 18ff 1818 1818 181f 181f 1818     ................
    2ef8:	3636 3636 3637 3636 3636 3037 003f 0000     666676666670?...
    2f08:	0000 303f 3637 3636 3636 00f7 00ff 0000     ..?0766666......
    2f18:	0000 00ff 36f7 3636 3636 3037 3637 3636     .....66666707666
    2f28:	0000 00ff 00ff 0000 3636 00f7 36f7 3636     ........66...666
    2f38:	1818 00ff 00ff 0000 3636 3636 00ff 0000     ........6666....
    2f48:	0000 00ff 18ff 1818 0000 0000 36ff 3636     .............666
    2f58:	3636 3636 003f 0000 1818 181f 001f 0000     6666?...........
    2f68:	0000 181f 181f 1818 0000 0000 363f 3636     ............?666
    2f78:	3636 3636 36ff 3636 1818 18ff 18ff 1818     6666.666........
    2f88:	1818 1818 00f8 0000 0000 0000 181f 1818     ................
    2f98:	ffff ffff ffff ffff 0000 0000 ffff ffff     ................
    2fa8:	f0f0 f0f0 f0f0 f0f0 0f0f 0f0f 0f0f 0f0f     ................
    2fb8:	ffff ffff 0000 0000 0000 dc76 dcc8 0076     ..........v...v.
    2fc8:	cc78 d8cc c6cc 00cc c6fe c0c0 c0c0 00c0     x...............
    2fd8:	0000 6cfe 6c6c 006c c6fe 3060 c660 00fe     ...llll...`0`...
    2fe8:	0000 d87e d8d8 0070 0000 6666 6666 c07c     ..~...p...ffff|.
    2ff8:	7600 18dc 1818 0018 187e 663c 3c66 7e18     .v......~.<ff<.~
    3008:	6c38 fec6 6cc6 0038 6c38 c6c6 6c6c 00ee     8l...l8.8l..ll..
    3018:	180e 3e0c 6666 003c 0000 db7e 7edb 0000     ...>ff<...~..~..
    3028:	0c06 db7e 7edb c060 301e 7e60 3060 001e     ..~..~`..0`~`0..
    3038:	7c00 c6c6 c6c6 00c6 fe00 fe00 fe00 0000     .|..............
    3048:	1818 187e 0018 007e 1830 180c 0030 007e     ..~...~.0...0.~.
    3058:	180c 1830 000c 007e 1b0e 181b 1818 1818     ..0...~.........
    3068:	1818 1818 d818 70d8 1800 7e00 1800 0000     .......p...~....
    3078:	7600 00dc dc76 0000 6c38 386c 0000 0000     .v..v...8ll8....
    3088:	0000 1800 0018 0000 0000 1800 0000 0000     ................
    3098:	0c0f 0c0c 6cec 1c3c 366c 3636 0036 0000     .....l<.l6666...
    30a8:	0c78 3018 007c 0000 0000 3c3c 3c3c 0000     x..0|.....<<<<..
	...

000030c0 <LSM6DS3Regmap.1>:
    30c0:	4412 5a10 5d11 280a 6006 0007 0908 aa09     .D.Z.].(.`......
    30d0:	010a 600b 000d 0013 1015 0016 0113 0000     ...`............

000030e0 <ssd1306_init_array>:
    30e0:	00ae b010 00dc 6f81 a421 7fa8 00d3 f0d5     .......o!.......
    30f0:	1dd9 35db ad40 a080 d901 8106 dbfe a8fe     ...5@...........
    3100:	af7f 00ff                                   ....

00003104 <gameModes>:
    3104:	2898 0000 28a0 0000 28a8 0000 28b0 0000     .(...(...(...(..
    3114:	28b8 0000                                   .(..

00003118 <channel_map>:
    3118:	0201 0403 0605 0807 0a09 0d0c 0f0e 1110     ................
    3128:	1312 1514 1716 1918 1b1a 1d1c 1f1e 2120     .............. !
    3138:	2322 2524 0026 270b                         "#$%&..'
