
firmware.elf:     file format elf32-littleriscv


Disassembly of section .init:

00000000 <InterruptVector>:
	void InterruptVector()         __attribute__((naked)) __attribute((section(".init"))) __attribute((weak,alias("InterruptVectorDefault"))) __attribute((naked));
	void InterruptVectorDefault()  __attribute__((naked)) __attribute((section(".init"))) __attribute((naked));
	void InterruptVectorDefault( void )
	{
		#if !defined(FUNCONF_TINYVECTOR) || !FUNCONF_TINYVECTOR
			asm volatile( DEFAULT_INTERRUPT_VECTOR_CONTENTS );
   0:	2c10006f          	j	ac0 <handle_reset>
   4:	00000000          	.word	0x00000000
   8:	00000b74          	.word	0x00000b74
   c:	00000b74          	.word	0x00000b74
  10:	f3f9bda9          	.word	0xf3f9bda9
  14:	00000b74          	.word	0x00000b74
	...
  20:	00000b74          	.word	0x00000b74
  24:	00000b74          	.word	0x00000b74
	...
  30:	00000b74          	.word	0x00000b74
  34:	00000000          	.word	0x00000000
  38:	00000b74          	.word	0x00000b74
  3c:	00000000          	.word	0x00000000
  40:	00000b74          	.word	0x00000b74
  44:	00000b74          	.word	0x00000b74
  48:	00000b74          	.word	0x00000b74
  4c:	00000b74          	.word	0x00000b74
  50:	00000b74          	.word	0x00000b74
  54:	00001102          	.word	0x00001102
  58:	00000b74          	.word	0x00000b74
  5c:	00000000          	.word	0x00000000
  60:	200002b0          	.word	0x200002b0
  64:	00000b74          	.word	0x00000b74
  68:	00000b74          	.word	0x00000b74
  6c:	00000b74          	.word	0x00000b74
  70:	00000b74          	.word	0x00000b74
  74:	00000b74          	.word	0x00000b74
  78:	00000b74          	.word	0x00000b74
  7c:	00000b74          	.word	0x00000b74
  80:	00000b74          	.word	0x00000b74
  84:	00000b74          	.word	0x00000b74
  88:	00000b74          	.word	0x00000b74
  8c:	00000b74          	.word	0x00000b74

Disassembly of section .highcode:

20000000 <iSLERRSSI>:
__HIGH_CODE
int iSLERRSSI() {
#ifdef CH570_CH572
	uint8_t *tx_buf = (uint8_t*)LLE_BUF;
	int len = tx_buf[1];
	return (int8_t)tx_buf[len +4];
20000000:	eb11c783          	lbu	a5,-335(gp) # 2000053d <LLE_BUF+0x1>
20000004:	eb418713          	addi	a4,gp,-332 # 20000540 <LLE_BUF+0x4>
20000008:	97ba                	add	a5,a5,a4
#else
	return (int8_t)(BB->RSSI >> 0xf);
#endif
}
2000000a:	00078503          	lb	a0,0(a5)
2000000e:	8082                	ret

20000010 <iSLERCRCOK>:
__HIGH_CODE
int iSLERCRCOK() {
#ifdef CH570_CH572
	uint8_t *tx_buf = (uint8_t*)LLE_BUF;
	int len = tx_buf[1];
	return (int8_t)!(tx_buf[len + 5] & 0x10);
20000010:	eb11c783          	lbu	a5,-335(gp) # 2000053d <LLE_BUF+0x1>
20000014:	eb518713          	addi	a4,gp,-331 # 20000541 <LLE_BUF+0x5>
20000018:	97ba                	add	a5,a5,a4
2000001a:	0007c503          	lbu	a0,0(a5)
2000001e:	8111                	srli	a0,a0,0x4
20000020:	8905                	andi	a0,a0,1
#else
	// Unimplemented!
	return -1;
#endif
}
20000022:	00154513          	xori	a0,a0,1
20000026:	8082                	ret

20000028 <iSLERTX>:

__HIGH_CODE
void iSLERTX(uint32_t access_address, uint8_t adv[], size_t len, uint8_t channel, uint8_t phy_mode) {
20000028:	1101                	addi	sp,sp,-32
2000002a:	ca26                	sw	s1,20(sp)
	BB->CTRL_TX = (BB->CTRL_TX & 0xfffffffc) | 1;
2000002c:	4000c4b7          	lui	s1,0x4000c
20000030:	10048493          	addi	s1,s1,256 # 4000c100 <_eusrstack+0x20009100>
20000034:	58dc                	lw	a5,52(s1)
void iSLERTX(uint32_t access_address, uint8_t adv[], size_t len, uint8_t channel, uint8_t phy_mode) {
20000036:	ce06                	sw	ra,28(sp)
20000038:	cc22                	sw	s0,24(sp)
	BB->CTRL_TX = (BB->CTRL_TX & 0xfffffffc) | 1;
2000003a:	9bf1                	andi	a5,a5,-4
2000003c:	0017e793          	ori	a5,a5,1
void iSLERTX(uint32_t access_address, uint8_t adv[], size_t len, uint8_t channel, uint8_t phy_mode) {
20000040:	c84a                	sw	s2,16(sp)
20000042:	c64e                	sw	s3,12(sp)
20000044:	c452                	sw	s4,8(sp)
20000046:	89aa                	mv	s3,a0
	BB->CTRL_TX = (BB->CTRL_TX & 0xfffffffc) | 1;
20000048:	d8dc                	sw	a5,52(s1)

	DevSetChannel(channel);
2000004a:	8536                	mv	a0,a3
void iSLERTX(uint32_t access_address, uint8_t adv[], size_t len, uint8_t channel, uint8_t phy_mode) {
2000004c:	8a2e                	mv	s4,a1
2000004e:	843a                	mv	s0,a4
20000050:	8932                	mv	s2,a2
	DevSetChannel(channel);
20000052:	584000e7          	jalr	1412(zero) # 584 <DevSetChannel>

	// Uncomment to disable whitening to debug RF.
	//BB->CTRL_CFG |= (1<<6);
	DevSetMode(DEVSETMODE_TX);
20000056:	25800513          	li	a0,600
2000005a:	4b8000e7          	jalr	1208(zero) # 4b8 <DevSetMode>

	BB->ACCESSADDRESS1 = access_address; // access address
	BB->CRCINIT1 = 0x555555; // crc init
2000005e:	005557b7          	lui	a5,0x555
	BB->ACCESSADDRESS1 = access_address; // access address
20000062:	0134a623          	sw	s3,12(s1)
	BB->CRCINIT1 = 0x555555; // crc init
20000066:	55578793          	addi	a5,a5,1365 # 555555 <firmware.c.cec90121+0x551fdd>
2000006a:	c0dc                	sw	a5,4(s1)
#ifdef CH570_CH572
	BB->ACCESSADDRESS2 = access_address;
2000006c:	0734a023          	sw	s3,96(s1)
	BB->CRCINIT2 = 0x555555;
20000070:	ccbc                	sw	a5,88(s1)
	BB->CRCPOLY1 = (BB->CRCPOLY1 & 0xff000000) | 0x80032d; // crc poly
20000072:	449c                	lw	a5,8(s1)
20000074:	ff0006b7          	lui	a3,0xff000
20000078:	00800737          	lui	a4,0x800
2000007c:	32d70713          	addi	a4,a4,813 # 80032d <firmware.c.cec90121+0x7fcdb5>
20000080:	8ff5                	and	a5,a5,a3
20000082:	8fd9                	or	a5,a5,a4
20000084:	c49c                	sw	a5,8(s1)
	BB->CRCPOLY2 = (BB->CRCPOLY2 & 0xff000000) | 0x80032d;
20000086:	4cfc                	lw	a5,92(s1)
20000088:	8ff5                	and	a5,a5,a3
2000008a:	8fd9                	or	a5,a5,a4
2000008c:	ccfc                	sw	a5,92(s1)
#endif

#if defined(CH571_CH573)
	DMA->TXBUF = (uint32_t)adv;
#else
	LL->TXBUF = (uint32_t)adv;
2000008e:	4000c7b7          	lui	a5,0x4000c
20000092:	20078793          	addi	a5,a5,512 # 4000c200 <_eusrstack+0x20009200>
20000096:	0747ac23          	sw	s4,120(a5)
#endif

	// Wait for tuning bit to clear.
	for( int timeout = 3000; !(RF->RF26 & 0x1000000) && timeout >= 0; timeout-- );
2000009a:	6785                	lui	a5,0x1
2000009c:	bba78793          	addi	a5,a5,-1094 # bba <mini_vpprintf+0x32>
200000a0:	4000d737          	lui	a4,0x4000d
200000a4:	5734                	lw	a3,104(a4)
200000a6:	00769613          	slli	a2,a3,0x7
200000aa:	00064463          	bltz	a2,200000b2 <iSLERTX+0x8a>
200000ae:	17fd                	addi	a5,a5,-1
200000b0:	fbf5                	bnez	a5,200000a4 <iSLERTX+0x7c>
		BB->CTRL_CFG = (BB->CTRL_CFG & 0xffff3fff) | ((phy_mode == PHY_S2) ? 0x4000 : 0);
	}
#elif defined(CH571_CH573)
	BB->CTRL_CFG = CTRL_CFG_PHY_1M; // no 2M PHY on ch571/3
#else
	BB->CTRL_CFG = (phy_mode == PHY_2M) ? CTRL_CFG_PHY_2M:
200000b2:	4000c7b7          	lui	a5,0x4000c
200000b6:	4709                	li	a4,2
200000b8:	10078793          	addi	a5,a5,256 # 4000c100 <_eusrstack+0x20009100>
200000bc:	08e41663          	bne	s0,a4,20000148 <iSLERTX+0x120>
200000c0:	4398                	lw	a4,0(a5)
200000c2:	cff77713          	andi	a4,a4,-769
200000c6:	4000c7b7          	lui	a5,0x4000c
200000ca:	10078793          	addi	a5,a5,256 # 4000c100 <_eusrstack+0x20009100>
200000ce:	c398                	sw	a4,0(a5)
										  CTRL_CFG_PHY_1M; // default 1M for now
#endif

#if defined(CH570_CH572)
	BB->BB9 = (BB->BB9 & 0xf9ffffff) | ((phy_mode == PHY_2M) ? 0 : 0x2000000);
200000d0:	53d8                	lw	a4,36(a5)
200000d2:	1479                	addi	s0,s0,-2
200000d4:	fa0006b7          	lui	a3,0xfa000
200000d8:	16fd                	addi	a3,a3,-1 # f9ffffff <_eusrstack+0xd9ffcfff>
200000da:	00803433          	snez	s0,s0
200000de:	8f75                	and	a4,a4,a3
200000e0:	0466                	slli	s0,s0,0x19
200000e2:	8c59                	or	s0,s0,a4
200000e4:	d3c0                	sw	s0,36(a5)
#if defined(CH571_CH573)
	BB->BB11 = (BB->BB11 & 0xfffffffc); // |2 for RX
#endif

	// This clears bit 17 (If set, seems to have no impact.)
	LL->LL4 &= 0xfffdffff;
200000e6:	4000c437          	lui	s0,0x4000c
200000ea:	20040413          	addi	s0,s0,512 # 4000c200 <_eusrstack+0x20009200>
200000ee:	4818                	lw	a4,16(s0)
200000f0:	7681                	lui	a3,0xfffe0
200000f2:	16fd                	addi	a3,a3,-1 # fffdffff <_eusrstack+0xdffdcfff>
200000f4:	8f75                	and	a4,a4,a3
200000f6:	c818                	sw	a4,16(s0)

#if !defined(CH571_CH573)
	LL->STATUS = LL_STATUS_TX;
200000f8:	00020737          	lui	a4,0x20
200000fc:	c418                	sw	a4,8(s0)
#endif
	LL->TMR = (uint32_t)(len *512); // needs optimisation, per phy mode
200000fe:	0926                	slli	s2,s2,0x9
20000100:	07242223          	sw	s2,100(s0)

	BB->CTRL_CFG |= CTRL_CFG_START_TX;
20000104:	4398                	lw	a4,0(a5)
20000106:	010006b7          	lui	a3,0x1000
2000010a:	8f55                	or	a4,a4,a3
2000010c:	c398                	sw	a4,0(a5)
	BB->CTRL_TX &= 0xfffffffc;
2000010e:	5bd8                	lw	a4,52(a5)
20000110:	9b71                	andi	a4,a4,-4
20000112:	dbd8                	sw	a4,52(a5)

	LL->LL0 = 2; // Not sure what this does, but on RX it's 1
20000114:	4789                	li	a5,2
20000116:	c01c                	sw	a5,0(s0)

	while(LL->TMR); // wait for tx buffer to empty
20000118:	507c                	lw	a5,100(s0)
2000011a:	fffd                	bnez	a5,20000118 <iSLERTX+0xf0>
	DevSetMode(0);
2000011c:	4501                	li	a0,0
2000011e:	4b8000e7          	jalr	1208(zero) # 4b8 <DevSetMode>
	if(LL->LL0 & 3) {
20000122:	401c                	lw	a5,0(s0)
20000124:	8b8d                	andi	a5,a5,3
20000126:	cb89                	beqz	a5,20000138 <iSLERTX+0x110>
		LL->CTRL_MOD &= CTRL_MOD_RFSTOP;
20000128:	483c                	lw	a5,80(s0)
2000012a:	8ff7f793          	andi	a5,a5,-1793
2000012e:	c83c                	sw	a5,80(s0)
		LL->LL0 |= 0x08;
20000130:	401c                	lw	a5,0(s0)
20000132:	0087e793          	ori	a5,a5,8
20000136:	c01c                	sw	a5,0(s0)
	}
}
20000138:	40f2                	lw	ra,28(sp)
2000013a:	4462                	lw	s0,24(sp)
2000013c:	44d2                	lw	s1,20(sp)
2000013e:	4942                	lw	s2,16(sp)
20000140:	49b2                	lw	s3,12(sp)
20000142:	4a22                	lw	s4,8(sp)
20000144:	6105                	addi	sp,sp,32
20000146:	8082                	ret
										  CTRL_CFG_PHY_1M; // default 1M for now
20000148:	4398                	lw	a4,0(a5)
2000014a:	cff77713          	andi	a4,a4,-769
	BB->CTRL_CFG = (phy_mode == PHY_2M) ? CTRL_CFG_PHY_2M:
2000014e:	10076713          	ori	a4,a4,256
20000152:	bf95                	j	200000c6 <iSLERTX+0x9e>

20000154 <iSLERRX>:

__HIGH_CODE
void iSLERRX(uint32_t access_address, uint8_t channel, uint8_t phy_mode) {
20000154:	1141                	addi	sp,sp,-16
20000156:	c226                	sw	s1,4(sp)
20000158:	84aa                	mv	s1,a0
	DevSetMode(0);
2000015a:	4501                	li	a0,0
void iSLERRX(uint32_t access_address, uint8_t channel, uint8_t phy_mode) {
2000015c:	c422                	sw	s0,8(sp)
2000015e:	c04a                	sw	s2,0(sp)
20000160:	c606                	sw	ra,12(sp)
20000162:	892e                	mv	s2,a1
20000164:	8432                	mv	s0,a2
	DevSetMode(0);
20000166:	4b8000e7          	jalr	1208(zero) # 4b8 <DevSetMode>
	if(LL->LL0 & 3) {
2000016a:	4000c7b7          	lui	a5,0x4000c
2000016e:	20078793          	addi	a5,a5,512 # 4000c200 <_eusrstack+0x20009200>
20000172:	4398                	lw	a4,0(a5)
20000174:	8b0d                	andi	a4,a4,3
20000176:	cb09                	beqz	a4,20000188 <iSLERRX+0x34>
		LL->CTRL_MOD &= CTRL_MOD_RFSTOP;
20000178:	4bb8                	lw	a4,80(a5)
2000017a:	8ff77713          	andi	a4,a4,-1793
2000017e:	cbb8                	sw	a4,80(a5)
		LL->LL0 |= 0x08;
20000180:	4398                	lw	a4,0(a5)
20000182:	00876713          	ori	a4,a4,8
20000186:	c398                	sw	a4,0(a5)
	}
	LL->TMR = 0;
20000188:	4000c7b7          	lui	a5,0x4000c
2000018c:	20078793          	addi	a5,a5,512 # 4000c200 <_eusrstack+0x20009200>
20000190:	0607a223          	sw	zero,100(a5)

	DevSetChannel(channel);
20000194:	854a                	mv	a0,s2
20000196:	584000e7          	jalr	1412(zero) # 584 <DevSetChannel>
	DevSetMode(DEVSETMODE_RX);
2000019a:	15800513          	li	a0,344
2000019e:	4b8000e7          	jalr	1208(zero) # 4b8 <DevSetMode>
		BB->CTRL_CFG = (BB->CTRL_CFG & 0xffff3fff) | ((phy_mode == PHY_S2) ? 0x4000 : 0);
	}
#elif defined(CH571_CH573)
	BB->CTRL_CFG = CTRL_CFG_PHY_1M; // no 2M PHY on ch571/3
#else
	BB->CTRL_CFG = (phy_mode == PHY_2M) ? CTRL_CFG_PHY_2M:
200001a2:	4000c7b7          	lui	a5,0x4000c
200001a6:	10078793          	addi	a5,a5,256 # 4000c100 <_eusrstack+0x20009100>
200001aa:	439c                	lw	a5,0(a5)
200001ac:	4709                	li	a4,2
200001ae:	cff7f793          	andi	a5,a5,-769
200001b2:	0ce41863          	bne	s0,a4,20000282 <iSLERRX+0x12e>
200001b6:	4000c737          	lui	a4,0x4000c
200001ba:	10070713          	addi	a4,a4,256 # 4000c100 <_eusrstack+0x20009100>
200001be:	c31c                	sw	a5,0(a4)
										  CTRL_CFG_PHY_1M; // default 1M for now
#endif

#ifdef CH570_CH572
	BB->BB9 = (BB->BB9 & 0xf9ffffff) | ((phy_mode == PHY_2M) ? 0 : 0x2000000);
200001c0:	5354                	lw	a3,36(a4)
200001c2:	ffe40793          	addi	a5,s0,-2
200001c6:	fa000637          	lui	a2,0xfa000
200001ca:	00f037b3          	snez	a5,a5
200001ce:	167d                	addi	a2,a2,-1 # f9ffffff <_eusrstack+0xd9ffcfff>
200001d0:	07e6                	slli	a5,a5,0x19
200001d2:	8ef1                	and	a3,a3,a2
200001d4:	8fd5                	or	a5,a5,a3
200001d6:	d35c                	sw	a5,36(a4)
	RF->RF20 = (RF->RF20 & 0xffffffe0) | ((phy_mode == PHY_2M) ? (tuneFilter2M & 0x1f) : (tuneFilter & 0x1f));
200001d8:	4000d7b7          	lui	a5,0x4000d
200001dc:	4bbc                	lw	a5,80(a5)
200001de:	fe07f713          	andi	a4,a5,-32
200001e2:	4789                	li	a5,2
200001e4:	0af41263          	bne	s0,a5,20000288 <iSLERRX+0x134>
200001e8:	ea01a783          	lw	a5,-352(gp) # 2000052c <tuneFilter2M>
200001ec:	8bfd                	andi	a5,a5,31
200001ee:	8fd9                	or	a5,a5,a4
200001f0:	4000d737          	lui	a4,0x4000d
200001f4:	cb3c                	sw	a5,80(a4)
	BB->BB5 = (BB->BB5 & 0xffffffc0) | ((phy_mode == PHY_2M) ? 0xd : 0xb);
200001f6:	4000c7b7          	lui	a5,0x4000c
200001fa:	10078793          	addi	a5,a5,256 # 4000c100 <_eusrstack+0x20009100>
200001fe:	4bd8                	lw	a4,20(a5)
20000200:	4609                	li	a2,2
20000202:	46ad                	li	a3,11
20000204:	fc077713          	andi	a4,a4,-64
20000208:	00c41363          	bne	s0,a2,2000020e <iSLERRX+0xba>
2000020c:	46b5                	li	a3,13
2000020e:	8f55                	or	a4,a4,a3
20000210:	cbd8                	sw	a4,20(a5)
	BB->BB7 = (BB->BB7 & 0xff00fc00) | ((phy_mode == PHY_2M) ? 0x7f00a0 : 0x79009c);
20000212:	4fd8                	lw	a4,28(a5)
20000214:	ff0107b7          	lui	a5,0xff010
20000218:	c0078793          	addi	a5,a5,-1024 # ff00fc00 <_eusrstack+0xdf00cc00>
2000021c:	8f7d                	and	a4,a4,a5
2000021e:	4689                	li	a3,2
20000220:	007907b7          	lui	a5,0x790
20000224:	09c78793          	addi	a5,a5,156 # 79009c <firmware.c.cec90121+0x78cb24>
20000228:	00d41663          	bne	s0,a3,20000234 <iSLERRX+0xe0>
2000022c:	007f07b7          	lui	a5,0x7f0
20000230:	0a078793          	addi	a5,a5,160 # 7f00a0 <firmware.c.cec90121+0x7ecb28>
20000234:	8f5d                	or	a4,a4,a5
20000236:	4000c7b7          	lui	a5,0x4000c
2000023a:	10078793          	addi	a5,a5,256 # 4000c100 <_eusrstack+0x20009100>
2000023e:	cfd8                	sw	a4,28(a5)
	BB->BB6 = (BB->BB6 & 0xfffffc00) | ((phy_mode == PHY_2M) ? 0x13a : 0x132);
	BB->BB4 = (BB->BB4 & 0x00ffffff) | ((phy_mode == PHY_2M) ? 0x78000000 : 0x7f000000);
#endif

	BB->ACCESSADDRESS1 = access_address; // access address
	BB->CRCINIT1 = 0x555555; // crc init
20000240:	00555737          	lui	a4,0x555
	BB->ACCESSADDRESS1 = access_address; // access address
20000244:	c7c4                	sw	s1,12(a5)
	BB->CRCINIT1 = 0x555555; // crc init
20000246:	55570713          	addi	a4,a4,1365 # 555555 <firmware.c.cec90121+0x551fdd>
2000024a:	c3d8                	sw	a4,4(a5)
#ifdef CH570_CH572
	BB->ACCESSADDRESS2 = access_address;
2000024c:	d3a4                	sw	s1,96(a5)
	BB->CRCINIT2 = 0x555555;
2000024e:	cfb8                	sw	a4,88(a5)
	BB->CRCPOLY1 = (BB->CRCPOLY1 & 0xff000000) | 0x80032d; // crc poly
20000250:	4798                	lw	a4,8(a5)
20000252:	ff000637          	lui	a2,0xff000
20000256:	008006b7          	lui	a3,0x800
2000025a:	32d68693          	addi	a3,a3,813 # 80032d <firmware.c.cec90121+0x7fcdb5>
2000025e:	8f71                	and	a4,a4,a2
20000260:	8f55                	or	a4,a4,a3
20000262:	c798                	sw	a4,8(a5)
	BB->CRCPOLY2 = (BB->CRCPOLY2 & 0xff000000) | 0x80032d;
20000264:	4ff8                	lw	a4,92(a5)

	LL->LL0 = 1; // Not sure what this does, but on TX it's 2
#ifndef ISLER_CALLBACK
	rx_ready = 0;
#endif
}
20000266:	40b2                	lw	ra,12(sp)
20000268:	4422                	lw	s0,8(sp)
	BB->CRCPOLY2 = (BB->CRCPOLY2 & 0xff000000) | 0x80032d;
2000026a:	8f71                	and	a4,a4,a2
2000026c:	8f55                	or	a4,a4,a3
2000026e:	cff8                	sw	a4,92(a5)
	LL->LL0 = 1; // Not sure what this does, but on TX it's 2
20000270:	4000c7b7          	lui	a5,0x4000c
20000274:	4705                	li	a4,1
20000276:	20e7a023          	sw	a4,512(a5) # 4000c200 <_eusrstack+0x20009200>
}
2000027a:	4492                	lw	s1,4(sp)
2000027c:	4902                	lw	s2,0(sp)
2000027e:	0141                	addi	sp,sp,16
20000280:	8082                	ret
	BB->CTRL_CFG = (phy_mode == PHY_2M) ? CTRL_CFG_PHY_2M:
20000282:	1007e793          	ori	a5,a5,256
20000286:	bf05                	j	200001b6 <iSLERRX+0x62>
	RF->RF20 = (RF->RF20 & 0xffffffe0) | ((phy_mode == PHY_2M) ? (tuneFilter2M & 0x1f) : (tuneFilter & 0x1f));
20000288:	e9c1a783          	lw	a5,-356(gp) # 20000528 <tuneFilter>
2000028c:	b785                	j	200001ec <iSLERRX+0x98>
	...

Disassembly of section .text:

00000320 <mini_pad>:
	if(pad_to == 0) pad_to = len;
     320:	c699                	beqz	a3,32e <mini_pad+0xe>
	int overflow = 0;
     322:	4801                	li	a6,0
	if(len > pad_to) {
     324:	00b6d763          	bge	a3,a1,332 <mini_pad+0x12>
		len = pad_to;
     328:	85b6                	mv	a1,a3
		overflow = 1;
     32a:	4805                	li	a6,1
     32c:	a019                	j	332 <mini_pad+0x12>
	int overflow = 0;
     32e:	4801                	li	a6,0
	if(pad_to == 0) pad_to = len;
     330:	86ae                	mv	a3,a1
	for(i = pad_to - len; i > 0; i --) {
     332:	8e8d                	sub	a3,a3,a1
	char * pbuffer = buffer;
     334:	87ba                	mv	a5,a4
     336:	00e68333          	add	t1,a3,a4
	for(i = pad_to - len; i > 0; i --) {
     33a:	40f308b3          	sub	a7,t1,a5
     33e:	05104a63          	bgtz	a7,392 <mini_pad+0x72>
     342:	fff6c793          	not	a5,a3
     346:	87fd                	srai	a5,a5,0x1f
     348:	8efd                	and	a3,a3,a5
     34a:	96ba                	add	a3,a3,a4
     34c:	4781                	li	a5,0
	for(i = len; i > 0; i --) {
     34e:	40f58633          	sub	a2,a1,a5
     352:	00f688b3          	add	a7,a3,a5
     356:	04c04263          	bgtz	a2,39a <mini_pad+0x7a>
     35a:	fff5c793          	not	a5,a1
     35e:	87fd                	srai	a5,a5,0x1f
     360:	8dfd                	and	a1,a1,a5
     362:	95b6                	add	a1,a1,a3
	len = pbuffer - buffer;
     364:	40e58533          	sub	a0,a1,a4
	if(overflow) {
     368:	02080463          	beqz	a6,390 <mini_pad+0x70>
		for (i = 0; i < 3 && pbuffer > buffer; i ++) {
     36c:	02b77263          	bgeu	a4,a1,390 <mini_pad+0x70>
			*(pbuffer-- - 1) = '*';
     370:	02a00793          	li	a5,42
     374:	fef58fa3          	sb	a5,-1(a1)
     378:	fff58693          	addi	a3,a1,-1
		for (i = 0; i < 3 && pbuffer > buffer; i ++) {
     37c:	00d77a63          	bgeu	a4,a3,390 <mini_pad+0x70>
			*(pbuffer-- - 1) = '*';
     380:	fef58f23          	sb	a5,-2(a1)
     384:	ffe58693          	addi	a3,a1,-2
		for (i = 0; i < 3 && pbuffer > buffer; i ++) {
     388:	00d77463          	bgeu	a4,a3,390 <mini_pad+0x70>
			*(pbuffer-- - 1) = '*';
     38c:	fef58ea3          	sb	a5,-3(a1)
}
     390:	8082                	ret
		*(pbuffer++) = pad_char;
     392:	0785                	addi	a5,a5,1
     394:	fec78fa3          	sb	a2,-1(a5)
	for(i = pad_to - len; i > 0; i --) {
     398:	b74d                	j	33a <mini_pad+0x1a>
		*(pbuffer++) = *(ptr++);
     39a:	00f50633          	add	a2,a0,a5
     39e:	00064603          	lbu	a2,0(a2) # ff000000 <_eusrstack+0xdeffd000>
     3a2:	0785                	addi	a5,a5,1
     3a4:	00c88023          	sb	a2,0(a7)
	for(i = len; i > 0; i --) {
     3a8:	b75d                	j	34e <mini_pad+0x2e>

000003aa <_puts>:
{
     3aa:	86aa                	mv	a3,a0
     3ac:	852e                	mv	a0,a1
	if(!buf) return len;
     3ae:	ce01                	beqz	a2,3c6 <_puts+0x1c>
	char * p0 = b->buffer;
     3b0:	00062883          	lw	a7,0(a2)
	for (i = 0; i < len; i++) {
     3b4:	4701                	li	a4,0
		if(b->pbuffer == b->buffer + b->buffer_len - 1) {
     3b6:	425c                	lw	a5,4(a2)
	for (i = 0; i < len; i++) {
     3b8:	00a74863          	blt	a4,a0,3c8 <_puts+0x1e>
	*(b->pbuffer) = 0;
     3bc:	00078023          	sb	zero,0(a5)
	return b->pbuffer - p0;
     3c0:	4248                	lw	a0,4(a2)
     3c2:	41150533          	sub	a0,a0,a7
}
     3c6:	8082                	ret
		if(b->pbuffer == b->buffer + b->buffer_len - 1) {
     3c8:	00862803          	lw	a6,8(a2)
     3cc:	420c                	lw	a1,0(a2)
     3ce:	187d                	addi	a6,a6,-1
     3d0:	95c2                	add	a1,a1,a6
     3d2:	feb785e3          	beq	a5,a1,3bc <_puts+0x12>
		*(b->pbuffer ++) = s[i];
     3d6:	00178593          	addi	a1,a5,1
     3da:	c24c                	sw	a1,4(a2)
     3dc:	00e685b3          	add	a1,a3,a4
     3e0:	0005c583          	lbu	a1,0(a1)
	for (i = 0; i < len; i++) {
     3e4:	0705                	addi	a4,a4,1
		*(b->pbuffer ++) = s[i];
     3e6:	00b78023          	sb	a1,0(a5)
	for (i = 0; i < len; i++) {
     3ea:	b7f1                	j	3b6 <_puts+0xc>

000003ec <mini_itoa.part.0>:
	int	negative = 0;
     3ec:	4881                	li	a7,0
	if (value < 0 && !unsig) {
     3ee:	00055663          	bgez	a0,3fa <mini_itoa.part.0+0xe>
     3f2:	e681                	bnez	a3,3fa <mini_itoa.part.0+0xe>
		value = -value;
     3f4:	40a00533          	neg	a0,a0
		negative = 1;
     3f8:	4885                	li	a7,1
     3fa:	8a05                	andi	a2,a2,1
     3fc:	06100793          	li	a5,97
     400:	c219                	beqz	a2,406 <mini_itoa.part.0+0x1a>
     402:	04100793          	li	a5,65
	int	negative = 0;
     406:	883a                	mv	a6,a4
		*(pbuffer++) = (digit < 10 ? '0' + digit : (uppercase ? 'A' : 'a') + digit - 10);
     408:	4e25                	li	t3,9
     40a:	ff678613          	addi	a2,a5,-10
		int digit = value % radix;
     40e:	02b577b3          	remu	a5,a0,a1
     412:	832a                	mv	t1,a0
		*(pbuffer++) = (digit < 10 ? '0' + digit : (uppercase ? 'A' : 'a') + digit - 10);
     414:	0ff7f693          	zext.b	a3,a5
     418:	04fe6463          	bltu	t3,a5,460 <mini_itoa.part.0+0x74>
     41c:	03068693          	addi	a3,a3,48
     420:	0ff6f693          	zext.b	a3,a3
     424:	00d80023          	sb	a3,0(a6)
     428:	00180793          	addi	a5,a6,1
		value /= radix;
     42c:	02b55533          	divu	a0,a0,a1
	} while (value > 0);
     430:	02b37663          	bgeu	t1,a1,45c <mini_itoa.part.0+0x70>
	if (negative)
     434:	00088863          	beqz	a7,444 <mini_itoa.part.0+0x58>
		*(pbuffer++) = '-';
     438:	02d00693          	li	a3,45
     43c:	00d78023          	sb	a3,0(a5)
     440:	00280793          	addi	a5,a6,2
	len = (pbuffer - buffer);
     444:	40e78533          	sub	a0,a5,a4
	for (i = 0; i < len / 2; i++) {
     448:	4609                	li	a2,2
	*(pbuffer) = '\0';
     44a:	00078023          	sb	zero,0(a5)
	for (i = 0; i < len / 2; i++) {
     44e:	4681                	li	a3,0
     450:	02c54633          	div	a2,a0,a2
     454:	17fd                	addi	a5,a5,-1
     456:	00c6c763          	blt	a3,a2,464 <mini_itoa.part.0+0x78>
}
     45a:	8082                	ret
		*(pbuffer++) = (digit < 10 ? '0' + digit : (uppercase ? 'A' : 'a') + digit - 10);
     45c:	883e                	mv	a6,a5
     45e:	bf45                	j	40e <mini_itoa.part.0+0x22>
     460:	96b2                	add	a3,a3,a2
     462:	bf7d                	j	420 <mini_itoa.part.0+0x34>
		char j = buffer[i];
     464:	00d705b3          	add	a1,a4,a3
		buffer[i] = buffer[len-i-1];
     468:	0007c883          	lbu	a7,0(a5)
		char j = buffer[i];
     46c:	0005c803          	lbu	a6,0(a1)
	for (i = 0; i < len / 2; i++) {
     470:	0685                	addi	a3,a3,1
		buffer[i] = buffer[len-i-1];
     472:	01158023          	sb	a7,0(a1)
		buffer[len-i-1] = j;
     476:	01078023          	sb	a6,0(a5)
	for (i = 0; i < len / 2; i++) {
     47a:	bfe9                	j	454 <mini_itoa.part.0+0x68>

0000047c <ssd1306_drawPixel>:
void ssd1306_drawPixel(uint32_t x, uint32_t y, int color)
{
	uint32_t addr;
	
	/* clip */
	if(x >= SSD1306_W)
     47c:	00b56733          	or	a4,a0,a1
     480:	07f00793          	li	a5,127
     484:	02e7e563          	bltu	a5,a4,4ae <ssd1306_drawPixel+0x32>
		return;
	if(y >= SSD1306_H)
		return;
	
	/* compute buffer address */
	addr = x + SSD1306_W*(y/8);
     488:	0035d793          	srli	a5,a1,0x3
     48c:	079e                	slli	a5,a5,0x7
     48e:	97aa                	add	a5,a5,a0
	
	/* set/clear bit in buffer */
	if(color)
		ssd1306_buffer[addr] |= (1<<(y&7));
     490:	20001537          	lui	a0,0x20001
     494:	97c50513          	addi	a0,a0,-1668 # 2000097c <ssd1306_buffer>
     498:	953e                	add	a0,a0,a5
     49a:	899d                	andi	a1,a1,7
     49c:	4705                	li	a4,1
     49e:	00054783          	lbu	a5,0(a0)
     4a2:	00b71733          	sll	a4,a4,a1
	if(color)
     4a6:	c609                	beqz	a2,4b0 <ssd1306_drawPixel+0x34>
		ssd1306_buffer[addr] |= (1<<(y&7));
     4a8:	8fd9                	or	a5,a5,a4
	else
		ssd1306_buffer[addr] &= ~(1<<(y&7));
     4aa:	00f50023          	sb	a5,0(a0)
}
     4ae:	8082                	ret
		ssd1306_buffer[addr] &= ~(1<<(y&7));
     4b0:	fff74713          	not	a4,a4
     4b4:	8ff9                	and	a5,a5,a4
     4b6:	bfd5                	j	4aa <ssd1306_drawPixel+0x2e>

000004b8 <DevSetMode>:
	if(mode) {
     4b8:	4000c7b7          	lui	a5,0x4000c
     4bc:	10078793          	addi	a5,a5,256 # 4000c100 <_eusrstack+0x20009100>
		BB->CTRL_CFG = DEVSETMODE_ON;
     4c0:	4398                	lw	a4,0(a5)
     4c2:	fffd06b7          	lui	a3,0xfffd0
     4c6:	16fd                	addi	a3,a3,-1 # fffcffff <_eusrstack+0xdffccfff>
     4c8:	8f75                	and	a4,a4,a3
	if(mode) {
     4ca:	c115                	beqz	a0,4ee <DevSetMode+0x36>
		BB->CTRL_CFG = DEVSETMODE_ON;
     4cc:	000206b7          	lui	a3,0x20
     4d0:	8f55                	or	a4,a4,a3
     4d2:	c398                	sw	a4,0(a5)
		RF->RF2 |= 0x330000;
     4d4:	4000d737          	lui	a4,0x4000d
     4d8:	471c                	lw	a5,8(a4)
     4da:	003306b7          	lui	a3,0x330
     4de:	8fd5                	or	a5,a5,a3
     4e0:	c71c                	sw	a5,8(a4)
	LL->CTRL_MOD = mode;
     4e2:	4000c7b7          	lui	a5,0x4000c
     4e6:	20078793          	addi	a5,a5,512 # 4000c200 <_eusrstack+0x20009200>
     4ea:	cba8                	sw	a0,80(a5)
}
     4ec:	8082                	ret
		BB->CTRL_CFG = DEVSETMODE_OFF;
     4ee:	66c1                	lui	a3,0x10
     4f0:	8f55                	or	a4,a4,a3
     4f2:	c398                	sw	a4,0(a5)
		RF->RF2 &= 0xffcdffff;
     4f4:	4000d6b7          	lui	a3,0x4000d
     4f8:	469c                	lw	a5,8(a3)
     4fa:	ffce0737          	lui	a4,0xffce0
     4fe:	177d                	addi	a4,a4,-1 # ffcdffff <_eusrstack+0xdfcdcfff>
     500:	8ff9                	and	a5,a5,a4
     502:	c69c                	sw	a5,8(a3)
     504:	bff9                	j	4e2 <DevSetMode+0x2a>

00000506 <RFEND_TXCTune>:
	RF->RF1 &= 0xfffffffe;
     506:	4000d7b7          	lui	a5,0x4000d
     50a:	43d8                	lw	a4,4(a5)
	RF->TXTUNE_CTRL = (RF->TXTUNE_CTRL & 0xfffe00ff) | (0xbf00 + (channel_map[channel] << 8));
     50c:	6631                	lui	a2,0xc
     50e:	f0060613          	addi	a2,a2,-256 # bf00 <firmware.c.cec90121+0x8988>
	RF->RF1 &= 0xfffffffe;
     512:	9b79                	andi	a4,a4,-2
     514:	c3d8                	sw	a4,4(a5)
	RF->TXTUNE_CTRL = (RF->TXTUNE_CTRL & 0xfffe00ff) | (0xbf00 + (channel_map[channel] << 8));
     516:	6709                	lui	a4,0x2
     518:	33870713          	addi	a4,a4,824 # 2338 <channel_map>
     51c:	972a                	add	a4,a4,a0
     51e:	00074703          	lbu	a4,0(a4)
     522:	5f94                	lw	a3,56(a5)
     524:	0722                	slli	a4,a4,0x8
     526:	9732                	add	a4,a4,a2
     528:	7601                	lui	a2,0xfffe0
     52a:	0ff60613          	addi	a2,a2,255 # fffe00ff <_eusrstack+0xdffdd0ff>
     52e:	8ef1                	and	a3,a3,a2
     530:	8f55                	or	a4,a4,a3
     532:	df98                	sw	a4,56(a5)
	RF->RF1 |= 1;
     534:	43d8                	lw	a4,4(a5)
	LL->TMR = 8000;
     536:	6689                	lui	a3,0x2
     538:	f4068693          	addi	a3,a3,-192 # 1f40 <fontdata+0x448>
	RF->RF1 |= 1;
     53c:	00176713          	ori	a4,a4,1
     540:	c3d8                	sw	a4,4(a5)
	LL->TMR = 8000;
     542:	4000c737          	lui	a4,0x4000c
     546:	20070713          	addi	a4,a4,512 # 4000c200 <_eusrstack+0x20009200>
     54a:	d374                	sw	a3,100(a4)
	while(!(RF->TXCTUNE_CO_CTRL & (1 << 25)) || !(RF->TXCTUNE_CO_CTRL & (1 << 26))) {
     54c:	0907a683          	lw	a3,144(a5) # 4000d090 <_eusrstack+0x2000a090>
     550:	00669613          	slli	a2,a3,0x6
     554:	00065863          	bgez	a2,564 <RFEND_TXCTune+0x5e>
     558:	0907a683          	lw	a3,144(a5)
     55c:	00569613          	slli	a2,a3,0x5
     560:	00064463          	bltz	a2,568 <RFEND_TXCTune+0x62>
		if(LL->TMR == 0) {
     564:	5374                	lw	a3,100(a4)
     566:	f2fd                	bnez	a3,54c <RFEND_TXCTune+0x46>
	uint8_t nCO = (uint8_t)RF->TXCTUNE_CO_CTRL & 0x3f;
     568:	4000d7b7          	lui	a5,0x4000d
     56c:	0907a503          	lw	a0,144(a5) # 4000d090 <_eusrstack+0x2000a090>
	uint8_t nGA = (uint8_t)(RF->TXCTUNE_GA_CTRL >> 10) & 0x7f;
     570:	0947a783          	lw	a5,148(a5)
	return (nGA << 24) | nCO;
     574:	03f57513          	andi	a0,a0,63
	uint8_t nGA = (uint8_t)(RF->TXCTUNE_GA_CTRL >> 10) & 0x7f;
     578:	83a9                	srli	a5,a5,0xa
	return (nGA << 24) | nCO;
     57a:	07f7f793          	andi	a5,a5,127
     57e:	07e2                	slli	a5,a5,0x18
}
     580:	8d5d                	or	a0,a0,a5
     582:	8082                	ret

00000584 <DevSetChannel>:
	RF->RF11 &= 0xfffffffd;
     584:	4000d737          	lui	a4,0x4000d
     588:	575c                	lw	a5,44(a4)
	BB->CTRL_CFG = (BB->CTRL_CFG & 0xffffff80) | (channel & 0x7f);
     58a:	07f57513          	andi	a0,a0,127
	RF->RF11 &= 0xfffffffd;
     58e:	9bf5                	andi	a5,a5,-3
     590:	d75c                	sw	a5,44(a4)
	BB->CTRL_CFG = (BB->CTRL_CFG & 0xffffff80) | (channel & 0x7f);
     592:	4000c737          	lui	a4,0x4000c
     596:	10070713          	addi	a4,a4,256 # 4000c100 <_eusrstack+0x20009100>
     59a:	431c                	lw	a5,0(a4)
     59c:	f807f793          	andi	a5,a5,-128
     5a0:	8fc9                	or	a5,a5,a0
     5a2:	c31c                	sw	a5,0(a4)
}
     5a4:	8082                	ret

000005a6 <RenderBSprite>:
// This drawing function is very slow.  Consider optimizing.
//
static void RenderBSprite( const bsprite * spr, int outx, int outy ) __attribute__ ((noinline));
static void RenderBSprite( const bsprite * spr, int outx, int outy )
{
	int sw = spr->w;
     5a6:	00051303          	lh	t1,0(a0)
{
     5aa:	1101                	addi	sp,sp,-32
     5ac:	ca4a                	sw	s2,20(sp)
     5ae:	c84e                	sw	s3,16(sp)
     5b0:	ce22                	sw	s0,28(sp)
     5b2:	cc26                	sw	s1,24(sp)
     5b4:	c652                	sw	s4,12(sp)
     5b6:	c456                	sw	s5,8(sp)
     5b8:	c25a                	sw	s6,4(sp)
     5ba:	c05e                	sw	s7,0(sp)
	int sh = spr->h;
     5bc:	00251903          	lh	s2,2(a0)
		int boutshiftmaskinv = ~(1<<boutshift);
		int tx = outx;
		int group;
		if( outy < 0 )
		{
			bin += sw;
     5c0:	00231993          	slli	s3,t1,0x2
	const uint32_t * bin = &spr->data[0];
     5c4:	0511                	addi	a0,a0,4
	for( y = 0; y < sh; y++, outy++ )
     5c6:	4781                	li	a5,0
     5c8:	00034363          	bltz	t1,5ce <RenderBSprite+0x28>
     5cc:	879a                	mv	a5,t1
     5ce:	07c2                	slli	a5,a5,0x10
     5d0:	87c1                	srai	a5,a5,0x10
     5d2:	00279813          	slli	a6,a5,0x2
			continue;
		}
		else if( outy >= SSD1306_H )
     5d6:	07f00413          	li	s0,127
	for( y = 0; y < sh; y++, outy++ )
     5da:	87b2                	mv	a5,a2
		uint8_t * bout = &ssd1306_buffer[(outy>>3)*SSD1306_W + outx];
     5dc:	20001a37          	lui	s4,0x20001
		int boutshiftmaskinv = ~(1<<boutshift);
     5e0:	4a85                	li	s5,1
		}

		for( group = 0; group < sw; group++ )
		{
			uint32_t input = *(bin++);
			for( x = 0; x < 16; x++, tx++, input >>= 1 )
     5e2:	4b41                	li	s6,16
	for( y = 0; y < sh; y++, outy++ )
     5e4:	40c78733          	sub	a4,a5,a2
     5e8:	01274c63          	blt	a4,s2,600 <RenderBSprite+0x5a>
				}
			}
			bout += 16;
		}
	}
}
     5ec:	4472                	lw	s0,28(sp)
     5ee:	44e2                	lw	s1,24(sp)
     5f0:	4952                	lw	s2,20(sp)
     5f2:	49c2                	lw	s3,16(sp)
     5f4:	4a32                	lw	s4,12(sp)
     5f6:	4aa2                	lw	s5,8(sp)
     5f8:	4b12                	lw	s6,4(sp)
     5fa:	4b82                	lw	s7,0(sp)
     5fc:	6105                	addi	sp,sp,32
     5fe:	8082                	ret
		if( outy < 0 )
     600:	0007d563          	bgez	a5,60a <RenderBSprite+0x64>
			bin += sw;
     604:	954e                	add	a0,a0,s3
	for( y = 0; y < sh; y++, outy++ )
     606:	0785                	addi	a5,a5,1
     608:	bff1                	j	5e4 <RenderBSprite+0x3e>
		else if( outy >= SSD1306_H )
     60a:	fef441e3          	blt	s0,a5,5ec <RenderBSprite+0x46>
		uint8_t * bout = &ssd1306_buffer[(outy>>3)*SSD1306_W + outx];
     60e:	4037d713          	srai	a4,a5,0x3
		int boutshift = outy&7;
     612:	0077f493          	andi	s1,a5,7
		uint8_t * bout = &ssd1306_buffer[(outy>>3)*SSD1306_W + outx];
     616:	071e                	slli	a4,a4,0x7
     618:	97ca0f93          	addi	t6,s4,-1668 # 2000097c <ssd1306_buffer>
		int boutshiftmaskinv = ~(1<<boutshift);
     61c:	009a92b3          	sll	t0,s5,s1
     620:	fff2c293          	not	t0,t0
		int tx = outx;
     624:	8eae                	mv	t4,a1
		for( group = 0; group < sw; group++ )
     626:	4e01                	li	t3,0
     628:	9fba                	add	t6,t6,a4
     62a:	01df8bb3          	add	s7,t6,t4
     62e:	006e4463          	blt	t3,t1,636 <RenderBSprite+0x90>
     632:	9542                	add	a0,a0,a6
     634:	bfc9                	j	606 <RenderBSprite+0x60>
			uint32_t input = *(bin++);
     636:	002e1713          	slli	a4,t3,0x2
     63a:	972a                	add	a4,a4,a0
     63c:	00072f03          	lw	t5,0(a4)
			for( x = 0; x < 16; x++, tx++, input >>= 1 )
     640:	4881                	li	a7,0
				if( tx < 0 || tx >= SSD1306_W ) continue;
     642:	01d88733          	add	a4,a7,t4
     646:	02e46463          	bltu	s0,a4,66e <RenderBSprite+0xc8>
				if( input & 1 )
     64a:	001f7713          	andi	a4,t5,1
     64e:	c305                	beqz	a4,66e <RenderBSprite+0xc8>
					bout[x] = ( bout[x] & boutshiftmaskinv ) | (((input>>16)&1)<< ( boutshift));
     650:	011b86b3          	add	a3,s7,a7
     654:	0006c383          	lbu	t2,0(a3)
     658:	010f5713          	srli	a4,t5,0x10
     65c:	8b05                	andi	a4,a4,1
     65e:	00971733          	sll	a4,a4,s1
     662:	0053f3b3          	and	t2,t2,t0
     666:	00776733          	or	a4,a4,t2
     66a:	00e68023          	sb	a4,0(a3)
			for( x = 0; x < 16; x++, tx++, input >>= 1 )
     66e:	0885                	addi	a7,a7,1
     670:	001f5f13          	srli	t5,t5,0x1
     674:	fd6897e3          	bne	a7,s6,642 <RenderBSprite+0x9c>
     678:	0ec1                	addi	t4,t4,16
		for( group = 0; group < sw; group++ )
     67a:	0e05                	addi	t3,t3,1
     67c:	b77d                	j	62a <RenderBSprite+0x84>

0000067e <_rand_gen_32b>:
uint32_t _rand_gen_32b(void)
{
	uint32_t rand_out = 0;
	
	uint8_t bits = 32;
	while(bits--)
     67e:	c041a703          	lw	a4,-1020(gp) # 20000290 <_rand_lfsr>
{
     682:	02000693          	li	a3,32
	uint32_t rand_out = 0;
     686:	4501                	li	a0,0
	uint32_t msb = bit_31 ^ bit_21 ^ bit_01 ^ bit_00;
     688:	80000837          	lui	a6,0x80000
	uint32_t bit_01 = (_rand_lfsr << 30) & 0x80000000;
     68c:	01e71593          	slli	a1,a4,0x1e
	uint32_t bit_21 = (_rand_lfsr << 10) & 0x80000000;
     690:	00a71793          	slli	a5,a4,0xa
	uint32_t msb = bit_31 ^ bit_21 ^ bit_01 ^ bit_00;
     694:	8fad                	xor	a5,a5,a1
     696:	8fb9                	xor	a5,a5,a4
	uint32_t bit_00 = (_rand_lfsr << 31) & 0x80000000;
     698:	01f71593          	slli	a1,a4,0x1f
	uint32_t msb = bit_31 ^ bit_21 ^ bit_01 ^ bit_00;
     69c:	0107f7b3          	and	a5,a5,a6
     6a0:	8fad                	xor	a5,a5,a1
	_rand_lfsr = (_rand_lfsr >> 1) | msb;
     6a2:	8305                	srli	a4,a4,0x1
	while(bits--)
     6a4:	16fd                	addi	a3,a3,-1
	{
		// Shift the current rand value for the new LSB
		rand_out = rand_out << 1;
     6a6:	0506                	slli	a0,a0,0x1
	_rand_lfsr = (_rand_lfsr >> 1) | msb;
     6a8:	8f5d                	or	a4,a4,a5
	while(bits--)
     6aa:	0ff6f693          	zext.b	a3,a3
	return msb >> 31;
     6ae:	83fd                	srli	a5,a5,0x1f
		// Append the LSB
		rand_out |= _rand_lfsr_update();
     6b0:	8d5d                	or	a0,a0,a5
	while(bits--)
     6b2:	fee9                	bnez	a3,68c <_rand_gen_32b+0xe>
     6b4:	c0e1a223          	sw	a4,-1020(gp) # 20000290 <_rand_lfsr>
	}
	
	return rand_out;
}
     6b8:	8082                	ret

000006ba <funPinMode.part.0>:

RV_STATIC_INLINE void funPinMode(u32 pin, GPIOModeTypeDef mode)
{
	switch(mode) {
	case GPIO_ModeIN_Floating:
		*(&R32_PA_PD_DRV + OFFSET_FOR_GPIOB(pin)) &= ~(pin & ~PB);
     6ba:	400017b7          	lui	a5,0x40001
     6be:	0b478793          	addi	a5,a5,180 # 400010b4 <_eusrstack+0x1fffe0b4>
     6c2:	4398                	lw	a4,0(a5)
     6c4:	fff54513          	not	a0,a0
     6c8:	8f69                	and	a4,a4,a0
     6ca:	c398                	sw	a4,0(a5)
		*(&R32_PA_PU + OFFSET_FOR_GPIOB(pin))     &= ~(pin & ~PB);
     6cc:	400017b7          	lui	a5,0x40001
     6d0:	0b078793          	addi	a5,a5,176 # 400010b0 <_eusrstack+0x1fffe0b0>
     6d4:	4398                	lw	a4,0(a5)
     6d6:	8f69                	and	a4,a4,a0
     6d8:	c398                	sw	a4,0(a5)
		*(&R32_PA_DIR + OFFSET_FOR_GPIOB(pin))    &= ~(pin & ~PB);
     6da:	400017b7          	lui	a5,0x40001
     6de:	0a078793          	addi	a5,a5,160 # 400010a0 <_eusrstack+0x1fffe0a0>
     6e2:	4398                	lw	a4,0(a5)
     6e4:	8d79                	and	a0,a0,a4
     6e6:	c388                	sw	a0,0(a5)
	case GPIO_ModeOut_PP_20mA:
		*(&R32_PA_PD_DRV + OFFSET_FOR_GPIOB(pin)) |= (pin & ~PB);
		*(&R32_PA_DIR + OFFSET_FOR_GPIOB(pin))    |= (pin & ~PB);
		break;
	}
}
     6e8:	8082                	ret

000006ea <funPinMode>:
	switch(mode) {
     6ea:	400017b7          	lui	a5,0x40001
     6ee:	470d                	li	a4,3
     6f0:	0b478793          	addi	a5,a5,180 # 400010b4 <_eusrstack+0x1fffe0b4>
     6f4:	02e58963          	beq	a1,a4,726 <funPinMode+0x3c>
     6f8:	4711                	li	a4,4
     6fa:	04e58263          	beq	a1,a4,73e <funPinMode+0x54>
		*(&R32_PA_PD_DRV + OFFSET_FOR_GPIOB(pin)) &= ~(pin & ~PB);
     6fe:	4394                	lw	a3,0(a5)
     700:	fff54713          	not	a4,a0
     704:	8ef9                	and	a3,a3,a4
     706:	c394                	sw	a3,0(a5)
		*(&R32_PA_PU + OFFSET_FOR_GPIOB(pin))     |= (pin & ~PB);
     708:	400017b7          	lui	a5,0x40001
     70c:	0b078793          	addi	a5,a5,176 # 400010b0 <_eusrstack+0x1fffe0b0>
     710:	4394                	lw	a3,0(a5)
     712:	8ec9                	or	a3,a3,a0
     714:	c394                	sw	a3,0(a5)
		*(&R32_PA_DIR + OFFSET_FOR_GPIOB(pin))    &= ~(pin & ~PB);
     716:	400017b7          	lui	a5,0x40001
     71a:	0a078793          	addi	a5,a5,160 # 400010a0 <_eusrstack+0x1fffe0a0>
     71e:	4394                	lw	a3,0(a5)
     720:	8f75                	and	a4,a4,a3
		*(&R32_PA_DIR + OFFSET_FOR_GPIOB(pin))    |= (pin & ~PB);
     722:	c398                	sw	a4,0(a5)
}
     724:	8082                	ret
		*(&R32_PA_PD_DRV + OFFSET_FOR_GPIOB(pin)) &= ~(pin & ~PB);
     726:	4394                	lw	a3,0(a5)
     728:	fff54713          	not	a4,a0
     72c:	8f75                	and	a4,a4,a3
		*(&R32_PA_PD_DRV + OFFSET_FOR_GPIOB(pin)) |= (pin & ~PB);
     72e:	c398                	sw	a4,0(a5)
		*(&R32_PA_DIR + OFFSET_FOR_GPIOB(pin))    |= (pin & ~PB);
     730:	400017b7          	lui	a5,0x40001
     734:	0a078793          	addi	a5,a5,160 # 400010a0 <_eusrstack+0x1fffe0a0>
     738:	4398                	lw	a4,0(a5)
     73a:	8f49                	or	a4,a4,a0
     73c:	b7dd                	j	722 <funPinMode+0x38>
		*(&R32_PA_PD_DRV + OFFSET_FOR_GPIOB(pin)) |= (pin & ~PB);
     73e:	4398                	lw	a4,0(a5)
     740:	8f49                	or	a4,a4,a0
     742:	b7f5                	j	72e <funPinMode+0x44>

00000744 <SendByte>:
	DELAY1
}

// Return nonzero on failure.
I2CSTATICODE unsigned char I2CFNCOLLAPSE(I2CPREFIX, SendByte)(unsigned char data)
{
     744:	1101                	addi	sp,sp,-32
     746:	ca26                	sw	s1,20(sp)
     748:	c84a                	sw	s2,16(sp)
     74a:	c64e                	sw	s3,12(sp)
    for (i = 0; i < 8; i++)
    {
        DELAY1
        if (data & 0x80)
        {
            DSDA_IHIGH
     74c:	40001937          	lui	s2,0x40001
        }
        else
        {
            DSDA_OUTPUT
     750:	400019b7          	lui	s3,0x40001
        }
        data <<= 1;
        DELAY2
        DSCL_IHIGH
     754:	6485                	lui	s1,0x1
{
     756:	cc22                	sw	s0,24(sp)
     758:	c452                	sw	s4,8(sp)
     75a:	c256                	sw	s5,4(sp)
     75c:	ce06                	sw	ra,28(sp)
     75e:	842a                	mv	s0,a0
     760:	4a21                	li	s4,8
            DSDA_OUTPUT
     762:	0ac98993          	addi	s3,s3,172 # 400010ac <_eusrstack+0x1fffe0ac>
     766:	40000a93          	li	s5,1024
            DSDA_IHIGH
     76a:	0b890913          	addi	s2,s2,184 # 400010b8 <_eusrstack+0x1fffe0b8>
        DSCL_IHIGH
     76e:	80048493          	addi	s1,s1,-2048 # 800 <SendByte+0xbc>
        if (data & 0x80)
     772:	01841793          	slli	a5,s0,0x18
     776:	87e1                	srai	a5,a5,0x18
     778:	0807d263          	bgez	a5,7fc <SendByte+0xb8>
            DSDA_IHIGH
     77c:	4585                	li	a1,1
     77e:	40000513          	li	a0,1024
     782:	37a5                	jal	6ea <funPinMode>
     784:	01592023          	sw	s5,0(s2)
        DSCL_IHIGH
     788:	6505                	lui	a0,0x1
     78a:	4585                	li	a1,1
     78c:	80050513          	addi	a0,a0,-2048 # 800 <SendByte+0xbc>
     790:	3fa9                	jal	6ea <funPinMode>
        DELAY2
        DSCL_OUTPUT
     792:	6505                	lui	a0,0x1
        DSCL_IHIGH
     794:	00992023          	sw	s1,0(s2)
        data <<= 1;
     798:	0406                	slli	s0,s0,0x1
        DSCL_OUTPUT
     79a:	0099a023          	sw	s1,0(s3)
     79e:	458d                	li	a1,3
     7a0:	80050513          	addi	a0,a0,-2048 # 800 <SendByte+0xbc>
    for (i = 0; i < 8; i++)
     7a4:	1a7d                	addi	s4,s4,-1
        data <<= 1;
     7a6:	0ff47413          	zext.b	s0,s0
        DSCL_OUTPUT
     7aa:	3781                	jal	6ea <funPinMode>
    for (i = 0; i < 8; i++)
     7ac:	fc0a13e3          	bnez	s4,772 <SendByte+0x2e>
    }

    // Immediately after sending last bit, open up DDDR for control.
    DELAY1
    DSDA_INPUT
     7b0:	4585                	li	a1,1
     7b2:	40000513          	li	a0,1024
     7b6:	3f15                	jal	6ea <funPinMode>
     7b8:	40000793          	li	a5,1024
    DELAY1
    DSCL_IHIGH
     7bc:	6505                	lui	a0,0x1
    DSDA_INPUT
     7be:	00f92023          	sw	a5,0(s2)
    DSCL_IHIGH
     7c2:	4585                	li	a1,1
     7c4:	80050513          	addi	a0,a0,-2048 # 800 <SendByte+0xbc>
     7c8:	370d                	jal	6ea <funPinMode>
    DELAY1
    i = READ_DSDA;
     7ca:	400017b7          	lui	a5,0x40001
    DSCL_IHIGH
     7ce:	00992023          	sw	s1,0(s2)
    i = READ_DSDA;
     7d2:	0a47a403          	lw	s0,164(a5) # 400010a4 <_eusrstack+0x1fffe0a4>
    DELAY1
    DSCL_OUTPUT
     7d6:	6505                	lui	a0,0x1
     7d8:	0099a023          	sw	s1,0(s3)
     7dc:	80050513          	addi	a0,a0,-2048 # 800 <SendByte+0xbc>
     7e0:	458d                	li	a1,3
     7e2:	3721                	jal	6ea <funPinMode>
    DELAY1
    return !!i;
}
     7e4:	40f2                	lw	ra,28(sp)
    return !!i;
     7e6:	00a45513          	srli	a0,s0,0xa
}
     7ea:	4462                	lw	s0,24(sp)
     7ec:	44d2                	lw	s1,20(sp)
     7ee:	4942                	lw	s2,16(sp)
     7f0:	49b2                	lw	s3,12(sp)
     7f2:	4a22                	lw	s4,8(sp)
     7f4:	4a92                	lw	s5,4(sp)
     7f6:	8905                	andi	a0,a0,1
     7f8:	6105                	addi	sp,sp,32
     7fa:	8082                	ret
            DSDA_OUTPUT
     7fc:	0159a023          	sw	s5,0(s3)
     800:	458d                	li	a1,3
     802:	40000513          	li	a0,1024
     806:	35d5                	jal	6ea <funPinMode>
     808:	b741                	j	788 <SendByte+0x44>

0000080a <ssd1306_drawstr_sz.constprop.0>:
}

/*
 * draw a string to the display buffer, scaled to size
 */
void ssd1306_drawstr_sz(uint8_t x, uint8_t y, char *str, uint8_t color, font_size_t font_size)
     80a:	715d                	addi	sp,sp,-80
     80c:	d462                	sw	s8,40(sp)
     80e:	00a03c33          	snez	s8,a0
     812:	de4e                	sw	s3,60(sp)
     814:	da56                	sw	s5,52(sp)
     816:	d85a                	sw	s6,48(sp)
     818:	d65e                	sw	s7,44(sp)
     81a:	ce6e                	sw	s11,28(sp)
     81c:	c686                	sw	ra,76(sp)
     81e:	c4a2                	sw	s0,72(sp)
     820:	c2a6                	sw	s1,68(sp)
     822:	c0ca                	sw	s2,64(sp)
     824:	dc52                	sw	s4,56(sp)
     826:	d266                	sw	s9,36(sp)
     828:	d06a                	sw	s10,32(sp)
     82a:	8aaa                	mv	s5,a0
     82c:	89ae                	mv	s3,a1
        d = fontdata[(chr << 3) + i];
     82e:	4b81                	li	s7,0
     830:	6d89                	lui	s11,0x2
     832:	41800c33          	neg	s8,s8
	
	while((c=*str++))
	{
		ssd1306_drawchar_sz(x, y, c, color, font_size);
		x += 8 * font_size;
		if(x>128 - 8 * font_size)
     836:	08000b13          	li	s6,128
	while((c=*str++))
     83a:	0009c483          	lbu	s1,0(s3)
     83e:	0985                	addi	s3,s3,1
     840:	e085                	bnez	s1,860 <ssd1306_drawstr_sz.constprop.0+0x56>
			break;
	}
}
     842:	40b6                	lw	ra,76(sp)
     844:	4426                	lw	s0,72(sp)
     846:	4496                	lw	s1,68(sp)
     848:	4906                	lw	s2,64(sp)
     84a:	59f2                	lw	s3,60(sp)
     84c:	5a62                	lw	s4,56(sp)
     84e:	5ad2                	lw	s5,52(sp)
     850:	5b42                	lw	s6,48(sp)
     852:	5bb2                	lw	s7,44(sp)
     854:	5c22                	lw	s8,40(sp)
     856:	5c92                	lw	s9,36(sp)
     858:	5d02                	lw	s10,32(sp)
     85a:	4df2                	lw	s11,28(sp)
     85c:	6161                	addi	sp,sp,80
     85e:	8082                	ret
     860:	048e                	slli	s1,s1,0x3
     862:	af8d8713          	addi	a4,s11,-1288 # 1af8 <fontdata>
     866:	018c7c93          	andi	s9,s8,24
     86a:	94ba                	add	s1,s1,a4
     86c:	8956                	mv	s2,s5
     86e:	0cc1                	addi	s9,s9,16
     870:	010b8d13          	addi	s10,s7,16
        d = fontdata[(chr << 3) + i];
     874:	0004ca03          	lbu	s4,0(s1)
     878:	00190793          	addi	a5,s2,1
     87c:	c23e                	sw	a5,4(sp)
     87e:	845e                	mv	s0,s7
            if (d & 0x80)
     880:	007a5613          	srli	a2,s4,0x7
                    ssd1306_drawPixel(x + (j * font_scale) + k, y + (i * font_scale) + l, col);
     884:	8522                	mv	a0,s0
     886:	85ca                	mv	a1,s2
     888:	c432                	sw	a2,8(sp)
     88a:	3ecd                	jal	47c <ssd1306_drawPixel>
     88c:	4622                	lw	a2,8(sp)
     88e:	4592                	lw	a1,4(sp)
     890:	8522                	mv	a0,s0
            d <<= 1;
     892:	0a06                	slli	s4,s4,0x1
                    ssd1306_drawPixel(x + (j * font_scale) + k, y + (i * font_scale) + l, col);
     894:	36e5                	jal	47c <ssd1306_drawPixel>
     896:	4622                	lw	a2,8(sp)
     898:	00140513          	addi	a0,s0,1
     89c:	85ca                	mv	a1,s2
     89e:	c632                	sw	a2,12(sp)
     8a0:	c42a                	sw	a0,8(sp)
     8a2:	3ee9                	jal	47c <ssd1306_drawPixel>
     8a4:	4632                	lw	a2,12(sp)
     8a6:	4592                	lw	a1,4(sp)
     8a8:	4522                	lw	a0,8(sp)
        for (j = 0; j < 8; j++)
     8aa:	0409                	addi	s0,s0,2
            d <<= 1;
     8ac:	0ffa7a13          	zext.b	s4,s4
                    ssd1306_drawPixel(x + (j * font_scale) + k, y + (i * font_scale) + l, col);
     8b0:	36f1                	jal	47c <ssd1306_drawPixel>
        for (j = 0; j < 8; j++)
     8b2:	fda417e3          	bne	s0,s10,880 <ssd1306_drawstr_sz.constprop.0+0x76>
    for (i = 0; i < 8; i++)
     8b6:	0909                	addi	s2,s2,2
     8b8:	0485                	addi	s1,s1,1
     8ba:	fb991de3          	bne	s2,s9,874 <ssd1306_drawstr_sz.constprop.0+0x6a>
		if(x>128 - 8 * font_size)
     8be:	f96402e3          	beq	s0,s6,842 <ssd1306_drawstr_sz.constprop.0+0x38>
     8c2:	8ba2                	mv	s7,s0
     8c4:	bf9d                	j	83a <ssd1306_drawstr_sz.constprop.0+0x30>

000008c6 <internal_handle_input.constprop.0>:
void handle_debug_input( int numbytes, uint8_t * data ) __attribute__((weak));
void handle_debug_input( int numbytes, uint8_t * data ) { (void)numbytes; (void)data; }

static void internal_handle_input( volatile uint32_t * dmdata0 )
{
	uint32_t dmd0 = *dmdata0;
     8c6:	e00007b7          	lui	a5,0xe0000
     8ca:	3407a783          	lw	a5,832(a5) # e0000340 <_eusrstack+0xbfffd340>
	int bytes = (dmd0 & 0x3f) - 4;
	if( bytes > 0 && bytes < 16 )
	{
		handle_debug_input( bytes, ((uint8_t*)dmdata0) + 1 );
	}
}
     8ce:	8082                	ret

000008d0 <_write.constprop.0>:
//     note: if b7 is 0 in reply, but b0..b3 have >=4 then we received data from host.
// Special sentinel:
//     status word = 0x80 = default at start
//     status word = 0xcx = timed out.
// declare as weak to allow overriding.
WEAK int _write(int fd, const char *buf, int size)
     8d0:	7139                	addi	sp,sp,-64
     8d2:	dc22                	sw	s0,56(sp)
{
	(void)fd;
	if( ( *DMDATA0 & 0xc0 ) == 0xc0 ) return 0;
     8d4:	e0000437          	lui	s0,0xe0000
     8d8:	34040413          	addi	s0,s0,832 # e0000340 <_eusrstack+0xbfffd340>
     8dc:	401c                	lw	a5,0(s0)
WEAK int _write(int fd, const char *buf, int size)
     8de:	de06                	sw	ra,60(sp)
     8e0:	da26                	sw	s1,52(sp)
     8e2:	d84a                	sw	s2,48(sp)
     8e4:	d64e                	sw	s3,44(sp)
     8e6:	d452                	sw	s4,40(sp)
     8e8:	d256                	sw	s5,36(sp)
     8ea:	d05a                	sw	s6,32(sp)
     8ec:	ce5e                	sw	s7,28(sp)
	if( ( *DMDATA0 & 0xc0 ) == 0xc0 ) return 0;
     8ee:	0c07f793          	andi	a5,a5,192
     8f2:	0c000713          	li	a4,192
     8f6:	00e78b63          	beq	a5,a4,90c <_write.constprop.0+0x3c>

	char buffer[4] = { 0 };
     8fa:	c602                	sw	zero,12(sp)
     8fc:	84ae                	mv	s1,a1
	int place = 0;
	uint32_t lastdmd;
	uint32_t timeout = FUNCONF_DEBUGPRINTF_TIMEOUT; // Give up after ~120ms

	if( size == 0 )
     8fe:	e5d5                	bnez	a1,9aa <_write.constprop.0+0xda>
	{
		lastdmd = (*DMDATA0);
     900:	401c                	lw	a5,0(s0)
		if( lastdmd && !(lastdmd&0x80) ) internal_handle_input( (uint32_t*)DMDATA0 );
     902:	c789                	beqz	a5,90c <_write.constprop.0+0x3c>
     904:	0807f793          	andi	a5,a5,128
     908:	e391                	bnez	a5,90c <_write.constprop.0+0x3c>
     90a:	3f75                	jal	8c6 <internal_handle_input.constprop.0>
	if( ( *DMDATA0 & 0xc0 ) == 0xc0 ) return 0;
     90c:	4481                	li	s1,0

		//buf += tosend;
		place += tosend;
	}
	return size;
}
     90e:	50f2                	lw	ra,60(sp)
     910:	5462                	lw	s0,56(sp)
     912:	5942                	lw	s2,48(sp)
     914:	59b2                	lw	s3,44(sp)
     916:	5a22                	lw	s4,40(sp)
     918:	5a92                	lw	s5,36(sp)
     91a:	5b02                	lw	s6,32(sp)
     91c:	4bf2                	lw	s7,28(sp)
     91e:	8526                	mv	a0,s1
     920:	54d2                	lw	s1,52(sp)
     922:	6121                	addi	sp,sp,64
     924:	8082                	ret
		int tosend = size - place;
     926:	412489b3          	sub	s3,s1,s2
		if( tosend > 7 ) tosend = 7;
     92a:	013b5363          	bge	s6,s3,930 <_write.constprop.0+0x60>
     92e:	499d                	li	s3,7
     930:	001007b7          	lui	a5,0x100
     934:	0785                	addi	a5,a5,1 # 100001 <firmware.c.cec90121+0xfca89>
		while( ( lastdmd = (*DMDATA0) ) & 0x80 )
     936:	4018                	lw	a4,0(s0)
     938:	08077693          	andi	a3,a4,128
     93c:	e6b1                	bnez	a3,988 <_write.constprop.0+0xb8>
		if( lastdmd ) internal_handle_input( (uint32_t*)DMDATA0 );
     93e:	c311                	beqz	a4,942 <_write.constprop.0+0x72>
     940:	3759                	jal	8c6 <internal_handle_input.constprop.0>
     942:	0078                	addi	a4,sp,12
		if( tosend > 7 ) tosend = 7;
     944:	478d                	li	a5,3
     946:	863a                	mv	a2,a4
		while( t < tosend )
     948:	0537c763          	blt	a5,s3,996 <_write.constprop.0+0xc6>
		*DMDATA1 = *(uint32_t*)&(buffer[0]);
     94c:	47b2                	lw	a5,12(sp)
     94e:	012a0733          	add	a4,s4,s2
     952:	00faa023          	sw	a5,0(s5)
		t = 0;
     956:	4781                	li	a5,0
			buffer[t+1] = buf[t+place];
     958:	00074583          	lbu	a1,0(a4)
     95c:	0785                	addi	a5,a5,1
     95e:	00f606b3          	add	a3,a2,a5
     962:	00b68023          	sb	a1,0(a3)
		while( t < tosend && t < 3 )
     966:	00f98563          	beq	s3,a5,970 <_write.constprop.0+0xa0>
     96a:	0705                	addi	a4,a4,1
     96c:	ff7796e3          	bne	a5,s7,958 <_write.constprop.0+0x88>
		buffer[0] = 0x80 | (tosend + 4);
     970:	00498793          	addi	a5,s3,4
     974:	f807e793          	ori	a5,a5,-128
     978:	00f10623          	sb	a5,12(sp)
		*DMDATA0 = *(uint32_t*)&(buffer[0]);
     97c:	47b2                	lw	a5,12(sp)
		place += tosend;
     97e:	994e                	add	s2,s2,s3
		*DMDATA0 = *(uint32_t*)&(buffer[0]);
     980:	c01c                	sw	a5,0(s0)
	while( place < size )
     982:	fa9942e3          	blt	s2,s1,926 <_write.constprop.0+0x56>
     986:	b761                	j	90e <_write.constprop.0+0x3e>
			if( timeout-- == 0 )
     988:	17fd                	addi	a5,a5,-1
     98a:	f7d5                	bnez	a5,936 <_write.constprop.0+0x66>
				*DMDATA0 |= 0xc0;
     98c:	401c                	lw	a5,0(s0)
     98e:	0c07e793          	ori	a5,a5,192
     992:	c01c                	sw	a5,0(s0)
				return 0;
     994:	bfa5                	j	90c <_write.constprop.0+0x3c>
			buffer[t-3] = buf[t+place];
     996:	00f906b3          	add	a3,s2,a5
     99a:	96d2                	add	a3,a3,s4
     99c:	0006c683          	lbu	a3,0(a3)
			t++;
     9a0:	0785                	addi	a5,a5,1
     9a2:	0705                	addi	a4,a4,1
			buffer[t-3] = buf[t+place];
     9a4:	fed70fa3          	sb	a3,-1(a4)
     9a8:	b745                	j	948 <_write.constprop.0+0x78>
		*DMDATA1 = *(uint32_t*)&(buffer[0]);
     9aa:	e0000ab7          	lui	s5,0xe0000
     9ae:	8a2a                	mv	s4,a0
     9b0:	4901                	li	s2,0
		if( tosend > 7 ) tosend = 7;
     9b2:	4b1d                	li	s6,7
		*DMDATA1 = *(uint32_t*)&(buffer[0]);
     9b4:	344a8a93          	addi	s5,s5,836 # e0000344 <_eusrstack+0xbfffd344>
		while( t < tosend && t < 3 )
     9b8:	4b8d                	li	s7,3
     9ba:	b7e1                	j	982 <_write.constprop.0+0xb2>

000009bc <__puts_uart>:
{
     9bc:	1141                	addi	sp,sp,-16
     9be:	c422                	sw	s0,8(sp)
     9c0:	c606                	sw	ra,12(sp)
     9c2:	842e                	mv	s0,a1
	_write( 0, s, len );
     9c4:	3731                	jal	8d0 <_write.constprop.0>
}
     9c6:	40b2                	lw	ra,12(sp)
     9c8:	8522                	mv	a0,s0
     9ca:	4422                	lw	s0,8(sp)
     9cc:	0141                	addi	sp,sp,16
     9ce:	8082                	ret

000009d0 <ssd1306_pkt_send.isra.0>:
}

/*
 * packet send for blocking polled operation via spi
 */
uint8_t ssd1306_pkt_send(const uint8_t *data, int sz, uint8_t cmd)
     9d0:	400017b7          	lui	a5,0x40001
     9d4:	0ac78793          	addi	a5,a5,172 # 400010ac <_eusrstack+0x1fffe0ac>
     9d8:	40000713          	li	a4,1024
{
	if(cmd)
     9dc:	ca1d                	beqz	a2,a12 <ssd1306_pkt_send.isra.0+0x42>
	{
		funDigitalWrite( SSD1306_DC_PIN, FUN_LOW );
     9de:	c398                	sw	a4,0(a5)
	else
	{
		funDigitalWrite( SSD1306_DC_PIN, FUN_HIGH );
	}

	funDigitalWrite( SSD1306_CS_PIN, FUN_LOW );
     9e0:	4741                	li	a4,16
     9e2:	c398                	sw	a4,0(a5)
			funDigitalWrite( SSD1306_SCK_PIN, FUN_HIGH );      ADD_N_NOPS(1)
			c<<=1;
		} while( --i );

#elif defined( CH5xx )
		while(! (R8_SPI0_INT_FLAG & RB_SPI_FREE) );
     9e4:	400047b7          	lui	a5,0x40004
		R8_SPI0_BUFFER = *data++;
     9e8:	40004737          	lui	a4,0x40004
     9ec:	95aa                	add	a1,a1,a0
		while(! (R8_SPI0_INT_FLAG & RB_SPI_FREE) );
     9ee:	0799                	addi	a5,a5,6 # 40004006 <_eusrstack+0x20001006>
		R8_SPI0_BUFFER = *data++;
     9f0:	0711                	addi	a4,a4,4 # 40004004 <_eusrstack+0x20001004>
	while(sz--)
     9f2:	02b51563          	bne	a0,a1,a1c <ssd1306_pkt_send.isra.0+0x4c>
	
	// wait for not busy before exiting
#if SSD1306_SOFT_SPI
	// Nothing needed here.
#elif defined( CH5xx )
	while( !(R8_SPI0_INT_FLAG & RB_SPI_FREE)) { }
     9f6:	40004737          	lui	a4,0x40004
     9fa:	0719                	addi	a4,a4,6 # 40004006 <_eusrstack+0x20001006>
     9fc:	00074783          	lbu	a5,0(a4)
     a00:	0407f793          	andi	a5,a5,64
     a04:	dfe5                	beqz	a5,9fc <ssd1306_pkt_send.isra.0+0x2c>
#else
	while(SPI1->STATR & SPI_STATR_BSY) { }
#endif

	funDigitalWrite( SSD1306_CS_PIN, FUN_HIGH );
     a06:	400017b7          	lui	a5,0x40001
     a0a:	4741                	li	a4,16
     a0c:	0ae7ac23          	sw	a4,184(a5) # 400010b8 <_eusrstack+0x1fffe0b8>
	
	// we're happy
	return 0;
}
     a10:	8082                	ret
		funDigitalWrite( SSD1306_DC_PIN, FUN_HIGH );
     a12:	400016b7          	lui	a3,0x40001
     a16:	0ae6ac23          	sw	a4,184(a3) # 400010b8 <_eusrstack+0x1fffe0b8>
     a1a:	b7d9                	j	9e0 <ssd1306_pkt_send.isra.0+0x10>
		while(! (R8_SPI0_INT_FLAG & RB_SPI_FREE) );
     a1c:	0007c683          	lbu	a3,0(a5)
     a20:	0406f693          	andi	a3,a3,64
     a24:	dee5                	beqz	a3,a1c <ssd1306_pkt_send.isra.0+0x4c>
		R8_SPI0_BUFFER = *data++;
     a26:	00054683          	lbu	a3,0(a0)
     a2a:	0505                	addi	a0,a0,1
     a2c:	00d70023          	sb	a3,0(a4)
     a30:	b7c9                	j	9f2 <ssd1306_pkt_send.isra.0+0x22>

00000a32 <ssd1306_cmd.isra.0>:
uint8_t ssd1306_cmd(uint8_t cmd)
     a32:	1101                	addi	sp,sp,-32
	return ssd1306_pkt_send(&cmd, 1, 1);
     a34:	4605                	li	a2,1
uint8_t ssd1306_cmd(uint8_t cmd)
     a36:	00a107a3          	sb	a0,15(sp)
	return ssd1306_pkt_send(&cmd, 1, 1);
     a3a:	85b2                	mv	a1,a2
     a3c:	00f10513          	addi	a0,sp,15
uint8_t ssd1306_cmd(uint8_t cmd)
     a40:	ce06                	sw	ra,28(sp)
	return ssd1306_pkt_send(&cmd, 1, 1);
     a42:	3779                	jal	9d0 <ssd1306_pkt_send.isra.0>
}
     a44:	40f2                	lw	ra,28(sp)
     a46:	6105                	addi	sp,sp,32
     a48:	8082                	ret

00000a4a <ssd1306_refresh>:
{
     a4a:	1141                	addi	sp,sp,-16
     a4c:	c422                	sw	s0,8(sp)
	ssd1306_cmd(SSD1306_MEMORYMODE); // vertical addressing mode.
     a4e:	02000513          	li	a0,32
     a52:	20001437          	lui	s0,0x20001
{
     a56:	c226                	sw	s1,4(sp)
     a58:	c04a                	sw	s2,0(sp)
     a5a:	c606                	sw	ra,12(sp)
     a5c:	97c40413          	addi	s0,s0,-1668 # 2000097c <ssd1306_buffer>
	ssd1306_cmd(SSD1306_MEMORYMODE); // vertical addressing mode.
     a60:	3fc9                	jal	a32 <ssd1306_cmd.isra.0>
	for(i=0;i<SSD1306_H/8;i++)
     a62:	4481                	li	s1,0
		ssd1306_cmd( 0x10 | (0>>4) );
     a64:	4941                	li	s2,16
		ssd1306_cmd(0xb0 | i);
     a66:	fb04e513          	ori	a0,s1,-80
     a6a:	0ff57513          	zext.b	a0,a0
     a6e:	37d1                	jal	a32 <ssd1306_cmd.isra.0>
		ssd1306_cmd( 0x00 | (0&0xf) ); 
     a70:	4501                	li	a0,0
     a72:	37c1                	jal	a32 <ssd1306_cmd.isra.0>
		ssd1306_cmd( 0x10 | (0>>4) );
     a74:	4541                	li	a0,16
     a76:	3f75                	jal	a32 <ssd1306_cmd.isra.0>
	return ssd1306_pkt_send(data, sz, 0);
     a78:	8522                	mv	a0,s0
     a7a:	4601                	li	a2,0
     a7c:	02000593          	li	a1,32
     a80:	3f81                	jal	9d0 <ssd1306_pkt_send.isra.0>
     a82:	02000593          	li	a1,32
     a86:	00b40533          	add	a0,s0,a1
     a8a:	4601                	li	a2,0
     a8c:	3791                	jal	9d0 <ssd1306_pkt_send.isra.0>
     a8e:	04040513          	addi	a0,s0,64
     a92:	4601                	li	a2,0
     a94:	02000593          	li	a1,32
	for(i=0;i<SSD1306_H/8;i++)
     a98:	0485                	addi	s1,s1,1
	return ssd1306_pkt_send(data, sz, 0);
     a9a:	3f1d                	jal	9d0 <ssd1306_pkt_send.isra.0>
	for(i=0;i<SSD1306_H/8;i++)
     a9c:	04c2                	slli	s1,s1,0x10
	return ssd1306_pkt_send(data, sz, 0);
     a9e:	06040513          	addi	a0,s0,96
     aa2:	4601                	li	a2,0
     aa4:	02000593          	li	a1,32
	for(i=0;i<SSD1306_H/8;i++)
     aa8:	80c1                	srli	s1,s1,0x10
	return ssd1306_pkt_send(data, sz, 0);
     aaa:	371d                	jal	9d0 <ssd1306_pkt_send.isra.0>
	for(i=0;i<SSD1306_H/8;i++)
     aac:	08040413          	addi	s0,s0,128
     ab0:	fb249be3          	bne	s1,s2,a66 <ssd1306_refresh+0x1c>
}
     ab4:	40b2                	lw	ra,12(sp)
     ab6:	4422                	lw	s0,8(sp)
     ab8:	4492                	lw	s1,4(sp)
     aba:	4902                	lw	s2,0(sp)
     abc:	0141                	addi	sp,sp,16
     abe:	8082                	ret

00000ac0 <handle_reset>:
	asm volatile( "\n\
     ac0:	20000197          	auipc	gp,0x20000
     ac4:	bcc18193          	addi	gp,gp,-1076 # 2000068c <__global_pointer$>
     ac8:	20002117          	auipc	sp,0x20002
     acc:	53810113          	addi	sp,sp,1336 # 20003000 <_eusrstack>
	asm volatile(
     ad0:	e9418513          	addi	a0,gp,-364 # 20000520 <iSLERChannel>
     ad4:	20000597          	auipc	a1,0x20000
     ad8:	6a858593          	addi	a1,a1,1704 # 2000117c <_ebss>
     adc:	00b57763          	bgeu	a0,a1,aea <handle_reset+0x2a>
     ae0:	00052023          	sw	zero,0(a0)
     ae4:	0511                	addi	a0,a0,4
     ae6:	feb56de3          	bltu	a0,a1,ae0 <handle_reset+0x20>
     aea:	09000513          	li	a0,144
     aee:	1ffff597          	auipc	a1,0x1ffff
     af2:	51258593          	addi	a1,a1,1298 # 20000000 <iSLERRSSI>
     af6:	1ffff617          	auipc	a2,0x1ffff
     afa:	79a60613          	addi	a2,a2,1946 # 20000290 <_rand_lfsr>
     afe:	00c5fa63          	bgeu	a1,a2,b12 <handle_reset+0x52>
     b02:	00052283          	lw	t0,0(a0)
     b06:	0055a023          	sw	t0,0(a1)
     b0a:	0511                	addi	a0,a0,4
     b0c:	0591                	addi	a1,a1,4
     b0e:	fec5eae3          	bltu	a1,a2,b02 <handle_reset+0x42>
     b12:	00002517          	auipc	a0,0x2
     b16:	84e50513          	addi	a0,a0,-1970 # 2360 <_data_lma>
     b1a:	c0418593          	addi	a1,gp,-1020 # 20000290 <_rand_lfsr>
     b1e:	20000617          	auipc	a2,0x20000
     b22:	a0260613          	addi	a2,a2,-1534 # 20000520 <iSLERChannel>
     b26:	00c58a63          	beq	a1,a2,b3a <handle_reset+0x7a>
     b2a:	00052283          	lw	t0,0(a0)
     b2e:	0055a023          	sw	t0,0(a1)
     b32:	0511                	addi	a0,a0,4
     b34:	0591                	addi	a1,a1,4
     b36:	fec5eae3          	bltu	a1,a2,b2a <handle_reset+0x6a>
	asm volatile(
     b3a:	00000793          	li	a5,0
     b3e:	42fd                	li	t0,31
     b40:	bc029073          	csrw	0xbc0,t0
     b44:	6289                	lui	t0,0x2
     b46:	88828293          	addi	t0,t0,-1912 # 1888 <main+0x528>
     b4a:	3002a073          	csrs	mstatus,t0
     b4e:	fffff297          	auipc	t0,0xfffff
     b52:	4b228293          	addi	t0,t0,1202 # 0 <InterruptVector>
     b56:	0032e293          	ori	t0,t0,3
     b5a:	30529073          	csrw	mtvec,t0
	SysTick->CTLR = 5;
     b5e:	e000f7b7          	lui	a5,0xe000f
     b62:	4715                	li	a4,5
     b64:	c398                	sw	a4,0(a5)
	asm volatile(
     b66:	6785                	lui	a5,0x1
     b68:	36078793          	addi	a5,a5,864 # 1360 <main>
     b6c:	34179073          	csrw	mepc,a5
     b70:	30200073          	mret

00000b74 <ADC1_2_IRQHandler>:
	asm volatile( "1: j 1b" );
     b74:	a001                	j	b74 <ADC1_2_IRQHandler>

00000b76 <strlen>:
	for (; *s; s++);
     b76:	87aa                	mv	a5,a0
     b78:	0007c703          	lbu	a4,0(a5)
     b7c:	e701                	bnez	a4,b84 <strlen+0xe>
}
     b7e:	40a78533          	sub	a0,a5,a0
     b82:	8082                	ret
	for (; *s; s++);
     b84:	0785                	addi	a5,a5,1
     b86:	bfcd                	j	b78 <strlen+0x2>

00000b88 <mini_vpprintf>:
{
     b88:	7175                	addi	sp,sp,-144
     b8a:	c522                	sw	s0,136(sp)
     b8c:	d2e6                	sw	s9,100(sp)
     b8e:	c706                	sw	ra,140(sp)
     b90:	c326                	sw	s1,132(sp)
     b92:	c14a                	sw	s2,128(sp)
     b94:	dece                	sw	s3,124(sp)
     b96:	dcd2                	sw	s4,120(sp)
     b98:	dad6                	sw	s5,116(sp)
     b9a:	d8da                	sw	s6,112(sp)
     b9c:	d6de                	sw	s7,108(sp)
     b9e:	d4e2                	sw	s8,104(sp)
     ba0:	d0ea                	sw	s10,96(sp)
     ba2:	ceee                	sw	s11,92(sp)
     ba4:	8432                	mv	s0,a2
     ba6:	8cb6                	mv	s9,a3
	if(puts == (void*)0) {
     ba8:	e131                	bnez	a0,bec <mini_vpprintf+0x64>
		puts = _puts; buf = (void*)0;
     baa:	4901                	li	s2,0
     bac:	3aa00493          	li	s1,938
	int n = 0;
     bb0:	4981                	li	s3,0
		if (ch!='%') {
     bb2:	02500a93          	li	s5,37
			if (ch == '0') pad_char = '0';
     bb6:	03000a13          	li	s4,48
			while (ch >= '0' && ch <= '9') {
     bba:	4b25                	li	s6,9
				pad_to = pad_to * 10 + (ch - '0');
     bbc:	4ba9                	li	s7,10
	while ((ch=*(fmt++))) {
     bbe:	00044783          	lbu	a5,0(s0)
     bc2:	00140d13          	addi	s10,s0,1
     bc6:	00f10fa3          	sb	a5,31(sp)
     bca:	e785                	bnez	a5,bf2 <mini_vpprintf+0x6a>
}
     bcc:	40ba                	lw	ra,140(sp)
     bce:	442a                	lw	s0,136(sp)
     bd0:	449a                	lw	s1,132(sp)
     bd2:	490a                	lw	s2,128(sp)
     bd4:	5a66                	lw	s4,120(sp)
     bd6:	5ad6                	lw	s5,116(sp)
     bd8:	5b46                	lw	s6,112(sp)
     bda:	5bb6                	lw	s7,108(sp)
     bdc:	5c26                	lw	s8,104(sp)
     bde:	5c96                	lw	s9,100(sp)
     be0:	5d06                	lw	s10,96(sp)
     be2:	4df6                	lw	s11,92(sp)
     be4:	854e                	mv	a0,s3
     be6:	59f6                	lw	s3,124(sp)
     be8:	6149                	addi	sp,sp,144
     bea:	8082                	ret
     bec:	84aa                	mv	s1,a0
     bee:	892e                	mv	s2,a1
     bf0:	b7c1                	j	bb0 <mini_vpprintf+0x28>
		if (ch!='%') {
     bf2:	01578c63          	beq	a5,s5,c0a <mini_vpprintf+0x82>
			len = puts(&ch, len, buf);
     bf6:	864a                	mv	a2,s2
     bf8:	4585                	li	a1,1
     bfa:	01f10513          	addi	a0,sp,31
     bfe:	9482                	jalr	s1
     c00:	8c66                	mv	s8,s9
	while ((ch=*(fmt++))) {
     c02:	846a                	mv	s0,s10
		n = n + len;
     c04:	99aa                	add	s3,s3,a0
     c06:	8ce2                	mv	s9,s8
     c08:	bf5d                	j	bbe <mini_vpprintf+0x36>
			ch=*(fmt++);
     c0a:	00144703          	lbu	a4,1(s0)
     c0e:	00240793          	addi	a5,s0,2
			if (ch == '0') pad_char = '0';
     c12:	8d52                	mv	s10,s4
			ch=*(fmt++);
     c14:	00e10fa3          	sb	a4,31(sp)
			if (ch == '0') pad_char = '0';
     c18:	07471e63          	bne	a4,s4,c94 <mini_vpprintf+0x10c>
				ch=*(fmt++);
     c1c:	843e                	mv	s0,a5
     c1e:	4681                	li	a3,0
     c20:	4781                	li	a5,0
     c22:	a801                	j	c32 <mini_vpprintf+0xaa>
				pad_to = pad_to * 10 + (ch - '0');
     c24:	037787b3          	mul	a5,a5,s7
				ch=*(fmt++);
     c28:	00044703          	lbu	a4,0(s0)
     c2c:	0405                	addi	s0,s0,1
     c2e:	4685                	li	a3,1
				pad_to = pad_to * 10 + (ch - '0');
     c30:	97b2                	add	a5,a5,a2
			while (ch >= '0' && ch <= '9') {
     c32:	fd070613          	addi	a2,a4,-48
     c36:	0ff67593          	zext.b	a1,a2
     c3a:	febb75e3          	bgeu	s6,a1,c24 <mini_vpprintf+0x9c>
     c3e:	c299                	beqz	a3,c44 <mini_vpprintf+0xbc>
     c40:	00e10fa3          	sb	a4,31(sp)
			if(pad_to > (signed int) sizeof(bf)) {
     c44:	46e1                	li	a3,24
     c46:	8dbe                	mv	s11,a5
     c48:	00f6d363          	bge	a3,a5,c4e <mini_vpprintf+0xc6>
     c4c:	8db6                	mv	s11,a3
			if (ch == 'l') {
     c4e:	06c00693          	li	a3,108
			char l = 0;
     c52:	4601                	li	a2,0
			if (ch == 'l') {
     c54:	00d71863          	bne	a4,a3,c64 <mini_vpprintf+0xdc>
				ch=*(fmt++);
     c58:	00044703          	lbu	a4,0(s0)
				l = 1;
     c5c:	4605                	li	a2,1
				ch=*(fmt++);
     c5e:	0405                	addi	s0,s0,1
     c60:	00e10fa3          	sb	a4,31(sp)
			switch (ch) {
     c64:	01f14683          	lbu	a3,31(sp)
     c68:	06400713          	li	a4,100
     c6c:	06e68363          	beq	a3,a4,cd2 <mini_vpprintf+0x14a>
     c70:	02d76563          	bltu	a4,a3,c9a <mini_vpprintf+0x112>
     c74:	05800793          	li	a5,88
     c78:	0af68063          	beq	a3,a5,d18 <mini_vpprintf+0x190>
     c7c:	06300793          	li	a5,99
     c80:	0af68e63          	beq	a3,a5,d3c <mini_vpprintf+0x1b4>
     c84:	d6a1                	beqz	a3,bcc <mini_vpprintf+0x44>
					len = puts(&ch, len, buf);
     c86:	864a                	mv	a2,s2
     c88:	4585                	li	a1,1
     c8a:	01f10513          	addi	a0,sp,31
     c8e:	9482                	jalr	s1
					break;
     c90:	8c66                	mv	s8,s9
     c92:	bf8d                	j	c04 <mini_vpprintf+0x7c>
			char pad_char = ' ';
     c94:	02000d13          	li	s10,32
     c98:	b751                	j	c1c <mini_vpprintf+0x94>
			switch (ch) {
     c9a:	07500713          	li	a4,117
     c9e:	02e68a63          	beq	a3,a4,cd2 <mini_vpprintf+0x14a>
     ca2:	07800713          	li	a4,120
     ca6:	06e68963          	beq	a3,a4,d18 <mini_vpprintf+0x190>
     caa:	07300713          	li	a4,115
     cae:	fce69ce3          	bne	a3,a4,c86 <mini_vpprintf+0xfe>
					ptr = va_arg(va, char*);
     cb2:	004c8c13          	addi	s8,s9,4
     cb6:	000cac83          	lw	s9,0(s9)
     cba:	c63e                	sw	a5,12(sp)
					len = mini_strlen(ptr);
     cbc:	8566                	mv	a0,s9
     cbe:	3d65                	jal	b76 <strlen>
					if (pad_to > 0) {
     cc0:	47b2                	lw	a5,12(sp)
					len = mini_strlen(ptr);
     cc2:	85aa                	mv	a1,a0
					if (pad_to > 0) {
     cc4:	08f05963          	blez	a5,d56 <mini_vpprintf+0x1ce>
						len = mini_pad(ptr, len, pad_char, pad_to, bf);
     cc8:	1838                	addi	a4,sp,56
     cca:	86ee                	mv	a3,s11
     ccc:	866a                	mv	a2,s10
     cce:	8566                	mv	a0,s9
     cd0:	a025                	j	cf8 <mini_vpprintf+0x170>
						len = mini_itoa(va_arg(va, unsigned long), 10, 0, (ch=='u'), bf2);
     cd2:	004c8c13          	addi	s8,s9,4
					if(l) {
     cd6:	ca05                	beqz	a2,d06 <mini_vpprintf+0x17e>
						len = mini_itoa(va_arg(va, unsigned long), 10, 0, (ch=='u'), bf2);
     cd8:	f8b68693          	addi	a3,a3,-117
     cdc:	1018                	addi	a4,sp,32
     cde:	0016b693          	seqz	a3,a3
     ce2:	000ca503          	lw	a0,0(s9)
     ce6:	4601                	li	a2,0
     ce8:	45a9                	li	a1,10
     cea:	f02ff0ef          	jal	3ec <mini_itoa.part.0>
					len = mini_pad(bf2, len, pad_char, pad_to, bf);
     cee:	1838                	addi	a4,sp,56
     cf0:	86ee                	mv	a3,s11
     cf2:	866a                	mv	a2,s10
     cf4:	85aa                	mv	a1,a0
					len = mini_pad(bf2, len, pad_char, pad_to, bf);
     cf6:	1008                	addi	a0,sp,32
     cf8:	e28ff0ef          	jal	320 <mini_pad>
     cfc:	85aa                	mv	a1,a0
					len = puts(bf, len, buf);
     cfe:	864a                	mv	a2,s2
     d00:	1828                	addi	a0,sp,56
     d02:	9482                	jalr	s1
					break;
     d04:	b701                	j	c04 <mini_vpprintf+0x7c>
						if(ch == 'u') {
     d06:	07500793          	li	a5,117
     d0a:	1018                	addi	a4,sp,32
     d0c:	00f69463          	bne	a3,a5,d14 <mini_vpprintf+0x18c>
	if (radix > 16)
     d10:	4685                	li	a3,1
     d12:	bfc1                	j	ce2 <mini_vpprintf+0x15a>
     d14:	4681                	li	a3,0
     d16:	b7f1                	j	ce2 <mini_vpprintf+0x15a>
					if(l) {
     d18:	000ca503          	lw	a0,0(s9)
						len = mini_itoa(va_arg(va, unsigned long), 16, (ch=='X'), 1, bf2);
     d1c:	fa868613          	addi	a2,a3,-88
     d20:	1018                	addi	a4,sp,32
     d22:	4685                	li	a3,1
     d24:	00163613          	seqz	a2,a2
     d28:	45c1                	li	a1,16
     d2a:	ec2ff0ef          	jal	3ec <mini_itoa.part.0>
						len = mini_itoa(va_arg(va, unsigned long), 10, 0, (ch=='u'), bf2);
     d2e:	004c8c13          	addi	s8,s9,4
	if (radix > 16)
     d32:	85aa                	mv	a1,a0
					len = mini_pad(bf2, len, pad_char, pad_to, bf);
     d34:	1838                	addi	a4,sp,56
     d36:	86ee                	mv	a3,s11
     d38:	866a                	mv	a2,s10
     d3a:	bf75                	j	cf6 <mini_vpprintf+0x16e>
					ch = (char)(va_arg(va, int));
     d3c:	000ca783          	lw	a5,0(s9)
     d40:	004c8c13          	addi	s8,s9,4
					len = mini_pad(&ch, 1, pad_char, pad_to, bf);
     d44:	1838                	addi	a4,sp,56
					ch = (char)(va_arg(va, int));
     d46:	00f10fa3          	sb	a5,31(sp)
					len = mini_pad(&ch, 1, pad_char, pad_to, bf);
     d4a:	86ee                	mv	a3,s11
     d4c:	866a                	mv	a2,s10
     d4e:	4585                	li	a1,1
     d50:	01f10513          	addi	a0,sp,31
     d54:	b755                	j	cf8 <mini_vpprintf+0x170>
						len = puts(ptr, len, buf);
     d56:	864a                	mv	a2,s2
     d58:	8566                	mv	a0,s9
     d5a:	b765                	j	d02 <mini_vpprintf+0x17a>

00000d5c <printf>:
{
     d5c:	7139                	addi	sp,sp,-64
     d5e:	d432                	sw	a2,40(sp)
	int ret_status = mini_vpprintf(__puts_uart, 0, format, args);
     d60:	862a                	mv	a2,a0
     d62:	6505                	lui	a0,0x1
{
     d64:	d22e                	sw	a1,36(sp)
     d66:	d636                	sw	a3,44(sp)
	int ret_status = mini_vpprintf(__puts_uart, 0, format, args);
     d68:	4581                	li	a1,0
	va_start( args, format );
     d6a:	1054                	addi	a3,sp,36
	int ret_status = mini_vpprintf(__puts_uart, 0, format, args);
     d6c:	9bc50513          	addi	a0,a0,-1604 # 9bc <__puts_uart>
{
     d70:	ce06                	sw	ra,28(sp)
     d72:	d83a                	sw	a4,48(sp)
     d74:	da3e                	sw	a5,52(sp)
     d76:	dc42                	sw	a6,56(sp)
     d78:	de46                	sw	a7,60(sp)
	va_start( args, format );
     d7a:	c636                	sw	a3,12(sp)
	int ret_status = mini_vpprintf(__puts_uart, 0, format, args);
     d7c:	3531                	jal	b88 <mini_vpprintf>
}
     d7e:	40f2                	lw	ra,28(sp)
     d80:	6121                	addi	sp,sp,64
     d82:	8082                	ret

00000d84 <SetupRegisterMap.isra.0>:
#include "static_i2c.h"

#define LSM6DS3_ADDRESS 0x6a
#define QMC6309_ADDRESS 0x7c

int SetupRegisterMap( int address, const uint8_t * regptr, int regs, const char * name )
     d84:	7139                	addi	sp,sp,-64
     d86:	da26                	sw	s1,52(sp)
     d88:	d84a                	sw	s2,48(sp)
     d8a:	d452                	sw	s4,40(sp)
	DSCL_IHIGH
     d8c:	400014b7          	lui	s1,0x40001
     d90:	6a05                	lui	s4,0x1
	DSDA_OUTPUT
     d92:	40001937          	lui	s2,0x40001
	int i;
	int fail = 0;
	for( i = 0; i < regs; i++ )
	{
		SendStart();
		int b = SendByte( address<<1 );
     d96:	0506                	slli	a0,a0,0x1
int SetupRegisterMap( int address, const uint8_t * regptr, int regs, const char * name )
     d98:	dc22                	sw	s0,56(sp)
     d9a:	d64e                	sw	s3,44(sp)
     d9c:	d256                	sw	s5,36(sp)
     d9e:	d05a                	sw	s6,32(sp)
     da0:	ce5e                	sw	s7,28(sp)
     da2:	cc62                	sw	s8,24(sp)
     da4:	de06                	sw	ra,60(sp)
     da6:	ca66                	sw	s9,20(sp)
     da8:	842e                	mv	s0,a1
     daa:	8bb2                	mv	s7,a2
     dac:	8b36                	mv	s6,a3
	for( i = 0; i < regs; i++ )
     dae:	4a81                	li	s5,0
	DSCL_IHIGH
     db0:	800a0a13          	addi	s4,s4,-2048 # 800 <SendByte+0xbc>
     db4:	0b848493          	addi	s1,s1,184 # 400010b8 <_eusrstack+0x1fffe0b8>
	DSDA_OUTPUT
     db8:	0ac90913          	addi	s2,s2,172 # 400010ac <_eusrstack+0x1fffe0ac>
     dbc:	40000c13          	li	s8,1024
		int b = SendByte( address<<1 );
     dc0:	0ff57993          	zext.b	s3,a0
	DSCL_IHIGH
     dc4:	6505                	lui	a0,0x1
     dc6:	4585                	li	a1,1
     dc8:	80050513          	addi	a0,a0,-2048 # 800 <SendByte+0xbc>
     dcc:	3a39                	jal	6ea <funPinMode>
     dce:	0144a023          	sw	s4,0(s1)
	DSDA_OUTPUT
     dd2:	458d                	li	a1,3
     dd4:	40000513          	li	a0,1024
     dd8:	01892023          	sw	s8,0(s2)
     ddc:	3239                	jal	6ea <funPinMode>
	DSCL_OUTPUT
     dde:	6505                	lui	a0,0x1
     de0:	80050513          	addi	a0,a0,-2048 # 800 <SendByte+0xbc>
     de4:	01492023          	sw	s4,0(s2)
     de8:	458d                	li	a1,3
     dea:	3201                	jal	6ea <funPinMode>
     dec:	854e                	mv	a0,s3
     dee:	3a99                	jal	744 <SendByte>
		if( b )
     df0:	c51d                	beqz	a0,e1e <SetupRegisterMap.isra.0+0x9a>
		{
			printf( "%s Cannot Configure @ %d\n", name, i );
     df2:	6509                	lui	a0,0x2
     df4:	8656                	mv	a2,s5
     df6:	85da                	mv	a1,s6
     df8:	a4c50513          	addi	a0,a0,-1460 # 1a4c <main+0x6ec>
     dfc:	3785                	jal	d5c <printf>
	for( i = 0; i < regs; i++ )
     dfe:	0a85                	addi	s5,s5,1
     e00:	fd7a92e3          	bne	s5,s7,dc4 <SetupRegisterMap.isra.0+0x40>
		SendStop();
		printf( "%s %02xh = %02x [%s]\n", name, a, v, b?"FAIL":"OK" );
		fail |= b;
	}
	return fail;
}
     e04:	50f2                	lw	ra,60(sp)
     e06:	5462                	lw	s0,56(sp)
     e08:	54d2                	lw	s1,52(sp)
     e0a:	5942                	lw	s2,48(sp)
     e0c:	59b2                	lw	s3,44(sp)
     e0e:	5a22                	lw	s4,40(sp)
     e10:	5a92                	lw	s5,36(sp)
     e12:	5b02                	lw	s6,32(sp)
     e14:	4bf2                	lw	s7,28(sp)
     e16:	4c62                	lw	s8,24(sp)
     e18:	4cd2                	lw	s9,20(sp)
     e1a:	6121                	addi	sp,sp,64
     e1c:	8082                	ret
		int a = *(regptr++);
     e1e:	00044603          	lbu	a2,0(s0)
		int v = *(regptr++);
     e22:	00240c93          	addi	s9,s0,2
		SendByte( a );
     e26:	8532                	mv	a0,a2
     e28:	c632                	sw	a2,12(sp)
     e2a:	3a29                	jal	744 <SendByte>
		int v = *(regptr++);
     e2c:	00144683          	lbu	a3,1(s0)
		b = SendByte( v );
     e30:	8536                	mv	a0,a3
     e32:	c436                	sw	a3,8(sp)
     e34:	3a01                	jal	744 <SendByte>
	DSDA_OUTPUT
     e36:	458d                	li	a1,3
     e38:	842a                	mv	s0,a0
     e3a:	01892023          	sw	s8,0(s2)
     e3e:	40000513          	li	a0,1024
     e42:	8a9ff0ef          	jal	6ea <funPinMode>
	DSCL_IHIGH
     e46:	6505                	lui	a0,0x1
     e48:	4585                	li	a1,1
     e4a:	80050513          	addi	a0,a0,-2048 # 800 <SendByte+0xbc>
     e4e:	89dff0ef          	jal	6ea <funPinMode>
	DSDA_IHIGH
     e52:	4585                	li	a1,1
	DSCL_IHIGH
     e54:	0144a023          	sw	s4,0(s1)
	DSDA_IHIGH
     e58:	40000513          	li	a0,1024
     e5c:	88fff0ef          	jal	6ea <funPinMode>
     e60:	0184a023          	sw	s8,0(s1)
		printf( "%s %02xh = %02x [%s]\n", name, a, v, b?"FAIL":"OK" );
     e64:	46a2                	lw	a3,8(sp)
     e66:	4632                	lw	a2,12(sp)
     e68:	c819                	beqz	s0,e7e <SetupRegisterMap.isra.0+0xfa>
     e6a:	6709                	lui	a4,0x2
     e6c:	a4070713          	addi	a4,a4,-1472 # 1a40 <main+0x6e0>
     e70:	6509                	lui	a0,0x2
     e72:	85da                	mv	a1,s6
     e74:	a6850513          	addi	a0,a0,-1432 # 1a68 <main+0x708>
     e78:	35d5                	jal	d5c <printf>
		int v = *(regptr++);
     e7a:	8466                	mv	s0,s9
     e7c:	b749                	j	dfe <SetupRegisterMap.isra.0+0x7a>
		printf( "%s %02xh = %02x [%s]\n", name, a, v, b?"FAIL":"OK" );
     e7e:	6709                	lui	a4,0x2
     e80:	a4870713          	addi	a4,a4,-1464 # 1a48 <main+0x6e8>
     e84:	b7f5                	j	e70 <SetupRegisterMap.isra.0+0xec>

00000e86 <mini_vsnprintf>:
{
     e86:	1101                	addi	sp,sp,-32
     e88:	ce06                	sw	ra,28(sp)
     e8a:	cc22                	sw	s0,24(sp)
	b.buffer = buffer;
     e8c:	c22a                	sw	a0,4(sp)
	b.pbuffer = buffer;
     e8e:	c42a                	sw	a0,8(sp)
	b.buffer_len = buffer_len;
     e90:	c62e                	sw	a1,12(sp)
	if(buffer_len == 0) buffer = (void*) 0;
     e92:	c19d                	beqz	a1,eb8 <mini_vsnprintf+0x32>
	int n = mini_vpprintf(_puts, (buffer != (void*)0)?&b:(void*)0, fmt, va);
     e94:	00a037b3          	snez	a5,a0
     e98:	004c                	addi	a1,sp,4
     e9a:	40f007b3          	neg	a5,a5
     e9e:	842a                	mv	s0,a0
     ea0:	8dfd                	and	a1,a1,a5
     ea2:	3aa00513          	li	a0,938
     ea6:	31cd                	jal	b88 <mini_vpprintf>
	if(buffer == (void*) 0) {
     ea8:	c401                	beqz	s0,eb0 <mini_vsnprintf+0x2a>
	return b.pbuffer - b.buffer;
     eaa:	4522                	lw	a0,8(sp)
     eac:	4792                	lw	a5,4(sp)
     eae:	8d1d                	sub	a0,a0,a5
}
     eb0:	40f2                	lw	ra,28(sp)
     eb2:	4462                	lw	s0,24(sp)
     eb4:	6105                	addi	sp,sp,32
     eb6:	8082                	ret
     eb8:	4401                	li	s0,0
	int n = mini_vpprintf(_puts, (buffer != (void*)0)?&b:(void*)0, fmt, va);
     eba:	4581                	li	a1,0
     ebc:	b7dd                	j	ea2 <mini_vsnprintf+0x1c>

00000ebe <sprintf>:
{
     ebe:	7139                	addi	sp,sp,-64
     ec0:	d432                	sw	a2,40(sp)
	int ret = mini_vsnprintf( buffer, INT_MAX, format, args );
     ec2:	862e                	mv	a2,a1
     ec4:	800005b7          	lui	a1,0x80000
{
     ec8:	d636                	sw	a3,44(sp)
	int ret = mini_vsnprintf( buffer, INT_MAX, format, args );
     eca:	15fd                	addi	a1,a1,-1 # 7fffffff <_eusrstack+0x5fffcfff>
	va_start( args, format );
     ecc:	1034                	addi	a3,sp,40
{
     ece:	ce06                	sw	ra,28(sp)
     ed0:	d83a                	sw	a4,48(sp)
     ed2:	da3e                	sw	a5,52(sp)
     ed4:	dc42                	sw	a6,56(sp)
     ed6:	de46                	sw	a7,60(sp)
	va_start( args, format );
     ed8:	c636                	sw	a3,12(sp)
	int ret = mini_vsnprintf( buffer, INT_MAX, format, args );
     eda:	3775                	jal	e86 <mini_vsnprintf>
}
     edc:	40f2                	lw	ra,28(sp)
     ede:	6121                	addi	sp,sp,64
     ee0:	8082                	ret

00000ee2 <memset>:
WEAK void *memset(void *dest, int c, size_t n) { unsigned char *s = dest; for (; n; n--, s++) *s = c; return dest; }
     ee2:	962a                	add	a2,a2,a0
     ee4:	87aa                	mv	a5,a0
     ee6:	00c79363          	bne	a5,a2,eec <memset+0xa>
     eea:	8082                	ret
     eec:	00b78023          	sb	a1,0(a5)
     ef0:	0785                	addi	a5,a5,1
     ef2:	bfd5                	j	ee6 <memset+0x4>

00000ef4 <ssd1306_setbuf.constprop.0>:
	memset(ssd1306_buffer, color ? 0xFF : 0x00, sizeof(ssd1306_buffer));
     ef4:	6605                	lui	a2,0x1
     ef6:	20001537          	lui	a0,0x20001
     efa:	80060613          	addi	a2,a2,-2048 # 800 <SendByte+0xbc>
     efe:	4581                	li	a1,0
     f00:	97c50513          	addi	a0,a0,-1668 # 2000097c <ssd1306_buffer>
     f04:	bff9                	j	ee2 <memset>

00000f06 <ModeMenuLoop>:

	int selectedEntry;
} ModeMenu;

void ModeMenuLoop( void * mode, uint32_t deltaTime, uint32_t * pressures, uint32_t clickedMask, uint32_t lastClickMask )
{
     f06:	7175                	addi	sp,sp,-144
     f08:	c522                	sw	s0,136(sp)
     f0a:	c326                	sw	s1,132(sp)
     f0c:	843a                	mv	s0,a4
     f0e:	c14a                	sw	s2,128(sp)
     f10:	84aa                	mv	s1,a0
     f12:	8936                	mv	s2,a3
     f14:	c706                	sw	ra,140(sp)
	ModeMenu *m  = (ModeMenu*)mode;
	ssd1306_setbuf(0x00); // Clear screen
     f16:	3ff9                	jal	ef4 <ssd1306_setbuf.constprop.0>
	int i;
	for( i = 1; i < sizeof(gameModes)/sizeof(gameModes[0]); i++ )
	{
		// Draw stuff to screen
		char st[128];
		sprintf( st, "%c%s", m->selectedEntry == i ? '>':' ', gameModes[i] );
     f18:	4498                	lw	a4,8(s1)
	uint32_t newClickedMask = (clickedMask & ( clickedMask ^ lastClickMask ) );
     f1a:	fff44413          	not	s0,s0
		sprintf( st, "%c%s", m->selectedEntry == i ? '>':' ', gameModes[i] );
     f1e:	4785                	li	a5,1
	uint32_t newClickedMask = (clickedMask & ( clickedMask ^ lastClickMask ) );
     f20:	01247433          	and	s0,s0,s2
		sprintf( st, "%c%s", m->selectedEntry == i ? '>':' ', gameModes[i] );
     f24:	03e00613          	li	a2,62
     f28:	00f70463          	beq	a4,a5,f30 <ModeMenuLoop+0x2a>
     f2c:	02000613          	li	a2,32
     f30:	6689                	lui	a3,0x2
     f32:	6589                	lui	a1,0x2
     f34:	a8068693          	addi	a3,a3,-1408 # 1a80 <main+0x720>
     f38:	a8858593          	addi	a1,a1,-1400 # 1a88 <main+0x728>
     f3c:	850a                	mv	a0,sp
     f3e:	3741                	jal	ebe <sprintf>
		ssd1306_drawstr_sz(0, 20*(i-1), st, 1, 2 );
     f40:	858a                	mv	a1,sp
     f42:	4501                	li	a0,0
     f44:	8c7ff0ef          	jal	80a <ssd1306_drawstr_sz.constprop.0>
	}

	int ent = m->selectedEntry;
	if( newClickedMask & 1 )
     f48:	00147713          	andi	a4,s0,1
	int ent = m->selectedEntry;
     f4c:	449c                	lw	a5,8(s1)
	if( newClickedMask & 1 )
     f4e:	c709                	beqz	a4,f58 <ModeMenuLoop+0x52>
	{
		ent--;
     f50:	17fd                	addi	a5,a5,-1
		if( ent < 1 ) ent = 1;
     f52:	00f04363          	bgtz	a5,f58 <ModeMenuLoop+0x52>
     f56:	4785                	li	a5,1
	}
	if( newClickedMask & 4 )
     f58:	00447713          	andi	a4,s0,4
     f5c:	c711                	beqz	a4,f68 <ModeMenuLoop+0x62>
	{
		ent++;
     f5e:	0785                	addi	a5,a5,1
		if( ent >= sizeof(gameModes)/sizeof(gameModes[0]) ) ent = sizeof(gameModes)/sizeof(gameModes[0])-1;
     f60:	4705                	li	a4,1
     f62:	00f77363          	bgeu	a4,a5,f68 <ModeMenuLoop+0x62>
     f66:	87ba                	mv	a5,a4
	}
	m->selectedEntry = ent;
     f68:	c49c                	sw	a5,8(s1)

	if( newClickedMask & 2 )
     f6a:	8809                	andi	s0,s0,2
     f6c:	cc09                	beqz	s0,f86 <ModeMenuLoop+0x80>
} game;

// Add it to this list.
void SelectMode( int modeNumber )
{
	switch(modeNumber)
     f6e:	4685                	li	a3,1
     f70:	ea418713          	addi	a4,gp,-348 # 20000530 <game>
     f74:	00d78f63          	beq	a5,a3,f92 <ModeMenuLoop+0x8c>
	ssd1306_refresh();
}

void EnterMenuMode( ModeMenu * m )
{
	memset( m, 0, sizeof( *m ) );
     f78:	ea01a423          	sw	zero,-344(gp) # 20000534 <game+0x4>
	m->Update = ModeMenuLoop;
     f7c:	6785                	lui	a5,0x1
     f7e:	f0678793          	addi	a5,a5,-250 # f06 <ModeMenuLoop>
     f82:	c31c                	sw	a5,0(a4)
	m->selectedEntry = 1;
     f84:	c714                	sw	a3,8(a4)
}
     f86:	442a                	lw	s0,136(sp)
     f88:	40ba                	lw	ra,140(sp)
     f8a:	449a                	lw	s1,132(sp)
     f8c:	490a                	lw	s2,128(sp)
     f8e:	6149                	addi	sp,sp,144
	ssd1306_refresh();
     f90:	bc6d                	j	a4a <ssd1306_refresh>
}


void EnterTestMode( ModeTest * m )
{
	memset( m, 0, sizeof(*m) );
     f92:	ea01a623          	sw	zero,-340(gp) # 20000538 <game+0x8>
	m->Update = ModeTestLoop;
     f96:	6785                	lui	a5,0x1
     f98:	1bc78793          	addi	a5,a5,444 # 11bc <ModeTestLoop>
     f9c:	c31c                	sw	a5,0(a4)
	m->WirelessRX = ModeTestWirelessRX;
     f9e:	6785                	lui	a5,0x1
     fa0:	02878793          	addi	a5,a5,40 # 1028 <ModeTestWirelessRX>
     fa4:	c35c                	sw	a5,4(a4)
	m->frameNumber = 0;
}
     fa6:	b7c5                	j	f86 <ModeMenuLoop+0x80>

00000fa8 <memcpy>:
	for (; n; n--) *d++ = *s++;
     fa8:	4781                	li	a5,0
     faa:	00f61363          	bne	a2,a5,fb0 <memcpy+0x8>
}
     fae:	8082                	ret
	for (; n; n--) *d++ = *s++;
     fb0:	00f58733          	add	a4,a1,a5
     fb4:	00074683          	lbu	a3,0(a4)
     fb8:	00f50733          	add	a4,a0,a5
     fbc:	0785                	addi	a5,a5,1
     fbe:	00d70023          	sb	a3,0(a4)
     fc2:	b7e5                	j	faa <memcpy+0x2>

00000fc4 <putchar>:

// single to debug intf
WEAK int putchar(int c)
{
	if( ( *DMDATA0 & 0xc0 ) == 0xc0 ) return 0;
     fc4:	e00007b7          	lui	a5,0xe0000
     fc8:	34078793          	addi	a5,a5,832 # e0000340 <_eusrstack+0xbfffd340>
     fcc:	4398                	lw	a4,0(a5)
     fce:	0c000693          	li	a3,192
     fd2:	0c077713          	andi	a4,a4,192
     fd6:	04d70763          	beq	a4,a3,1024 <putchar+0x60>
{
     fda:	1141                	addi	sp,sp,-16
     fdc:	00100737          	lui	a4,0x100
     fe0:	c422                	sw	s0,8(sp)
     fe2:	c606                	sw	ra,12(sp)
     fe4:	842a                	mv	s0,a0
     fe6:	0705                	addi	a4,a4,1 # 100001 <firmware.c.cec90121+0xfca89>

	int timeout = FUNCONF_DEBUGPRINTF_TIMEOUT;
	uint32_t lastdmd = 0;

	while( ( lastdmd = (*DMDATA0) ) & 0x80 )
     fe8:	4394                	lw	a3,0(a5)
     fea:	0806f613          	andi	a2,a3,128
     fee:	e205                	bnez	a2,100e <putchar+0x4a>
			return 0;
		}
	}

	// Simply seeking input.
	if( lastdmd ) internal_handle_input( (uint32_t*)DMDATA0 );
     ff0:	c299                	beqz	a3,ff6 <putchar+0x32>
     ff2:	8d5ff0ef          	jal	8c6 <internal_handle_input.constprop.0>

	// Write out character.
	*DMDATA0 = 0x85 | ((const char)c<<8);
     ff6:	00841793          	slli	a5,s0,0x8
     ffa:	07c2                	slli	a5,a5,0x10
     ffc:	83c1                	srli	a5,a5,0x10
     ffe:	0857e793          	ori	a5,a5,133
    1002:	e0000737          	lui	a4,0xe0000
    1006:	34f72023          	sw	a5,832(a4) # e0000340 <_eusrstack+0xbfffd340>
    100a:	4505                	li	a0,1
    100c:	a801                	j	101c <putchar+0x58>
		if( timeout-- == 0 )
    100e:	177d                	addi	a4,a4,-1
    1010:	ff61                	bnez	a4,fe8 <putchar+0x24>
			*DMDATA0 |= 0xc0;
    1012:	4398                	lw	a4,0(a5)
	if( ( *DMDATA0 & 0xc0 ) == 0xc0 ) return 0;
    1014:	4501                	li	a0,0
			*DMDATA0 |= 0xc0;
    1016:	0c076713          	ori	a4,a4,192
    101a:	c398                	sw	a4,0(a5)
	return 1;
}
    101c:	40b2                	lw	ra,12(sp)
    101e:	4422                	lw	s0,8(sp)
    1020:	0141                	addi	sp,sp,16
    1022:	8082                	ret
	if( ( *DMDATA0 & 0xc0 ) == 0xc0 ) return 0;
    1024:	4501                	li	a0,0
}
    1026:	8082                	ret

00001028 <ModeTestWirelessRX>:
{
    1028:	7179                	addi	sp,sp,-48
    102a:	d422                	sw	s0,40(sp)
    102c:	d226                	sw	s1,36(sp)
    102e:	d04a                	sw	s2,32(sp)
    1030:	ce4e                	sw	s3,28(sp)
    1032:	d606                	sw	ra,44(sp)
	printf( "%02x:%02x:%02x:%02x:%02x:%02x:%3d %d:", txmac[0], txmac[1], txmac[2], txmac[3], txmac[4], txmac[5], rssi, messageLength );
    1034:	c032                	sw	a2,0(sp)
    1036:	00554803          	lbu	a6,5(a0)
    103a:	00454783          	lbu	a5,4(a0)
    103e:	00354703          	lbu	a4,3(a0)
    1042:	88b6                	mv	a7,a3
{
    1044:	892e                	mv	s2,a1
	printf( "%02x:%02x:%02x:%02x:%02x:%02x:%3d %d:", txmac[0], txmac[1], txmac[2], txmac[3], txmac[4], txmac[5], rssi, messageLength );
    1046:	00254683          	lbu	a3,2(a0)
    104a:	00054583          	lbu	a1,0(a0)
{
    104e:	8432                	mv	s0,a2
	printf( "%02x:%02x:%02x:%02x:%02x:%02x:%3d %d:", txmac[0], txmac[1], txmac[2], txmac[3], txmac[4], txmac[5], rssi, messageLength );
    1050:	00154603          	lbu	a2,1(a0)
    1054:	6509                	lui	a0,0x2
    1056:	a9050513          	addi	a0,a0,-1392 # 1a90 <main+0x730>
    105a:	3309                	jal	d5c <printf>
	for( i = 0; i < messageLength; i++ )
    105c:	4481                	li	s1,0
		printf( "%02x ", message[i] );
    105e:	6989                	lui	s3,0x2
	for( i = 0; i < messageLength; i++ )
    1060:	0084ca63          	blt	s1,s0,1074 <ModeTestWirelessRX+0x4c>
}
    1064:	5422                	lw	s0,40(sp)
    1066:	50b2                	lw	ra,44(sp)
    1068:	5492                	lw	s1,36(sp)
    106a:	5902                	lw	s2,32(sp)
    106c:	49f2                	lw	s3,28(sp)
	printf( "\n" );
    106e:	4529                	li	a0,10
}
    1070:	6145                	addi	sp,sp,48
	printf( "\n" );
    1072:	bf89                	j	fc4 <putchar>
		printf( "%02x ", message[i] );
    1074:	009907b3          	add	a5,s2,s1
    1078:	0007c583          	lbu	a1,0(a5)
    107c:	ab898513          	addi	a0,s3,-1352 # 1ab8 <main+0x758>
	for( i = 0; i < messageLength; i++ )
    1080:	0485                	addi	s1,s1,1
		printf( "%02x ", message[i] );
    1082:	39e9                	jal	d5c <printf>
	for( i = 0; i < messageLength; i++ )
    1084:	bff1                	j	1060 <ModeTestWirelessRX+0x38>

00001086 <SystemInit>:
	}
	else
	{
		if((sc & RB_CLK_SYS_MOD) == 0x40) // PLL div
		{
			SYS_SAFE_ACCESS(
    1086:	400017b7          	lui	a5,0x40001
    108a:	04078793          	addi	a5,a5,64 # 40001040 <_eusrstack+0x1fffe040>
    108e:	05700593          	li	a1,87
    1092:	00b78023          	sb	a1,0(a5)
    1096:	fa800613          	li	a2,-88
    109a:	00c78023          	sb	a2,0(a5)
    109e:	0001                	nop
    10a0:	0001                	nop
    10a2:	40001737          	lui	a4,0x40001
    10a6:	00a74683          	lbu	a3,10(a4) # 4000100a <_eusrstack+0x1fffe00a>
    10aa:	0106e693          	ori	a3,a3,16
    10ae:	00d70523          	sb	a3,10(a4)
    10b2:	40002737          	lui	a4,0x40002
    10b6:	4685                	li	a3,1
    10b8:	80d703a3          	sb	a3,-2041(a4) # 40001807 <_eusrstack+0x1fffe807>
    10bc:	80574683          	lbu	a3,-2043(a4)
    10c0:	0106e693          	ori	a3,a3,16
    10c4:	80d702a3          	sb	a3,-2043(a4)
    10c8:	00078023          	sb	zero,0(a5)
    10cc:	0001                	nop
    10ce:	0001                	nop
		{
			SYS_SAFE_ACCESS(
				R8_FLASH_CFG = (sc & 0x1F) ? 0x02 : 0x07;
			);
		}
		SYS_SAFE_ACCESS(
    10d0:	00b78023          	sb	a1,0(a5)
    10d4:	00c78023          	sb	a2,0(a5)
    10d8:	0001                	nop
    10da:	0001                	nop
    10dc:	40001737          	lui	a4,0x40001
    10e0:	04a00693          	li	a3,74
    10e4:	00d70423          	sb	a3,8(a4) # 40001008 <_eusrstack+0x1fffe008>
    10e8:	00078023          	sb	zero,0(a5)
    10ec:	0001                	nop
    10ee:	0001                	nop
	*DMDATA1 = 0x00;
    10f0:	e00007b7          	lui	a5,0xe0000
    10f4:	3407a223          	sw	zero,836(a5) # e0000344 <_eusrstack+0xbfffd344>
	*DMDATA0 = 0x80;
    10f8:	08000713          	li	a4,128
    10fc:	34e7a023          	sw	a4,832(a5)
	SetupDebugPrintf();
#endif
#if defined(FUNCONF_SUPPORT_CONSTRUCTORS) && FUNCONF_SUPPORT_CONSTRUCTORS
	CallConstructors();
#endif
}
    1100:	8082                	ret

00001102 <LLE_IRQHandler>:
void LLE_IRQHandler() {
    1102:	715d                	addi	sp,sp,-80
    1104:	de22                	sw	s0,60(sp)
		rx_flag = LL->STATUS & 1;
    1106:	4000c437          	lui	s0,0x4000c
    110a:	20040413          	addi	s0,s0,512 # 4000c200 <_eusrstack+0x20009200>
void LLE_IRQHandler() {
    110e:	dc26                	sw	s1,56(sp)
    1110:	d23a                	sw	a4,36(sp)
		rx_flag = LL->STATUS & 1;
    1112:	4404                	lw	s1,8(s0)
void LLE_IRQHandler() {
    1114:	d03e                	sw	a5,32(sp)
		LL->STATUS &= LL->INT_EN;
    1116:	4458                	lw	a4,12(s0)
    1118:	441c                	lw	a5,8(s0)
void LLE_IRQHandler() {
    111a:	da2a                	sw	a0,52(sp)
    111c:	c686                	sw	ra,76(sp)
    111e:	c496                	sw	t0,72(sp)
    1120:	c29a                	sw	t1,68(sp)
    1122:	c09e                	sw	t2,64(sp)
    1124:	d82e                	sw	a1,48(sp)
    1126:	d632                	sw	a2,44(sp)
    1128:	d436                	sw	a3,40(sp)
    112a:	ce42                	sw	a6,28(sp)
    112c:	cc46                	sw	a7,24(sp)
    112e:	ca72                	sw	t3,20(sp)
    1130:	c876                	sw	t4,16(sp)
    1132:	c67a                	sw	t5,12(sp)
    1134:	c47e                	sw	t6,8(sp)
		LL->STATUS &= LL->INT_EN;
    1136:	8ff9                	and	a5,a5,a4
		BB->CTRL_TX = (BB->CTRL_TX & 0xfffffffc) | 1;
    1138:	4000c737          	lui	a4,0x4000c
		LL->STATUS &= LL->INT_EN;
    113c:	c41c                	sw	a5,8(s0)
		BB->CTRL_TX = (BB->CTRL_TX & 0xfffffffc) | 1;
    113e:	10070713          	addi	a4,a4,256 # 4000c100 <_eusrstack+0x20009100>
    1142:	5b5c                	lw	a5,52(a4)
	DevSetMode(0);
    1144:	4501                	li	a0,0
	if( rx_flag )
    1146:	8885                	andi	s1,s1,1
		BB->CTRL_TX = (BB->CTRL_TX & 0xfffffffc) | 1;
    1148:	9bf1                	andi	a5,a5,-4
    114a:	0017e793          	ori	a5,a5,1
    114e:	db5c                	sw	a5,52(a4)
	DevSetMode(0);
    1150:	b68ff0ef          	jal	4b8 <DevSetMode>
	LL->CTRL_MOD &= CTRL_MOD_RFSTOP;
    1154:	483c                	lw	a5,80(s0)
    1156:	8ff7f793          	andi	a5,a5,-1793
    115a:	c83c                	sw	a5,80(s0)
	LL->LL0 |= 0x08;
    115c:	401c                	lw	a5,0(s0)
    115e:	0087e793          	ori	a5,a5,8
    1162:	c01c                	sw	a5,0(s0)
	if( rx_flag )
    1164:	c49d                	beqz	s1,1192 <LLE_IRQHandler+0x90>
	if( !iSLERCRCOK() ) return;
    1166:	1ffff097          	auipc	ra,0x1ffff
    116a:	eaa080e7          	jalr	-342(ra) # 20000010 <iSLERCRCOK>
    116e:	c115                	beqz	a0,1192 <LLE_IRQHandler+0x90>



void ISLERCallback( uint8_t * txmac, uint8_t * message, int messageLength, int rssi )
{
	if( game.template.WirelessRX )
    1170:	ea418793          	addi	a5,gp,-348 # 20000530 <game>
    1174:	43c0                	lw	s0,4(a5)
    1176:	cc11                	beqz	s0,1192 <LLE_IRQHandler+0x90>
	int rssi = ReadRSSI();
    1178:	1ffff097          	auipc	ra,0x1ffff
    117c:	e88080e7          	jalr	-376(ra) # 20000000 <iSLERRSSI>
	int len = frame[0];
    1180:	eb01c603          	lbu	a2,-336(gp) # 2000053c <LLE_BUF>
	int rssi = ReadRSSI();
    1184:	86aa                	mv	a3,a0
		game.template.WirelessRX( txmac, message, messageLength, rssi );
    1186:	0611                	addi	a2,a2,4
    1188:	eba18593          	addi	a1,gp,-326 # 20000546 <LLE_BUF+0xa>
    118c:	eb218513          	addi	a0,gp,-334 # 2000053e <LLE_BUF+0x2>
    1190:	9402                	jalr	s0
}
    1192:	5472                	lw	s0,60(sp)
    1194:	40b6                	lw	ra,76(sp)
    1196:	42a6                	lw	t0,72(sp)
    1198:	4316                	lw	t1,68(sp)
    119a:	4386                	lw	t2,64(sp)
    119c:	54e2                	lw	s1,56(sp)
    119e:	5552                	lw	a0,52(sp)
    11a0:	55c2                	lw	a1,48(sp)
    11a2:	5632                	lw	a2,44(sp)
    11a4:	56a2                	lw	a3,40(sp)
    11a6:	5712                	lw	a4,36(sp)
    11a8:	5782                	lw	a5,32(sp)
    11aa:	4872                	lw	a6,28(sp)
    11ac:	48e2                	lw	a7,24(sp)
    11ae:	4e52                	lw	t3,20(sp)
    11b0:	4ec2                	lw	t4,16(sp)
    11b2:	4f32                	lw	t5,12(sp)
    11b4:	4fa2                	lw	t6,8(sp)
    11b6:	6161                	addi	sp,sp,80
    11b8:	30200073          	mret

000011bc <ModeTestLoop>:
{
    11bc:	7155                	addi	sp,sp,-208
    11be:	c786                	sw	ra,204(sp)
    11c0:	c1ca                	sw	s2,192(sp)
    11c2:	dd52                	sw	s4,184(sp)
    11c4:	8932                	mv	s2,a2
    11c6:	8a2a                	mv	s4,a0
    11c8:	db56                	sw	s5,180(sp)
    11ca:	d95a                	sw	s6,176(sp)
    11cc:	d562                	sw	s8,168(sp)
    11ce:	d366                	sw	s9,164(sp)
    11d0:	c5a2                	sw	s0,200(sp)
    11d2:	c3a6                	sw	s1,196(sp)
    11d4:	df4e                	sw	s3,188(sp)
    11d6:	d75e                	sw	s7,172(sp)
	ssd1306_setbuf(0x00); // Clear screen
    11d8:	3b31                	jal	ef4 <ssd1306_setbuf.constprop.0>
	sprintf( st, "%08x", (int)SysTick->CNT );
    11da:	e000f7b7          	lui	a5,0xe000f
    11de:	4790                	lw	a2,8(a5)
    11e0:	6589                	lui	a1,0x2
    11e2:	ac058593          	addi	a1,a1,-1344 # 1ac0 <main+0x760>
    11e6:	1008                	addi	a0,sp,32
    11e8:	39d9                	jal	ebe <sprintf>
	ssd1306_drawstr_sz(0, 0, st, 1, 2 );
    11ea:	100c                	addi	a1,sp,32
    11ec:	4501                	li	a0,0
    11ee:	e1cff0ef          	jal	80a <ssd1306_drawstr_sz.constprop.0>
	sprintf( st, "%3d %d", (int)m->frameNumber, (int)pressures[3] );
    11f2:	00c92683          	lw	a3,12(s2)
    11f6:	008a2603          	lw	a2,8(s4)
    11fa:	6589                	lui	a1,0x2
    11fc:	ac858593          	addi	a1,a1,-1336 # 1ac8 <main+0x768>
    1200:	1008                	addi	a0,sp,32
    1202:	3975                	jal	ebe <sprintf>
	ssd1306_drawstr_sz(0, 24, st, 1, 2 );
    1204:	100c                	addi	a1,sp,32
    1206:	4561                	li	a0,24
    1208:	e02ff0ef          	jal	80a <ssd1306_drawstr_sz.constprop.0>
    120c:	02000b13          	li	s6,32
    int err = 2 - 2 * radius;
    1210:	4c05                	li	s8,1
        ssd1306_drawPixel(x + x_pos, y - y_pos, color);
    1212:	05a00a93          	li	s5,90
	for( btn = 0; btn < 3; btn++ )
    1216:	08000c93          	li	s9,128
		int p = pressures[btn]>>9;
    121a:	00092403          	lw	s0,0(s2)
    int y_pos = 0;
    121e:	4981                	li	s3,0
    1220:	8025                	srli	s0,s0,0x9
    int x_pos = -radius;
    1222:	408004b3          	neg	s1,s0
    int err = 2 - 2 * radius;
    1226:	408c0433          	sub	s0,s8,s0
    122a:	0406                	slli	s0,s0,0x1
        ssd1306_drawPixel(x - x_pos, y + y_pos, color);
    122c:	409b0bb3          	sub	s7,s6,s1
    1230:	05a98593          	addi	a1,s3,90
    1234:	4605                	li	a2,1
    1236:	855e                	mv	a0,s7
    1238:	c42e                	sw	a1,8(sp)
    123a:	a42ff0ef          	jal	47c <ssd1306_drawPixel>
        ssd1306_drawPixel(x + x_pos, y + y_pos, color);
    123e:	45a2                	lw	a1,8(sp)
    1240:	009b0533          	add	a0,s6,s1
    1244:	4605                	li	a2,1
    1246:	c62a                	sw	a0,12(sp)
    1248:	a34ff0ef          	jal	47c <ssd1306_drawPixel>
        ssd1306_drawPixel(x + x_pos, y - y_pos, color);
    124c:	4532                	lw	a0,12(sp)
    124e:	413a85b3          	sub	a1,s5,s3
    1252:	4605                	li	a2,1
    1254:	c42e                	sw	a1,8(sp)
    1256:	a26ff0ef          	jal	47c <ssd1306_drawPixel>
        ssd1306_drawPixel(x - x_pos, y - y_pos, color);
    125a:	45a2                	lw	a1,8(sp)
    125c:	4605                	li	a2,1
    125e:	855e                	mv	a0,s7
    1260:	a1cff0ef          	jal	47c <ssd1306_drawPixel>
        if (e2 <= y_pos) {
    1264:	0289c963          	blt	s3,s0,1296 <ModeTestLoop+0xda>
            err += ++y_pos * 2 + 1;
    1268:	0985                	addi	s3,s3,1
    126a:	00199793          	slli	a5,s3,0x1
    126e:	0785                	addi	a5,a5,1 # e000f001 <_eusrstack+0xc000c001>
            if(-x_pos == y_pos && e2 <= x_pos) {
    1270:	40900733          	neg	a4,s1
            err += ++y_pos * 2 + 1;
    1274:	97a2                	add	a5,a5,s0
            if(-x_pos == y_pos && e2 <= x_pos) {
    1276:	00e99563          	bne	s3,a4,1280 <ModeTestLoop+0xc4>
    127a:	0084c563          	blt	s1,s0,1284 <ModeTestLoop+0xc8>
              e2 = 0;
    127e:	4401                	li	s0,0
        if (e2 > x_pos) {
    1280:	0084d963          	bge	s1,s0,1292 <ModeTestLoop+0xd6>
            err += ++x_pos * 2 + 1;
    1284:	0485                	addi	s1,s1,1
    1286:	00149713          	slli	a4,s1,0x1
    128a:	0705                	addi	a4,a4,1
    128c:	97ba                	add	a5,a5,a4
    } while (x_pos <= 0);
    128e:	01848663          	beq	s1,s8,129a <ModeTestLoop+0xde>
    int y_pos = 0;
    1292:	843e                	mv	s0,a5
    1294:	bf61                	j	122c <ModeTestLoop+0x70>
    1296:	87a2                	mv	a5,s0
    1298:	b7e5                	j	1280 <ModeTestLoop+0xc4>
	for( btn = 0; btn < 3; btn++ )
    129a:	020b0b13          	addi	s6,s6,32
    129e:	0911                	addi	s2,s2,4
    12a0:	f79b1de3          	bne	s6,s9,121a <ModeTestLoop+0x5e>
	for( i = 0; i < 10; i++ )
    12a4:	4401                	li	s0,0
		int x = (rand() % (128+80))-40;
    12a6:	0d000493          	li	s1,208
	for( i = 0; i < 10; i++ )
    12aa:	4929                	li	s2,10
	#endif

	// If RANDOM_STRENGTH is level 2, generate a 32-bit output, using 32 random
	// bits from the LFSR
	#if RANDOM_STRENGTH == 2
	rand_out = _rand_gen_32b();
    12ac:	bd2ff0ef          	jal	67e <_rand_gen_32b>
		int x = (rand() % (128+80))-40;
    12b0:	029575b3          	remu	a1,a0,s1
    12b4:	fd858593          	addi	a1,a1,-40
    12b8:	c42e                	sw	a1,8(sp)
    12ba:	bc4ff0ef          	jal	67e <_rand_gen_32b>
		int y = (rand() % (128+80))-40;
    12be:	02957633          	remu	a2,a0,s1
		RenderBSprite( (i&1)?&bubble:&bubblemirror, x, y );
    12c2:	00147793          	andi	a5,s0,1
    12c6:	45a2                	lw	a1,8(sp)
    12c8:	c8c18513          	addi	a0,gp,-884 # 20000318 <bubblemirror>
		int y = (rand() % (128+80))-40;
    12cc:	fd860613          	addi	a2,a2,-40
		RenderBSprite( (i&1)?&bubble:&bubblemirror, x, y );
    12d0:	c399                	beqz	a5,12d6 <ModeTestLoop+0x11a>
    12d2:	d9018513          	addi	a0,gp,-624 # 2000041c <bubble>
	for( i = 0; i < 10; i++ )
    12d6:	0405                	addi	s0,s0,1
		RenderBSprite( (i&1)?&bubble:&bubblemirror, x, y );
    12d8:	aceff0ef          	jal	5a6 <RenderBSprite>
	for( i = 0; i < 10; i++ )
    12dc:	fd2418e3          	bne	s0,s2,12ac <ModeTestLoop+0xf0>
	ssd1306_refresh();
    12e0:	f6aff0ef          	jal	a4a <ssd1306_refresh>
	if( ( m->frameNumber & 0xff ) == 0 )
    12e4:	008a4783          	lbu	a5,8(s4)
    12e8:	efb9                	bnez	a5,1346 <ModeTestLoop+0x18a>
	pkt_tx[0] = 0x02;
    12ea:	6785                	lui	a5,0x1
	memcpy( pkt_tx+2, (uint32_t*)ROM_CFG_MAC_ADDR, 6 );
    12ec:	0003f5b7          	lui	a1,0x3f
	pkt_tx[0] = 0x02;
    12f0:	0789                	addi	a5,a5,2 # 1002 <putchar+0x3e>
	memcpy( pkt_tx+2, (uint32_t*)ROM_CFG_MAC_ADDR, 6 );
    12f2:	4619                	li	a2,6
    12f4:	05e1                	addi	a1,a1,24 # 3f018 <firmware.c.cec90121+0x3baa0>
    12f6:	01210513          	addi	a0,sp,18
	pkt_tx[0] = 0x02;
    12fa:	00f11823          	sh	a5,16(sp)
	memcpy( pkt_tx+2, (uint32_t*)ROM_CFG_MAC_ADDR, 6 );
    12fe:	316d                	jal	fa8 <memcpy>
	memcpy( pkt_tx+10, message, messageLength );
    1300:	6589                	lui	a1,0x2
	pkt_tx[8] = 0xff; // Normally should be 0x03, 0x19, 0x00, 0x00 for BLE
    1302:	57fd                	li	a5,-1
	memcpy( pkt_tx+10, message, messageLength );
    1304:	4619                	li	a2,6
    1306:	ad058593          	addi	a1,a1,-1328 # 1ad0 <main+0x770>
    130a:	01a10513          	addi	a0,sp,26
	pkt_tx[8] = 0xff; // Normally should be 0x03, 0x19, 0x00, 0x00 for BLE
    130e:	00f11c23          	sh	a5,24(sp)
	memcpy( pkt_tx+10, message, messageLength );
    1312:	3959                	jal	fa8 <memcpy>
	Frame_TX(ACCESS_ADDRESS, pkt_tx, messageLength+10, iSLERChannel, PHY_MODE);
    1314:	e941c403          	lbu	s0,-364(gp) # 20000520 <iSLERChannel>
    1318:	4641                	li	a2,16
    131a:	8e89c537          	lui	a0,0x8e89c
    131e:	00c105b3          	add	a1,sp,a2
    1322:	ed650513          	addi	a0,a0,-298 # 8e89bed6 <_eusrstack+0x6e898ed6>
    1326:	4705                	li	a4,1
    1328:	86a2                	mv	a3,s0
    132a:	1ffff097          	auipc	ra,0x1ffff
    132e:	cfe080e7          	jalr	-770(ra) # 20000028 <iSLERTX>
	Frame_RX(ACCESS_ADDRESS, iSLERChannel, PHY_MODE);
    1332:	8e89c537          	lui	a0,0x8e89c
    1336:	4605                	li	a2,1
    1338:	85a2                	mv	a1,s0
    133a:	ed650513          	addi	a0,a0,-298 # 8e89bed6 <_eusrstack+0x6e898ed6>
    133e:	1ffff097          	auipc	ra,0x1ffff
    1342:	e16080e7          	jalr	-490(ra) # 20000154 <iSLERRX>
}
    1346:	40be                	lw	ra,204(sp)
    1348:	442e                	lw	s0,200(sp)
    134a:	449e                	lw	s1,196(sp)
    134c:	490e                	lw	s2,192(sp)
    134e:	59fa                	lw	s3,188(sp)
    1350:	5a6a                	lw	s4,184(sp)
    1352:	5ada                	lw	s5,180(sp)
    1354:	5b4a                	lw	s6,176(sp)
    1356:	5bba                	lw	s7,172(sp)
    1358:	5c2a                	lw	s8,168(sp)
    135a:	5c9a                	lw	s9,164(sp)
    135c:	6169                	addi	sp,sp,208
    135e:	8082                	ret

00001360 <main>:
}


int main()
{
    1360:	7175                	addi	sp,sp,-144
    1362:	c706                	sw	ra,140(sp)
    1364:	c522                	sw	s0,136(sp)
    1366:	c326                	sw	s1,132(sp)
    1368:	c14a                	sw	s2,128(sp)
    136a:	dece                	sw	s3,124(sp)
    136c:	dcd2                	sw	s4,120(sp)
    136e:	dad6                	sw	s5,116(sp)
    1370:	d8da                	sw	s6,112(sp)
    1372:	d6de                	sw	s7,108(sp)
    1374:	d4e2                	sw	s8,104(sp)
    1376:	d2e6                	sw	s9,100(sp)
    1378:	d0ea                	sw	s10,96(sp)
    137a:	ceee                	sw	s11,92(sp)

/////////////////////////////////////////////////////////////////////////////////////////////////

static void BeanboySetup()
{
	SystemInit();
    137c:	3329                	jal	1086 <SystemInit>

	funGpioInitAll(); // no-op on ch5xx

	funPinMode( PA11, GPIO_CFGLR_OUT_10Mhz_PP );
    137e:	6505                	lui	a0,0x1
    1380:	4591                	li	a1,4
    1382:	80050513          	addi	a0,a0,-2048 # 800 <SendByte+0xbc>
//	funDigitalWrite( PA11, 1 ); // BS1 = 1 for I2C
	funDigitalWrite( PA11, 0 ); // BS1 = 0 for SPI
    1386:	400014b7          	lui	s1,0x40001
    138a:	6905                	lui	s2,0x1
	funPinMode( PA11, GPIO_CFGLR_OUT_10Mhz_PP );
    138c:	b5eff0ef          	jal	6ea <funPinMode>
	funDigitalWrite( PA11, 0 ); // BS1 = 0 for SPI
    1390:	0ac48493          	addi	s1,s1,172 # 400010ac <_eusrstack+0x1fffe0ac>
    1394:	80090913          	addi	s2,s2,-2048 # 800 <SendByte+0xbc>

	funPinMode( PA6, GPIO_CFGLR_OUT_10Mhz_PP );
    1398:	4591                	li	a1,4
    139a:	04000513          	li	a0,64
	funDigitalWrite( PA11, 0 ); // BS1 = 0 for SPI
    139e:	0124a023          	sw	s2,0(s1)
	funPinMode( PA6, GPIO_CFGLR_OUT_10Mhz_PP );
    13a2:	b48ff0ef          	jal	6ea <funPinMode>
	funDigitalWrite( PA6, 1 ); // RES
    13a6:	400019b7          	lui	s3,0x40001
    13aa:	04000a93          	li	s5,64
    13ae:	0b59ac23          	sw	s5,184(s3) # 400010b8 <_eusrstack+0x1fffe0b8>
	funPinMode( PA4, GPIO_CFGLR_OUT_10Mhz_PP );
    13b2:	4591                	li	a1,4
    13b4:	4541                	li	a0,16
    13b6:	b34ff0ef          	jal	6ea <funPinMode>
	funDigitalWrite( PA4, 0 ); // SCS
    13ba:	47c1                	li	a5,16
    13bc:	c09c                	sw	a5,0(s1)
	funPinMode( PA10, GPIO_CFGLR_OUT_10Mhz_PP );
    13be:	4591                	li	a1,4
    13c0:	40000513          	li	a0,1024
    13c4:	b26ff0ef          	jal	6ea <funPinMode>
	funDigitalWrite( PA10, 0 ); // D/C
    13c8:	40000a13          	li	s4,1024
	DSDA_IHIGH
    13cc:	4585                	li	a1,1
    13ce:	8552                	mv	a0,s4
    13d0:	0144a023          	sw	s4,0(s1)
    13d4:	b16ff0ef          	jal	6ea <funPinMode>
	DSCL_IHIGH
    13d8:	4585                	li	a1,1
	DSDA_IHIGH
    13da:	0b49ac23          	sw	s4,184(s3)
	DSCL_IHIGH
    13de:	854a                	mv	a0,s2
    13e0:	b0aff0ef          	jal	6ea <funPinMode>
	SetupRegisterMap( QMC6309_ADDRESS, (const uint8_t[]){ 0x0b, 0x80, 0x0b, 0x00 }, 2, "QMC6309 RESET" );
    13e4:	000b87b7          	lui	a5,0xb8
    13e8:	1020                	addi	s0,sp,40
    13ea:	6689                	lui	a3,0x2
    13ec:	07ad                	addi	a5,a5,11 # b800b <firmware.c.cec90121+0xb4a93>
    13ee:	0b29ac23          	sw	s2,184(s3)
    13f2:	ad868693          	addi	a3,a3,-1320 # 1ad8 <main+0x778>
    13f6:	4609                	li	a2,2
    13f8:	85a2                	mv	a1,s0
    13fa:	07c00513          	li	a0,124
    13fe:	d43e                	sw	a5,40(sp)
    1400:	985ff0ef          	jal	d84 <SetupRegisterMap.isra.0>
	SetupRegisterMap( LSM6DS3_ADDRESS, LSM6DS3Regmap, sizeof(LSM6DS3Regmap)/2, "LSM6DS3" );
    1404:	6689                	lui	a3,0x2
    1406:	6589                	lui	a1,0x2
    1408:	ae868693          	addi	a3,a3,-1304 # 1ae8 <main+0x788>
    140c:	4635                	li	a2,13
    140e:	2f858593          	addi	a1,a1,760 # 22f8 <LSM6DS3Regmap.1>
    1412:	06a00513          	li	a0,106
    1416:	96fff0ef          	jal	d84 <SetupRegisterMap.isra.0>
	SetupRegisterMap( QMC6309_ADDRESS, QMC6309Regmap, sizeof(QMC6309Regmap)/2, "QMC6309" );
    141a:	6689                	lui	a3,0x2
    141c:	af068693          	addi	a3,a3,-1296 # 1af0 <main+0x790>
    1420:	4609                	li	a2,2
    1422:	c8818593          	addi	a1,gp,-888 # 20000314 <QMC6309Regmap.0>
    1426:	07c00513          	li	a0,124
    142a:	95bff0ef          	jal	d84 <SetupRegisterMap.isra.0>
	funPinMode( PIN_SCL, GPIO_CFGLR_OUT_2Mhz_PP );
    142e:	458d                	li	a1,3
    1430:	854a                	mv	a0,s2
    1432:	ab8ff0ef          	jal	6ea <funPinMode>
	funPinMode( PIN_SDA, GPIO_CFGLR_OUT_2Mhz_PP );
    1436:	458d                	li	a1,3
    1438:	8552                	mv	a0,s4
    143a:	ab0ff0ef          	jal	6ea <funPinMode>
	funDigitalWrite( PA11, 0 ); // BS1 = 0 for SPI
    143e:	0124a023          	sw	s2,0(s1)
	funDigitalWrite( PA10, 1 ); // D/C
    1442:	0b49ac23          	sw	s4,184(s3)
	funDigitalWrite( SSD1306_RST_PIN, FUN_LOW );
    1446:	0154a023          	sw	s5,0(s1)
	uint32_t targend = SysTick->CNTL + n;
    144a:	e000f9b7          	lui	s3,0xe000f
    144e:	0089a703          	lw	a4,8(s3) # e000f008 <_eusrstack+0xc000c008>
    1452:	000927b7          	lui	a5,0x92
    1456:	7c078793          	addi	a5,a5,1984 # 927c0 <firmware.c.cec90121+0x8f248>
    145a:	973e                	add	a4,a4,a5
	while( ((int32_t)( SysTick->CNTL - targend )) < 0 );
    145c:	0089a783          	lw	a5,8(s3)
    1460:	8f99                	sub	a5,a5,a4
    1462:	fe07cde3          	bltz	a5,145c <main+0xfc>
	funDigitalWrite( SSD1306_RST_PIN, FUN_HIGH );
    1466:	400014b7          	lui	s1,0x40001
    146a:	04000913          	li	s2,64
    146e:	0b848493          	addi	s1,s1,184 # 400010b8 <_eusrstack+0x1fffe0b8>
	funPinMode( SSD1306_RST_PIN, GPIO_CFGLR_OUT_50Mhz_PP );
    1472:	4591                	li	a1,4
    1474:	854a                	mv	a0,s2
	funDigitalWrite( SSD1306_RST_PIN, FUN_HIGH );
    1476:	0124a023          	sw	s2,0(s1)
	funPinMode( SSD1306_RST_PIN, GPIO_CFGLR_OUT_50Mhz_PP );
    147a:	a70ff0ef          	jal	6ea <funPinMode>
	funPinMode( SSD1306_CS_PIN, GPIO_CFGLR_OUT_50Mhz_PP );
    147e:	4591                	li	a1,4
    1480:	4541                	li	a0,16
    1482:	a68ff0ef          	jal	6ea <funPinMode>
	funPinMode( SSD1306_DC_PIN, GPIO_CFGLR_OUT_50Mhz_PP );
    1486:	4591                	li	a1,4
    1488:	40000513          	li	a0,1024
    148c:	a5eff0ef          	jal	6ea <funPinMode>
	funPinMode( SSD1306_MOSI_PIN, GPIO_CFGLR_OUT_50Mhz_PP );
    1490:	4591                	li	a1,4
    1492:	08000513          	li	a0,128
    1496:	a54ff0ef          	jal	6ea <funPinMode>
	funPinMode( SSD1306_SCK_PIN, GPIO_CFGLR_OUT_50Mhz_PP );
    149a:	4591                	li	a1,4
    149c:	02000513          	li	a0,32
    14a0:	a4aff0ef          	jal	6ea <funPinMode>
	funDigitalWrite( SSD1306_CS_PIN, FUN_HIGH );
    14a4:	47c1                	li	a5,16
	funDigitalWrite( SSD1306_RST_PIN, FUN_HIGH );
    14a6:	0124a023          	sw	s2,0(s1)
	funDigitalWrite( SSD1306_CS_PIN, FUN_HIGH );
    14aa:	c09c                	sw	a5,0(s1)
	funDigitalWrite( SSD1306_DC_PIN, FUN_LOW );
    14ac:	400017b7          	lui	a5,0x40001
    14b0:	0ac78793          	addi	a5,a5,172 # 400010ac <_eusrstack+0x1fffe0ac>
    14b4:	40000713          	li	a4,1024
    14b8:	c398                	sw	a4,0(a5)
	R8_SPI0_CLOCK_DIV = FUNCONF_SYSTEM_CORE_CLOCK / 12000000; // 16MHz is the fastest I want to go - though it does seem to work up to ~60MHz. 
    14ba:	4615                	li	a2,5
    14bc:	40004737          	lui	a4,0x40004
    14c0:	00c701a3          	sb	a2,3(a4) # 40004003 <_eusrstack+0x20001003>
	R8_SPI0_CTRL_MOD  = RB_SPI_ALL_CLEAR;
    14c4:	4609                	li	a2,2
    14c6:	00c70023          	sb	a2,0(a4)
	R8_SPI0_CTRL_MOD  = RB_SPI_MOSI_OE | RB_SPI_2WIRE_MOD | RB_SPI_SCK_OE;
    14ca:	06400693          	li	a3,100
    14ce:	00d70023          	sb	a3,0(a4)
	R8_SPI0_CTRL_MOD |= RB_SPI_MST_SCK_MOD;
    14d2:	00074683          	lbu	a3,0(a4)
    14d6:	0086e693          	ori	a3,a3,8
    14da:	00d70023          	sb	a3,0(a4)
	R8_SPI0_CTRL_CFG = RB_MST_CLK_SEL;
    14de:	00c700a3          	sb	a2,1(a4)
	funDigitalWrite( SSD1306_RST_PIN, FUN_LOW );
    14e2:	0127a023          	sw	s2,0(a5)
	uint32_t targend = SysTick->CNTL + n;
    14e6:	0089a703          	lw	a4,8(s3)
    14ea:	000927b7          	lui	a5,0x92
    14ee:	7c078793          	addi	a5,a5,1984 # 927c0 <firmware.c.cec90121+0x8f248>
    14f2:	973e                	add	a4,a4,a5
	while( ((int32_t)( SysTick->CNTL - targend )) < 0 );
    14f4:	e000f6b7          	lui	a3,0xe000f
    14f8:	469c                	lw	a5,8(a3)
    14fa:	8f99                	sub	a5,a5,a4
    14fc:	fe07cee3          	bltz	a5,14f8 <main+0x198>
	funDigitalWrite( SSD1306_RST_PIN, FUN_HIGH );
    1500:	400017b7          	lui	a5,0x40001
    1504:	04000713          	li	a4,64
    1508:	0ae7ac23          	sw	a4,184(a5) # 400010b8 <_eusrstack+0x1fffe0b8>

	ssd1306_setbuf(0);
	
	// initialize OLED
#if !defined(SSD1306_CUSTOM_INIT_ARRAY) || !SSD1306_CUSTOM_INIT_ARRAY
	uint8_t *cmd_list = (uint8_t *)ssd1306_init_array;
    150c:	6489                	lui	s1,0x2
	ssd1306_setbuf(0);
    150e:	9e7ff0ef          	jal	ef4 <ssd1306_setbuf.constprop.0>
	uint8_t *cmd_list = (uint8_t *)ssd1306_init_array;
    1512:	31448493          	addi	s1,s1,788 # 2314 <ssd1306_init_array>
	while(*cmd_list != SSD1306_TERMINATE_CMDS)
    1516:	0ff00913          	li	s2,255
    151a:	0004c503          	lbu	a0,0(s1)
    151e:	4b251f63          	bne	a0,s2,19dc <main+0x67c>
	{
		if(ssd1306_cmd(*cmd_list++))
			return 1;
	}
	
	ssd1306_refresh();	
    1522:	d28ff0ef          	jal	a4a <ssd1306_refresh>

	ssd1306_rst();

	ssd1306_spi_init();
	ssd1306_init();
	ssd1306_setbuf(0x00);
    1526:	9cfff0ef          	jal	ef4 <ssd1306_setbuf.constprop.0>

	// Turbo-time
	ssd1306_cmd(0xD5);
    152a:	0d500513          	li	a0,213
    152e:	d04ff0ef          	jal	a32 <ssd1306_cmd.isra.0>
	ssd1306_cmd(0xe0);
    1532:	0e000513          	li	a0,224
    1536:	cfcff0ef          	jal	a32 <ssd1306_cmd.isra.0>

	ssd1306_cmd(0xc8);
    153a:	0c800513          	li	a0,200
    153e:	cf4ff0ef          	jal	a32 <ssd1306_cmd.isra.0>
	ssd1306_cmd(0xa1);
    1542:	0a100513          	li	a0,161
    1546:	cecff0ef          	jal	a32 <ssd1306_cmd.isra.0>
	R8_TMR_CTRL_MOD = 0b00000010; // All clear
    154a:	400027b7          	lui	a5,0x40002
    154e:	4689                	li	a3,2
	R32_TMR_CNT_END = 0x03FFFFFF; // Maximum possible counter size.
    1550:	04000737          	lui	a4,0x4000
	R8_TMR_CTRL_MOD = 0b00000010; // All clear
    1554:	40d78023          	sb	a3,1024(a5) # 40002400 <_eusrstack+0x1ffff400>
	R32_TMR_CNT_END = 0x03FFFFFF; // Maximum possible counter size.
    1558:	177d                	addi	a4,a4,-1 # 3ffffff <firmware.c.cec90121+0x3ffca87>
    155a:	40e7a623          	sw	a4,1036(a5)
	R8_TMR_CTRL_MOD = 0b11000101; // Capture mode rising edge
    155e:	fc500713          	li	a4,-59
    1562:	40e78023          	sb	a4,1024(a5)
	R8_TMR_INTER_EN = 0b10; // Capture event.
    1566:	40d78123          	sb	a3,1026(a5)
	R16_PIN_ALTERNATE_H |= 1<<6; // Map PA2 to CAP1 (could be PA7, PA4, or PA9) (see RB_TMR_PIN)
    156a:	400017b7          	lui	a5,0x40001
    156e:	01a7d703          	lhu	a4,26(a5) # 4000101a <_eusrstack+0x1fffe01a>
	NVIC->IENR[((uint32_t)(IRQn) >> 5)] = (1 << ((uint32_t)(IRQn) & 0x1F));
    1572:	e000e937          	lui	s2,0xe000e
    1576:	04076713          	ori	a4,a4,64
    157a:	00e79d23          	sh	a4,26(a5)
    157e:	010007b7          	lui	a5,0x1000
    1582:	10f92023          	sw	a5,256(s2) # e000e100 <_eusrstack+0xc000b100>
	uint32_t result; __ASM volatile( ADD_ARCH_ZICSR "csrr %0," "mstatus": "=r"(result) );
    1586:	300027f3          	csrr	a5,mstatus
	result |= 0x88;  __ASM volatile( ADD_ARCH_ZICSR "csrw mstatus, %0" : : "r" (result) );
    158a:	0887e793          	ori	a5,a5,136
    158e:	30079073          	csrw	mstatus,a5
	funPinMode( PA2, GPIO_ModeOut_PP_20mA );
    1592:	4591                	li	a1,4
    1594:	852e                	mv	a0,a1
    1596:	954ff0ef          	jal	6ea <funPinMode>
	iSLERChannel = channel;
    159a:	4739                	li	a4,14
    159c:	e8e18a23          	sb	a4,-364(gp) # 20000520 <iSLERChannel>
	LL->LL5 = 0x8c;
    15a0:	4000c7b7          	lui	a5,0x4000c
    15a4:	20078793          	addi	a5,a5,512 # 4000c200 <_eusrstack+0x20009200>
    15a8:	08c00713          	li	a4,140
    15ac:	cbd8                	sw	a4,20(a5)
	LL->LL7 = 0x76;
    15ae:	07600693          	li	a3,118
    15b2:	cfd4                	sw	a3,28(a5)
	LL->LL9 = 0x8c;
    15b4:	d3d8                	sw	a4,36(a5)
	LL->LL13 = 0x8c;
    15b6:	dbd8                	sw	a4,52(a5)
	LL->LL17 = 0x8c;
    15b8:	c3f8                	sw	a4,68(a5)
	LL->LL19 = 0x76;
    15ba:	c7f4                	sw	a3,76(a5)
	LL->LL11 = 0x6c;
    15bc:	06c00713          	li	a4,108
    15c0:	d7d8                	sw	a4,44(a5)
	LL->LL15 = 0x6c;
    15c2:	dfd8                	sw	a4,60(a5)
	LL->LL1 = 0x78;
    15c4:	07800713          	li	a4,120
    15c8:	c3d8                	sw	a4,4(a5)
	LL->INT_EN = 0x16000f;
    15ca:	00160737          	lui	a4,0x160
	LL->LL21 = 0;
    15ce:	0407aa23          	sw	zero,84(a5)
	LL->INT_EN = 0x16000f;
    15d2:	073d                	addi	a4,a4,15 # 16000f <firmware.c.cec90121+0x15ca97>
    15d4:	c7d8                	sw	a4,12(a5)
	LL->RXBUF = (uint32_t)LLE_BUF;
    15d6:	eb018713          	addi	a4,gp,-336 # 2000053c <LLE_BUF>
    15da:	dff8                	sw	a4,124(a5)
	LL->STATUS = 0xffffffff;
    15dc:	577d                	li	a4,-1
	RF->RF10 = 0x480;
    15de:	4000d4b7          	lui	s1,0x4000d
	LL->STATUS = 0xffffffff;
    15e2:	c798                	sw	a4,8(a5)
	RF->RF10 = 0x480;
    15e4:	48000793          	li	a5,1152
    15e8:	d49c                	sw	a5,40(s1)
	RF->RF12 &= 0xfff9ffff;
    15ea:	589c                	lw	a5,48(s1)
    15ec:	fffa0737          	lui	a4,0xfffa0
    15f0:	177d                	addi	a4,a4,-1 # fff9ffff <_eusrstack+0xdff9cfff>
    15f2:	8ff9                	and	a5,a5,a4
    15f4:	d89c                	sw	a5,48(s1)
	RF->RF12 |= 0x70000000;
    15f6:	589c                	lw	a5,48(s1)
    15f8:	70000737          	lui	a4,0x70000
	RF->RF15 = (RF->RF15 & 0xf8ffffff) | 0x2000000;
    15fc:	020006b7          	lui	a3,0x2000
	RF->RF12 |= 0x70000000;
    1600:	8fd9                	or	a5,a5,a4
    1602:	d89c                	sw	a5,48(s1)
	RF->RF15 = (RF->RF15 & 0xf8ffffff) | 0x2000000;
    1604:	5cdc                	lw	a5,60(s1)
    1606:	f9000737          	lui	a4,0xf9000
    160a:	177d                	addi	a4,a4,-1 # f8ffffff <_eusrstack+0xd8ffcfff>
    160c:	8ff9                	and	a5,a5,a4
    160e:	8fd5                	or	a5,a5,a3
    1610:	dcdc                	sw	a5,60(s1)
	RF->RF15 = (RF->RF15 & 0x1fffffff) | 0x40000000;
    1612:	5cdc                	lw	a5,60(s1)
    1614:	40000737          	lui	a4,0x40000
	BB->CTRL_TX = (BB->CTRL_TX & 0x1ffffff) | (TxPower | 0x40) << 0x19;
    1618:	16fd                	addi	a3,a3,-1 # 1ffffff <firmware.c.cec90121+0x1ffca87>
	RF->RF15 = (RF->RF15 & 0x1fffffff) | 0x40000000;
    161a:	078e                	slli	a5,a5,0x3
    161c:	838d                	srli	a5,a5,0x3
    161e:	8fd9                	or	a5,a5,a4
    1620:	dcdc                	sw	a5,60(s1)
	RF->RF18 &= 0xfff8ffff;
    1622:	44bc                	lw	a5,72(s1)
    1624:	fff90737          	lui	a4,0xfff90
    1628:	177d                	addi	a4,a4,-1 # fff8ffff <_eusrstack+0xdff8cfff>
    162a:	8ff9                	and	a5,a5,a4
    162c:	c4bc                	sw	a5,72(s1)
	RF->RF20 = (RF->RF20 & 0xfffff8ff) | 0x300;
    162e:	48bc                	lw	a5,80(s1)
	RF->RF23 |= 0x70000;
    1630:	00070737          	lui	a4,0x70
	NVIC->VTFIDR[3] = 0x14;
    1634:	4bd1                	li	s7,20
	RF->RF20 = (RF->RF20 & 0xfffff8ff) | 0x300;
    1636:	8ff7f793          	andi	a5,a5,-1793
    163a:	3007e793          	ori	a5,a5,768
    163e:	c8bc                	sw	a5,80(s1)
	RF->RF23 |= 0x70000;
    1640:	4cfc                	lw	a5,92(s1)
	DevSetMode(DEVSETMODE_TUNE);
    1642:	55800513          	li	a0,1368
	RF->RF23 |= 0x70000;
    1646:	8fd9                	or	a5,a5,a4
    1648:	ccfc                	sw	a5,92(s1)
	RF->RF23 |= 0x700000;
    164a:	4cfc                	lw	a5,92(s1)
    164c:	00700737          	lui	a4,0x700
    1650:	8fd9                	or	a5,a5,a4
    1652:	ccfc                	sw	a5,92(s1)
	BB->BB14 = 0x2020c;
    1654:	00020737          	lui	a4,0x20
    1658:	4000c7b7          	lui	a5,0x4000c
    165c:	10078793          	addi	a5,a5,256 # 4000c100 <_eusrstack+0x20009100>
    1660:	20c70713          	addi	a4,a4,524 # 2020c <firmware.c.cec90121+0x1cc94>
    1664:	df98                	sw	a4,56(a5)
	BB->BB15 = 0x50;
    1666:	05000713          	li	a4,80
    166a:	dfd8                	sw	a4,60(a5)
	BB->CTRL_TX = (BB->CTRL_TX & 0x1ffffff) | (TxPower | 0x40) << 0x19;
    166c:	5bd8                	lw	a4,52(a5)
    166e:	8f75                	and	a4,a4,a3
    1670:	da0006b7          	lui	a3,0xda000
    1674:	8f55                	or	a4,a4,a3
    1676:	dbd8                	sw	a4,52(a5)
	BB->CTRL_CFG &= 0xfffffcff;
    1678:	4398                	lw	a4,0(a5)
    167a:	cff77713          	andi	a4,a4,-769
    167e:	c398                	sw	a4,0(a5)
	NVIC->VTFIDR[3] = 0x14;
    1680:	057909a3          	sb	s7,83(s2)
	DevSetMode(DEVSETMODE_TUNE);
    1684:	e35fe0ef          	jal	4b8 <DevSetMode>
	RF->RF1 &= 0xfffffeff;
    1688:	40dc                	lw	a5,4(s1)
	RF->RF10 &= 0xffffefff;
    168a:	777d                	lui	a4,0xfffff
    168c:	177d                	addi	a4,a4,-1 # ffffefff <_eusrstack+0xdfffbfff>
	RF->RF1 &= 0xfffffeff;
    168e:	eff7f793          	andi	a5,a5,-257
    1692:	c0dc                	sw	a5,4(s1)
	RF->RF10 &= 0xffffefff;
    1694:	549c                	lw	a5,40(s1)
	uint32_t tune2401 = RFEND_TXCTune(37);
    1696:	02500513          	li	a0,37
	RF->RF10 &= 0xffffefff;
    169a:	8ff9                	and	a5,a5,a4
    169c:	d49c                	sw	a5,40(s1)
	RF->RF11 &= 0xffffffef;
    169e:	54dc                	lw	a5,44(s1)
	RF->RF2 |= 0x20000;
    16a0:	00020737          	lui	a4,0x20
	RF->RF11 &= 0xffffffef;
    16a4:	9bbd                	andi	a5,a5,-17
    16a6:	d4dc                	sw	a5,44(s1)
	RF->RF2 |= 0x20000;
    16a8:	449c                	lw	a5,8(s1)
    16aa:	8fd9                	or	a5,a5,a4
    16ac:	c49c                	sw	a5,8(s1)
	RF->RF1 |= 0x10;
    16ae:	40dc                	lw	a5,4(s1)
    16b0:	0107e793          	ori	a5,a5,16
    16b4:	c0dc                	sw	a5,4(s1)
	uint32_t tune2401 = RFEND_TXCTune(37);
    16b6:	e51fe0ef          	jal	506 <RFEND_TXCTune>
    16ba:	84aa                	mv	s1,a0
	uint8_t nGA2401 = (uint8_t)(tune2401 >> 24) & 0x7f;
    16bc:	01855a93          	srli	s5,a0,0x18
	uint32_t tune2480 = RFEND_TXCTune(39);
    16c0:	02700513          	li	a0,39
    16c4:	e43fe0ef          	jal	506 <RFEND_TXCTune>
    16c8:	89aa                	mv	s3,a0
	uint8_t nGA2480 = (uint8_t)(tune2480 >> 24) & 0x7f;
    16ca:	01855b13          	srli	s6,a0,0x18
	uint32_t tune2440 = RFEND_TXCTune(18);
    16ce:	4549                	li	a0,18
    16d0:	e37fe0ef          	jal	506 <RFEND_TXCTune>
	uint32_t dCO0140 = nCO2401 - nCO2440;
    16d4:	0ff57793          	zext.b	a5,a0
	uint8_t txctune_co[sizeof(RF->TXCTUNE_CO)] = {0};
    16d8:	02800613          	li	a2,40
	uint32_t tune2440 = RFEND_TXCTune(18);
    16dc:	892a                	mv	s2,a0
	uint8_t nGA2440 = (uint8_t)(tune2440 >> 24) & 0x7f;
    16de:	01855a13          	srli	s4,a0,0x18
	uint32_t dCO0140 = nCO2401 - nCO2440;
    16e2:	0ff4f493          	zext.b	s1,s1
	uint32_t dCO4080 = nCO2440 - nCO2480;
    16e6:	0ff9f993          	zext.b	s3,s3
	uint8_t txctune_co[sizeof(RF->TXCTUNE_CO)] = {0};
    16ea:	4581                	li	a1,0
    16ec:	8522                	mv	a0,s0
	uint32_t dCO0140 = nCO2401 - nCO2440;
    16ee:	8c9d                	sub	s1,s1,a5
	uint32_t dCO4080 = nCO2440 - nCO2480;
    16f0:	413789b3          	sub	s3,a5,s3
	uint8_t txctune_co[sizeof(RF->TXCTUNE_CO)] = {0};
    16f4:	feeff0ef          	jal	ee2 <memset>
	for(int f = 0; f < int_points; f++) {
    16f8:	037486b3          	mul	a3,s1,s7
    16fc:	4781                	li	a5,0
		tune = (dCO0140 * (int_points -f)) / int_points;
    16fe:	865e                	mv	a2,s7
		txctune_co[f] = tune | (tune << 4);
    1700:	00f405b3          	add	a1,s0,a5
	for(int f = 0; f < int_points; f++) {
    1704:	0785                	addi	a5,a5,1
		tune = (dCO0140 * (int_points -f)) / int_points;
    1706:	0376d733          	divu	a4,a3,s7
	for(int f = 0; f < int_points; f++) {
    170a:	8e85                	sub	a3,a3,s1
		txctune_co[f] = tune | (tune << 4);
    170c:	0762                	slli	a4,a4,0x18
    170e:	8761                	srai	a4,a4,0x18
    1710:	00471513          	slli	a0,a4,0x4
    1714:	8f49                	or	a4,a4,a0
    1716:	00e58023          	sb	a4,0(a1)
	for(int f = 0; f < int_points; f++) {
    171a:	fec793e3          	bne	a5,a2,1700 <main+0x3a0>
    171e:	4681                	li	a3,0
		tune = (dCO4080 * (f -int_points)) / int_points;
    1720:	4851                	li	a6,20
	for(int f = int_points; f < sizeof(RF->TXCTUNE_CO); f++) {
    1722:	02800613          	li	a2,40
		tune = (dCO4080 * (f -int_points)) / int_points;
    1726:	0306d733          	divu	a4,a3,a6
		txctune_co[f] = tune | (tune << 4);
    172a:	00f405b3          	add	a1,s0,a5
	for(int f = int_points; f < sizeof(RF->TXCTUNE_CO); f++) {
    172e:	0785                	addi	a5,a5,1
    1730:	96ce                	add	a3,a3,s3
		txctune_co[f] = tune | (tune << 4);
    1732:	0762                	slli	a4,a4,0x18
    1734:	8761                	srai	a4,a4,0x18
    1736:	00471513          	slli	a0,a4,0x4
    173a:	8f49                	or	a4,a4,a0
    173c:	00e58023          	sb	a4,0(a1)
	for(int f = int_points; f < sizeof(RF->TXCTUNE_CO); f++) {
    1740:	fec793e3          	bne	a5,a2,1726 <main+0x3c6>
    1744:	86a2                	mv	a3,s0
	for(int i = 0; i < sizeof(txctune_co) /4; i++) {
    1746:	4701                	li	a4,0
		RF->TXCTUNE_CO[i] = ((uint32_t*)txctune_co)[i];
    1748:	4000d537          	lui	a0,0x4000d
	for(int i = 0; i < sizeof(txctune_co) /4; i++) {
    174c:	4629                	li	a2,10
		RF->TXCTUNE_CO[i] = ((uint32_t*)txctune_co)[i];
    174e:	428c                	lw	a1,0(a3)
    1750:	02870793          	addi	a5,a4,40 # 20028 <firmware.c.cec90121+0x1cab0>
    1754:	078a                	slli	a5,a5,0x2
    1756:	97aa                	add	a5,a5,a0
    1758:	c38c                	sw	a1,0(a5)
	for(int i = 0; i < sizeof(txctune_co) /4; i++) {
    175a:	0705                	addi	a4,a4,1
    175c:	0691                	addi	a3,a3,4 # da000004 <_eusrstack+0xb9ffd004>
    175e:	fec718e3          	bne	a4,a2,174e <main+0x3ee>
	uint32_t dGA0140 = nGA2401 - nGA2440;
    1762:	414a8633          	sub	a2,s5,s4
	uint32_t dGA4080 = nGA2440 - nGA2480;
    1766:	4695                	li	a3,5
    1768:	02d606b3          	mul	a3,a2,a3
    176c:	416a0a33          	sub	s4,s4,s6
	uint8_t txctune_ga[sizeof(RF->TXCTUNE_GA)] = {0};
    1770:	ce02                	sw	zero,28(sp)
    1772:	d002                	sw	zero,32(sp)
    1774:	d202                	sw	zero,36(sp)
	for(int f = 1; f < int_points; f++) {
    1776:	4785                	li	a5,1
		tune = (dGA0140 * (int_points -f)) / int_points;
    1778:	4519                	li	a0,6
		txctune_ga[f] = tune | (tune << 4);
    177a:	086c                	addi	a1,sp,28
    177c:	00f58833          	add	a6,a1,a5
	for(int f = 1; f < int_points; f++) {
    1780:	0785                	addi	a5,a5,1
		tune = (dGA0140 * (int_points -f)) / int_points;
    1782:	02a6d733          	divu	a4,a3,a0
	for(int f = 1; f < int_points; f++) {
    1786:	8e91                	sub	a3,a3,a2
		txctune_ga[f] = tune | (tune << 4);
    1788:	0762                	slli	a4,a4,0x18
    178a:	8761                	srai	a4,a4,0x18
    178c:	00471893          	slli	a7,a4,0x4
    1790:	01176733          	or	a4,a4,a7
    1794:	00e80023          	sb	a4,0(a6) # 80000000 <_eusrstack+0x5fffd000>
	for(int f = 1; f < int_points; f++) {
    1798:	fea792e3          	bne	a5,a0,177c <main+0x41c>
    179c:	4681                	li	a3,0
		tune = (dGA4080 * (f -int_points)) / int_points;
    179e:	4899                	li	a7,6
	for(int f = int_points; f < sizeof(RF->TXCTUNE_GA) -1; f++) {
    17a0:	462d                	li	a2,11
		tune = (dGA4080 * (f -int_points)) / int_points;
    17a2:	0316d733          	divu	a4,a3,a7
		txctune_ga[f] = tune | (tune << 4);
    17a6:	00f58533          	add	a0,a1,a5
	for(int f = int_points; f < sizeof(RF->TXCTUNE_GA) -1; f++) {
    17aa:	0785                	addi	a5,a5,1
    17ac:	96d2                	add	a3,a3,s4
		txctune_ga[f] = tune | (tune << 4);
    17ae:	0762                	slli	a4,a4,0x18
    17b0:	8761                	srai	a4,a4,0x18
    17b2:	00471813          	slli	a6,a4,0x4
    17b6:	01076733          	or	a4,a4,a6
    17ba:	00e50023          	sb	a4,0(a0) # 4000d000 <_eusrstack+0x2000a000>
	for(int f = int_points; f < sizeof(RF->TXCTUNE_GA) -1; f++) {
    17be:	fec792e3          	bne	a5,a2,17a2 <main+0x442>
		RF->TXCTUNE_GA[i] = ((uint32_t*)txctune_ga)[i];
    17c2:	46f2                	lw	a3,28(sp)
    17c4:	4000d7b7          	lui	a5,0x4000d
    17c8:	08078713          	addi	a4,a5,128 # 4000d080 <_eusrstack+0x2000a080>
    17cc:	c734                	sw	a3,72(a4)
    17ce:	5682                	lw	a3,32(sp)
	RF->RF10 |= 0x1000;
    17d0:	6605                	lui	a2,0x1
		RF->TXCTUNE_GA[i] = ((uint32_t*)txctune_ga)[i];
    17d2:	c774                	sw	a3,76(a4)
    17d4:	5692                	lw	a3,36(sp)
    17d6:	cb34                	sw	a3,80(a4)
	RF->RF1 &= 0xffffffef;
    17d8:	43d8                	lw	a4,4(a5)
	RF->TXTUNE_CTRL = (RF->TXTUNE_CTRL & 0xffffffc0) | (tune2440 & 0x3f);
    17da:	03f97693          	andi	a3,s2,63
	RF->RF1 &= 0xffffffef;
    17de:	9b3d                	andi	a4,a4,-17
    17e0:	c3d8                	sw	a4,4(a5)
	RF->RF1 &= 0xfffffffe;
    17e2:	43d8                	lw	a4,4(a5)
    17e4:	9b79                	andi	a4,a4,-2
    17e6:	c3d8                	sw	a4,4(a5)
	RF->RF10 |= 0x1000;
    17e8:	5798                	lw	a4,40(a5)
    17ea:	8f51                	or	a4,a4,a2
    17ec:	d798                	sw	a4,40(a5)
	RF->RF11 |= 0x10;
    17ee:	57d8                	lw	a4,44(a5)
    17f0:	01076713          	ori	a4,a4,16
    17f4:	d7d8                	sw	a4,44(a5)
	RF->TXTUNE_CTRL = (RF->TXTUNE_CTRL & 0xffffffc0) | (tune2440 & 0x3f);
    17f6:	5f98                	lw	a4,56(a5)
    17f8:	fc077713          	andi	a4,a4,-64
    17fc:	8f55                	or	a4,a4,a3
    17fe:	df98                	sw	a4,56(a5)
	RF->TXTUNE_CTRL = (RF->TXTUNE_CTRL & 0x80ffffff) | (tune2440 & 0x7f000000);
    1800:	5f98                	lw	a4,56(a5)
    1802:	810006b7          	lui	a3,0x81000
    1806:	16fd                	addi	a3,a3,-1 # 80ffffff <_eusrstack+0x60ffcfff>
    1808:	8f75                	and	a4,a4,a3
    180a:	7f0006b7          	lui	a3,0x7f000
    180e:	00d97933          	and	s2,s2,a3
    1812:	01276733          	or	a4,a4,s2
    1816:	df98                	sw	a4,56(a5)
	RF->RF1 |= 0x100;
    1818:	43d8                	lw	a4,4(a5)
	RF->RF20 &= 0xfffeffff;
    181a:	76c1                	lui	a3,0xffff0
    181c:	16fd                	addi	a3,a3,-1 # fffeffff <_eusrstack+0xdffecfff>
	RF->RF1 |= 0x100;
    181e:	10076713          	ori	a4,a4,256
    1822:	c3d8                	sw	a4,4(a5)
	RF->RF20 &= 0xfffeffff;
    1824:	4bb8                	lw	a4,80(a5)
    1826:	8f75                	and	a4,a4,a3
    1828:	cbb8                	sw	a4,80(a5)
	RF->RF2 |= 0x200000;
    182a:	4798                	lw	a4,8(a5)
    182c:	002006b7          	lui	a3,0x200
    1830:	8f55                	or	a4,a4,a3
    1832:	c798                	sw	a4,8(a5)
	RF->RF3 = (RF->RF3 & 0xffffffef) | 0x10;
    1834:	47d8                	lw	a4,12(a5)
	LL->TMR = 100;
    1836:	06400693          	li	a3,100
	RF->RF3 = (RF->RF3 & 0xffffffef) | 0x10;
    183a:	01076713          	ori	a4,a4,16
    183e:	c7d8                	sw	a4,12(a5)
	RF->RF1 |= 0x1000;
    1840:	43d8                	lw	a4,4(a5)
    1842:	8f51                	or	a4,a4,a2
    1844:	c3d8                	sw	a4,4(a5)
	LL->TMR = 100;
    1846:	4000c737          	lui	a4,0x4000c
    184a:	20070713          	addi	a4,a4,512 # 4000c200 <_eusrstack+0x20009200>
    184e:	d374                	sw	a3,100(a4)
	while(LL->TMR && ((RF->RXTUNE >> 8) & 1));
    1850:	5374                	lw	a3,100(a4)
    1852:	c691                	beqz	a3,185e <main+0x4fe>
    1854:	09c7a683          	lw	a3,156(a5)
    1858:	1006f693          	andi	a3,a3,256
    185c:	faf5                	bnez	a3,1850 <main+0x4f0>
	tuneFilter = RF->RXTUNE & 0x1f;
    185e:	4000d7b7          	lui	a5,0x4000d
    1862:	08078713          	addi	a4,a5,128 # 4000d080 <_eusrstack+0x2000a080>
    1866:	4f58                	lw	a4,28(a4)
	RF->RF20 |= 0x10000;
    1868:	6641                	lui	a2,0x10
	tuneFilter = RF->RXTUNE & 0x1f;
    186a:	8b7d                	andi	a4,a4,31
    186c:	e8e1ae23          	sw	a4,-356(gp) # 20000528 <tuneFilter>
	RF->RF20 |= 0x10000;
    1870:	4bb8                	lw	a4,80(a5)
    1872:	8f51                	or	a4,a4,a2
    1874:	cbb8                	sw	a4,80(a5)
	RF->RF20 = (RF->RF20 & 0xffffffe0) | tuneFilter;
    1876:	4bb8                	lw	a4,80(a5)
    1878:	e9c1a603          	lw	a2,-356(gp) # 20000528 <tuneFilter>
    187c:	9b01                	andi	a4,a4,-32
    187e:	8f51                	or	a4,a4,a2
    1880:	cbb8                	sw	a4,80(a5)
	RF->RF2 &= 0xffdfffff;
    1882:	4798                	lw	a4,8(a5)
    1884:	ffe00637          	lui	a2,0xffe00
    1888:	167d                	addi	a2,a2,-1 # ffdfffff <_eusrstack+0xdfdfcfff>
    188a:	8f71                	and	a4,a4,a2
    188c:	c798                	sw	a4,8(a5)
	tuneFilter2M = (tuneFilter +2 < 0x1f) ? (tuneFilter +2) : 0x1f;
    188e:	e9c1a703          	lw	a4,-356(gp) # 20000528 <tuneFilter>
    1892:	4679                	li	a2,30
    1894:	47fd                	li	a5,31
    1896:	0709                	addi	a4,a4,2
    1898:	00e66563          	bltu	a2,a4,18a2 <main+0x542>
    189c:	e9c1a783          	lw	a5,-356(gp) # 20000528 <tuneFilter>
    18a0:	0789                	addi	a5,a5,2
    18a2:	eaf1a023          	sw	a5,-352(gp) # 2000052c <tuneFilter2M>
	RF->RF22 &= 0xfffeffff;
    18a6:	4000d7b7          	lui	a5,0x4000d
    18aa:	4fb8                	lw	a4,88(a5)
    18ac:	76c1                	lui	a3,0xffff0
    18ae:	16fd                	addi	a3,a3,-1 # fffeffff <_eusrstack+0xdffecfff>
    18b0:	8f75                	and	a4,a4,a3
    18b2:	cfb8                	sw	a4,88(a5)
	RF->RF2 |= 0x10000;
    18b4:	4798                	lw	a4,8(a5)
    18b6:	66c1                	lui	a3,0x10
	DevSetMode(0);
    18b8:	4501                	li	a0,0
	RF->RF2 |= 0x10000;
    18ba:	8f55                	or	a4,a4,a3
    18bc:	c798                	sw	a4,8(a5)
	RF->RF3 = (RF->RF3 & 0xfffffeff) | 0x100;
    18be:	47d8                	lw	a4,12(a5)
	RF->RF1 = (RF->RF1 & 0xfffeffff) | 0x100000;
    18c0:	ffef06b7          	lui	a3,0xffef0
    18c4:	16fd                	addi	a3,a3,-1 # ffeeffff <_eusrstack+0xdfeecfff>
	RF->RF3 = (RF->RF3 & 0xfffffeff) | 0x100;
    18c6:	10076713          	ori	a4,a4,256
    18ca:	c7d8                	sw	a4,12(a5)
	RF->RF1 = (RF->RF1 & 0xfffeffff) | 0x100000;
    18cc:	43d8                	lw	a4,4(a5)
	SelectMode( 0 ); // Menu mode.

	uint32_t lastClickedMask = 0;
	while(1)
	{
		start = SysTick->CNT;
    18ce:	e000fab7          	lui	s5,0xe000f
    18d2:	8f75                	and	a4,a4,a3
    18d4:	001006b7          	lui	a3,0x100
    18d8:	8f55                	or	a4,a4,a3
    18da:	c3d8                	sw	a4,4(a5)
	DevSetMode(0);
    18dc:	bddfe0ef          	jal	4b8 <DevSetMode>
	NVIC->IPRIOR[0x15] |= 0x80;
    18e0:	e000e7b7          	lui	a5,0xe000e
    18e4:	4157c703          	lbu	a4,1045(a5) # e000e415 <_eusrstack+0xc000b415>
	Frame_RX(ACCESS_ADDRESS, channel, PHY_MODE);
    18e8:	8e89c537          	lui	a0,0x8e89c
    18ec:	4605                	li	a2,1
    18ee:	08076713          	ori	a4,a4,128
    18f2:	40e78aa3          	sb	a4,1045(a5)
	NVIC->IENR[((uint32_t)(IRQn) >> 5)] = (1 << ((uint32_t)(IRQn) & 0x1F));
    18f6:	00200737          	lui	a4,0x200
    18fa:	10e7a023          	sw	a4,256(a5)
    18fe:	45b9                	li	a1,14
    1900:	ed650513          	addi	a0,a0,-298 # 8e89bed6 <_eusrstack+0x6e898ed6>
    1904:	1ffff097          	auipc	ra,0x1ffff
    1908:	850080e7          	jalr	-1968(ra) # 20000154 <iSLERRX>
	memset( m, 0, sizeof( *m ) );
    190c:	ea01a423          	sw	zero,-344(gp) # 20000534 <game+0x4>
	m->Update = ModeMenuLoop;
    1910:	6785                	lui	a5,0x1
    1912:	ea418713          	addi	a4,gp,-348 # 20000530 <game>
    1916:	f0678793          	addi	a5,a5,-250 # f06 <ModeMenuLoop>
    191a:	c31c                	sw	a5,0(a4)
	m->selectedEntry = 1;
    191c:	4785                	li	a5,1
    191e:	c71c                	sw	a5,8(a4)
	uint32_t lastClickedMask = 0;
    1920:	c402                	sw	zero,8(sp)
    1922:	4ba1                	li	s7,8
    1924:	10000c13          	li	s8,256
    1928:	20000c93          	li	s9,512
		switch( btn )
    192c:	c63e                	sw	a5,12(sp)
    192e:	4d09                	li	s10,2
		start = SysTick->CNT;
    1930:	008aad83          	lw	s11,8(s5) # e000f008 <_eusrstack+0xc000c008>
		if( *((uint32_t*)0x4fff0000) == 0xaaaaaaaa )
    1934:	aaaaba37          	lui	s4,0xaaaab
    1938:	89a2                	mv	s3,s0
	for( btn = 0; btn < 4; btn++ )
    193a:	4481                	li	s1,0
		if( *((uint32_t*)0x4fff0000) == 0xaaaaaaaa )
    193c:	4fff0b37          	lui	s6,0x4fff0
    1940:	aaaa0a13          	addi	s4,s4,-1366 # aaaaaaaa <_eusrstack+0x8aaa7aaa>
	switch(mode) {
    1944:	4521                	li	a0,8
    1946:	d75fe0ef          	jal	6ba <funPinMode.part.0>
    194a:	10000513          	li	a0,256
    194e:	d6dfe0ef          	jal	6ba <funPinMode.part.0>
    1952:	20000513          	li	a0,512
    1956:	d65fe0ef          	jal	6ba <funPinMode.part.0>
		switch( btn )
    195a:	47b2                	lw	a5,12(sp)
    195c:	08f48463          	beq	s1,a5,19e4 <main+0x684>
    1960:	09a48c63          	beq	s1,s10,19f8 <main+0x698>
    1964:	e891                	bnez	s1,1978 <main+0x618>
			funPinMode( PA8, GPIO_CFGLR_OUT_10Mhz_PP );
    1966:	4591                	li	a1,4
    1968:	10000513          	li	a0,256
    196c:	d7ffe0ef          	jal	6ea <funPinMode>
			funDigitalWrite( PA3, 1 );
    1970:	400017b7          	lui	a5,0x40001
    1974:	0b77ac23          	sw	s7,184(a5) # 400010b8 <_eusrstack+0x1fffe0b8>
		if( *((uint32_t*)0x4fff0000) == 0xaaaaaaaa )
    1978:	000b2783          	lw	a5,0(s6) # 4fff0000 <_eusrstack+0x2ffed000>
    197c:	09479763          	bne	a5,s4,1a0a <main+0x6aa>
			pressures[btn] = *((uint32_t*)(0x4fff0004+4*btn));
    1980:	00249793          	slli	a5,s1,0x2
    1984:	97da                	add	a5,a5,s6
    1986:	43dc                	lw	a5,4(a5)
    1988:	00f9a023          	sw	a5,0(s3)
	for( btn = 0; btn < 4; btn++ )
    198c:	0485                	addi	s1,s1,1 # 4000d001 <_eusrstack+0x2000a001>
    198e:	4791                	li	a5,4
    1990:	0991                	addi	s3,s3,4
    1992:	faf499e3          	bne	s1,a5,1944 <main+0x5e4>
		// TODO: Make this debounce.
		int i;
		uint32_t clickedMask = 0;
		for( i = 0; i < 3; i++ )
		{
			if( pressures[i] > 5000 ) clickedMask |= 1<<i;
    1996:	54a2                	lw	s1,40(sp)
    1998:	6785                	lui	a5,0x1
    199a:	38878793          	addi	a5,a5,904 # 1388 <main+0x28>
    199e:	5732                	lw	a4,44(sp)
    19a0:	0097b4b3          	sltu	s1,a5,s1
    19a4:	6785                	lui	a5,0x1
    19a6:	38878793          	addi	a5,a5,904 # 1388 <main+0x28>
    19aa:	00e7f463          	bgeu	a5,a4,19b2 <main+0x652>
    19ae:	0024e493          	ori	s1,s1,2
    19b2:	5742                	lw	a4,48(sp)
    19b4:	00e7f463          	bgeu	a5,a4,19bc <main+0x65c>
    19b8:	0044e493          	ori	s1,s1,4
		}

		unsigned deltaTimeTicks = SysTick->CNT - start;
		if( game.template.Update )
    19bc:	ea418793          	addi	a5,gp,-348 # 20000530 <game>
    19c0:	439c                	lw	a5,0(a5)
		unsigned deltaTimeTicks = SysTick->CNT - start;
    19c2:	008aa583          	lw	a1,8(s5)
		if( game.template.Update )
    19c6:	cb89                	beqz	a5,19d8 <main+0x678>
		{
			game.template.Update( &game, deltaTimeTicks, pressures, clickedMask, lastClickedMask );
    19c8:	4722                	lw	a4,8(sp)
    19ca:	86a6                	mv	a3,s1
    19cc:	8622                	mv	a2,s0
    19ce:	41b585b3          	sub	a1,a1,s11
    19d2:	ea418513          	addi	a0,gp,-348 # 20000530 <game>
    19d6:	9782                	jalr	a5
		}
		frameno++;

		lastClickedMask = clickedMask;
    19d8:	c426                	sw	s1,8(sp)
	{
    19da:	bf99                	j	1930 <main+0x5d0>
		if(ssd1306_cmd(*cmd_list++))
    19dc:	0485                	addi	s1,s1,1
    19de:	854ff0ef          	jal	a32 <ssd1306_cmd.isra.0>
    19e2:	be25                	j	151a <main+0x1ba>
			funPinMode( PA9, GPIO_CFGLR_OUT_10Mhz_PP );
    19e4:	4591                	li	a1,4
    19e6:	20000513          	li	a0,512
    19ea:	d01fe0ef          	jal	6ea <funPinMode>
			funDigitalWrite( PA8, 1 );
    19ee:	400017b7          	lui	a5,0x40001
    19f2:	0b87ac23          	sw	s8,184(a5) # 400010b8 <_eusrstack+0x1fffe0b8>
			break;
    19f6:	b749                	j	1978 <main+0x618>
			funPinMode( PA3, GPIO_CFGLR_OUT_10Mhz_PP );
    19f8:	4591                	li	a1,4
    19fa:	4521                	li	a0,8
    19fc:	ceffe0ef          	jal	6ea <funPinMode>
			funDigitalWrite( PA9, 1 );
    1a00:	400017b7          	lui	a5,0x40001
    1a04:	0b97ac23          	sw	s9,184(a5) # 400010b8 <_eusrstack+0x1fffe0b8>
			break;
    1a08:	bf85                	j	1978 <main+0x618>
			lastfifo = 0;
    1a0a:	e801ac23          	sw	zero,-360(gp) # 20000524 <lastfifo>
			EventRelease();
    1a0e:	1ffff097          	auipc	ra,0x1ffff
    1a12:	88a080e7          	jalr	-1910(ra) # 20000298 <EventRelease>
			while( !lastfifo && --to );
    1a16:	6785                	lui	a5,0x1
    1a18:	fa078793          	addi	a5,a5,-96 # fa0 <ModeMenuLoop+0x9a>
    1a1c:	e981a683          	lw	a3,-360(gp) # 20000524 <lastfifo>
    1a20:	e299                	bnez	a3,1a26 <main+0x6c6>
    1a22:	17fd                	addi	a5,a5,-1
    1a24:	ffe5                	bnez	a5,1a1c <main+0x6bc>
			int r = lastfifo - 2; // 2 cycles back.
    1a26:	e981a703          	lw	a4,-360(gp) # 20000524 <lastfifo>
			int vtot = COEFFICIENT/r + ((const uint32_t)(VREF*FIXEDPOINT_SCALE));
    1a2a:	0034e7b7          	lui	a5,0x34e
    1a2e:	f2878793          	addi	a5,a5,-216 # 34df28 <firmware.c.cec90121+0x34a9b0>
			int r = lastfifo - 2; // 2 cycles back.
    1a32:	1779                	addi	a4,a4,-2 # 1ffffe <firmware.c.cec90121+0x1fca86>
			int vtot = COEFFICIENT/r + ((const uint32_t)(VREF*FIXEDPOINT_SCALE));
    1a34:	02e7d7b3          	divu	a5,a5,a4
    1a38:	06978793          	addi	a5,a5,105
    1a3c:	b7b1                	j	1988 <main+0x628>
    1a3e:	0000                	unimp
    1a40:	4146                	lw	sp,80(sp)
    1a42:	4c49                	li	s8,18
    1a44:	0000                	unimp
    1a46:	0000                	unimp
    1a48:	00004b4f          	.insn	4, 0x4b4f
    1a4c:	7325                	lui	t1,0xfffe9
    1a4e:	4320                	lw	s0,64(a4)
    1a50:	6e61                	lui	t3,0x18
    1a52:	6f6e                	.insn	2, 0x6f6e
    1a54:	2074                	.insn	2, 0x2074
    1a56:	666e6f43          	.insn	4, 0x666e6f43
    1a5a:	6769                	lui	a4,0x1a
    1a5c:	7275                	lui	tp,0xffffd
    1a5e:	2065                	jal	1b06 <fontdata+0xe>
    1a60:	2040                	.insn	2, 0x2040
    1a62:	6425                	lui	s0,0x9
    1a64:	000a                	c.slli	zero,0x2
    1a66:	0000                	unimp
    1a68:	7325                	lui	t1,0xfffe9
    1a6a:	2520                	.insn	2, 0x2520
    1a6c:	3230                	.insn	2, 0x3230
    1a6e:	6878                	.insn	2, 0x6878
    1a70:	3d20                	.insn	2, 0x3d20
    1a72:	2520                	.insn	2, 0x2520
    1a74:	3230                	.insn	2, 0x3230
    1a76:	2078                	.insn	2, 0x2078
    1a78:	5d73255b          	.insn	4, 0x5d73255b
    1a7c:	000a                	c.slli	zero,0x2
    1a7e:	0000                	unimp
    1a80:	6554                	.insn	2, 0x6554
    1a82:	00007473          	csrrci	s0,ustatus,0
    1a86:	0000                	unimp
    1a88:	6325                	lui	t1,0x9
    1a8a:	7325                	lui	t1,0xfffe9
    1a8c:	0000                	unimp
    1a8e:	0000                	unimp
    1a90:	3025                	jal	12b8 <ModeTestLoop+0xfc>
    1a92:	7832                	.insn	2, 0x7832
    1a94:	253a                	.insn	2, 0x253a
    1a96:	3230                	.insn	2, 0x3230
    1a98:	3a78                	.insn	2, 0x3a78
    1a9a:	3025                	jal	12c2 <ModeTestLoop+0x106>
    1a9c:	7832                	.insn	2, 0x7832
    1a9e:	253a                	.insn	2, 0x253a
    1aa0:	3230                	.insn	2, 0x3230
    1aa2:	3a78                	.insn	2, 0x3a78
    1aa4:	3025                	jal	12cc <ModeTestLoop+0x110>
    1aa6:	7832                	.insn	2, 0x7832
    1aa8:	253a                	.insn	2, 0x253a
    1aaa:	3230                	.insn	2, 0x3230
    1aac:	3a78                	.insn	2, 0x3a78
    1aae:	3325                	jal	17d6 <main+0x476>
    1ab0:	2064                	.insn	2, 0x2064
    1ab2:	6425                	lui	s0,0x9
    1ab4:	003a                	c.slli	zero,0xe
    1ab6:	0000                	unimp
    1ab8:	3025                	jal	12e0 <ModeTestLoop+0x124>
    1aba:	7832                	.insn	2, 0x7832
    1abc:	0020                	addi	s0,sp,8
    1abe:	0000                	unimp
    1ac0:	3025                	jal	12e8 <ModeTestLoop+0x12c>
    1ac2:	7838                	.insn	2, 0x7838
    1ac4:	0000                	unimp
    1ac6:	0000                	unimp
    1ac8:	3325                	jal	17f0 <main+0x490>
    1aca:	2064                	.insn	2, 0x2064
    1acc:	6425                	lui	s0,0x9
    1ace:	0000                	unimp
    1ad0:	bbaa                	.insn	2, 0xbbaa
    1ad2:	ddcc                	sw	a1,60(a1)
    1ad4:	ffee                	.insn	2, 0xffee
    1ad6:	0000                	unimp
    1ad8:	4d51                	li	s10,20
    1ada:	30333643          	.insn	4, 0x30333643
    1ade:	2039                	jal	1aec <main+0x78c>
    1ae0:	4552                	lw	a0,20(sp)
    1ae2:	00544553          	.insn	4, 0x00544553
    1ae6:	0000                	unimp
    1ae8:	534c                	lw	a1,36(a4)
    1aea:	364d                	jal	168c <main+0x32c>
    1aec:	5344                	lw	s1,36(a4)
    1aee:	4d510033          	.insn	4, 0x4d510033
    1af2:	30333643          	.insn	4, 0x30333643
    1af6:	0039                	c.nop	14

00001af8 <fontdata>:
	...
    1b00:	817e 81a5 99bd 7e81 ff7e ffdb e7c3 7eff     ~......~~......~
    1b10:	fe6c fefe 387c 0010 3810 fe7c 387c 0010     l...|8...8|.|8..
    1b20:	7c38 fe38 d6fe 3810 3810 fe7c 7cfe 3810     8|8....8.8|..|.8
    1b30:	0000 3c18 183c 0000 ffff c3e7 e7c3 ffff     ...<<...........
    1b40:	3c00 4266 6642 003c c3ff bd99 99bd ffc3     .<fBBf<.........
    1b50:	070f 7d0f cccc 78cc 663c 6666 183c 187e     ...}...x<fff<.~.
    1b60:	333f 303f 7030 e0f0 637f 637f 6763 c0e6     ?3?00p...c.ccg..
    1b70:	db18 e73c 3ce7 18db e080 fef8 e0f8 0080     ..<..<..........
    1b80:	0e02 fe3e 0e3e 0002 3c18 187e 7e18 183c     ..>.>....<~..~<.
    1b90:	6666 6666 0066 0066 db7f 7bdb 1b1b 001b     fffff.f....{....
    1ba0:	613e 663c 3c66 7c86 0000 0000 7e7e 007e     >a<ff<.|....~~~.
    1bb0:	3c18 187e 3c7e ff18 3c18 187e 1818 0018     .<~.~<...<~.....
    1bc0:	1818 1818 3c7e 0018 1800 fe0c 180c 0000     ....~<..........
    1bd0:	3000 fe60 3060 0000 0000 c0c0 fec0 0000     .0`.`0..........
    1be0:	2400 ff66 2466 0000 1800 7e3c ffff 0000     .$f.f$....<~....
    1bf0:	ff00 7eff 183c 0000 0000 0000 0000 0000     ...~<...........
    1c00:	3c18 183c 0018 0018 6666 0024 0000 0000     .<<.....ff$.....
    1c10:	6c6c 6cfe 6cfe 006c 3e18 3c60 7c06 0018     ll.l.ll..>`<.|..
    1c20:	c600 18cc 6630 00c6 6c38 7638 ccdc 0076     ....0f..8l8v..v.
    1c30:	1818 0030 0000 0000 180c 3030 1830 000c     ..0.......000...
    1c40:	1830 0c0c 180c 0030 6600 ff3c 663c 0000     0.....0..f<.<f..
    1c50:	1800 7e18 1818 0000 0000 0000 1800 3018     ...~...........0
    1c60:	0000 7e00 0000 0000 0000 0000 1800 0018     ...~............
    1c70:	0c06 3018 c060 0080 6c38 d6c6 6cc6 0038     ...0`...8l...l8.
    1c80:	3818 1818 1818 007e c67c 1c06 6630 00fe     .8....~.|...0f..
    1c90:	c67c 3c06 c606 007c 3c1c cc6c 0cfe 001e     |..<..|..<l.....
    1ca0:	c0fe fcc0 c606 007c 6038 fcc0 c6c6 007c     ......|.8`....|.
    1cb0:	c6fe 180c 3030 0030 c67c 7cc6 c6c6 007c     ....000.|..|..|.
    1cc0:	c67c 7ec6 0c06 0078 1800 0018 1800 0018     |..~..x.........
    1cd0:	1800 0018 1800 3018 0c06 3018 0c18 0006     .......0...0....
    1ce0:	0000 007e 7e00 0000 3060 0c18 3018 0060     ..~..~..`0...0`.
    1cf0:	c67c 180c 0018 0018 c67c dede c0de 0078     |.......|.....x.
    1d00:	6c38 fec6 c6c6 00c6 66fc 7c66 6666 00fc     8l.......ff|ff..
    1d10:	663c c0c0 66c0 003c 6cf8 6666 6c66 00f8     <f...f<..lfffl..
    1d20:	62fe 7868 6268 00fe 62fe 7868 6068 00f0     .bhxhb...bhxh`..
    1d30:	663c c0c0 66ce 003a c6c6 fec6 c6c6 00c6     <f...f:.........
    1d40:	183c 1818 1818 003c 0c1e 0c0c cccc 0078     <.....<.......x.
    1d50:	66e6 786c 666c 00e6 60f0 6060 6662 00fe     .flxlf...```bf..
    1d60:	eec6 fefe c6d6 00c6 e6c6 def6 c6ce 00c6     ................
    1d70:	c67c c6c6 c6c6 007c 66fc 7c66 6060 00f0     |.....|..ff|``..
    1d80:	c67c c6c6 cec6 0e7c 66fc 7c66 666c 00e6     |.....|..ff|lf..
    1d90:	663c 1830 660c 003c 7e7e 185a 1818 003c     <f0..f<.~~Z...<.
    1da0:	c6c6 c6c6 c6c6 007c c6c6 c6c6 6cc6 0038     ......|......l8.
    1db0:	c6c6 d6c6 fed6 006c c6c6 386c c66c 00c6     ......l...l8l...
    1dc0:	6666 3c66 1818 003c c6fe 188c 6632 00fe     fff<..<.....2f..
    1dd0:	303c 3030 3030 003c 60c0 1830 060c 0002     <00000<..`0.....
    1de0:	0c3c 0c0c 0c0c 003c 3810 c66c 0000 0000     <.....<..8l.....
    1df0:	0000 0000 0000 ff00 1830 000c 0000 0000     ........0.......
    1e00:	0000 0c78 cc7c 0076 60e0 667c 6666 00dc     ..x.|.v..`|fff..
    1e10:	0000 c67c c6c0 007c 0c1c cc7c cccc 0076     ..|...|...|...v.
    1e20:	0000 c67c c0fe 007c 663c f860 6060 00f0     ..|...|.<f`.``..
    1e30:	0000 cc76 7ccc f80c 60e0 766c 6666 00e6     ..v..|...`lvff..
    1e40:	0018 1838 1818 003c 0006 0606 6606 3c66     ..8...<......ff<
    1e50:	60e0 6c66 6c78 00e6 1838 1818 1818 003c     .`flxl..8.....<.
    1e60:	0000 feec d6d6 00d6 0000 66dc 6666 0066     ...........ffff.
    1e70:	0000 c67c c6c6 007c 0000 66dc 7c66 f060     ..|...|....ff|`.
    1e80:	0000 cc76 7ccc 1e0c 0000 76dc 6060 00f0     ..v..|.....v``..
    1e90:	0000 c07e 067c 00fc 3030 30fc 3630 001c     ..~.|...00.006..
    1ea0:	0000 cccc cccc 0076 0000 c6c6 6cc6 0038     ......v......l8.
    1eb0:	0000 d6c6 fed6 006c 0000 6cc6 6c38 00c6     ......l....l8l..
    1ec0:	0000 c6c6 7ec6 fc06 0000 4c7e 3218 007e     .....~....~L.2~.
    1ed0:	180e 7018 1818 000e 1818 1818 1818 0018     ...p............
    1ee0:	1870 0e18 1818 0070 dc76 0000 0000 0000     p.....p.v.......
    1ef0:	1000 6c38 c6c6 00fe c67c c0c0 7cc6 780c     ..8l....|....|.x
    1f00:	00cc cccc cccc 0076 180c c67c c0fe 007c     ......v...|...|.
    1f10:	827c 0c78 cc7c 0076 00c6 0c78 cc7c 0076     |.x.|.v...x.|.v.
    1f20:	1830 0c78 cc7c 0076 3030 0c78 cc7c 0076     0.x.|.v.00x.|.v.
    1f30:	0000 c07e 7ec0 380c 827c c67c c0fe 007c     ..~..~.8|.|...|.
    1f40:	00c6 c67c c0fe 007c 1830 c67c c0fe 007c     ..|...|.0.|...|.
    1f50:	0066 1838 1818 003c 827c 1838 1818 003c     f.8...<.|.8...<.
    1f60:	1830 3800 1818 003c 38c6 c66c c6fe 00c6     0..8..<..8l.....
    1f70:	6c38 c67c c6fe 00c6 3018 c0fe c0f8 00fe     8l|......0......
    1f80:	0000 187e d87e 007e 6c3e fecc cccc 00ce     ..~.~.~.>l......
    1f90:	827c c67c c6c6 007c 00c6 c67c c6c6 007c     |.|...|...|...|.
    1fa0:	1830 c67c c6c6 007c 8478 cc00 cccc 0076     0.|...|.x.....v.
    1fb0:	3060 cccc cccc 0076 00c6 c6c6 7ec6 fc06     `0....v......~..
    1fc0:	38c6 c66c 6cc6 0038 00c6 c6c6 c6c6 007c     .8l..l8.......|.
    1fd0:	1818 c07e 7ec0 1818 6c38 f064 6660 00fc     ..~..~..8ld.`f..
    1fe0:	6666 7e3c 7e18 1818 ccf8 facc cfc6 c7c6     ff<~.~..........
    1ff0:	1b0e 3c18 d818 0070 3018 0c78 cc7c 0076     ...<..p..0x.|.v.
    2000:	180c 3800 1818 003c 180c c67c c6c6 007c     ...8..<...|...|.
    2010:	3018 cccc cccc 0076 dc76 dc00 6666 0066     .0....v.v...fff.
    2020:	dc76 e600 def6 00ce 6c3c 3e6c 7e00 0000     v.......<ll>.~..
    2030:	6c38 386c 7c00 0000 0018 1818 6330 003e     8ll8.|......0c>.
    2040:	0000 fe00 c0c0 0000 0000 fe00 0606 0000     ................
    2050:	e663 7e6c 6633 0fcc e663 7a6c 6a36 06df     c.l~3f..c.lz6j..
    2060:	0018 1818 3c3c 0018 3300 cc66 3366 0000     ....<<...3f.f3..
    2070:	cc00 3366 cc66 0000 8822 8822 8822 8822     ..f3f...".".".".
    2080:	aa55 aa55 aa55 aa55 dd77 dd77 dd77 dd77     U.U.U.U.w.w.w.w.
    2090:	1818 1818 1818 1818 1818 1818 18f8 1818     ................
    20a0:	1818 18f8 18f8 1818 3636 3636 36f6 3636     ........6666.666
    20b0:	0000 0000 36fe 3636 0000 18f8 18f8 1818     .....666........
    20c0:	3636 06f6 36f6 3636 3636 3636 3636 3636     66...66666666666
    20d0:	0000 06fe 36f6 3636 3636 06f6 00fe 0000     .....66666......
    20e0:	3636 3636 00fe 0000 1818 18f8 00f8 0000     6666............
    20f0:	0000 0000 18f8 1818 1818 1818 001f 0000     ................
    2100:	1818 1818 00ff 0000 0000 0000 18ff 1818     ................
    2110:	1818 1818 181f 1818 0000 0000 00ff 0000     ................
    2120:	1818 1818 18ff 1818 1818 181f 181f 1818     ................
    2130:	3636 3636 3637 3636 3636 3037 003f 0000     666676666670?...
    2140:	0000 303f 3637 3636 3636 00f7 00ff 0000     ..?0766666......
    2150:	0000 00ff 36f7 3636 3636 3037 3637 3636     .....66666707666
    2160:	0000 00ff 00ff 0000 3636 00f7 36f7 3636     ........66...666
    2170:	1818 00ff 00ff 0000 3636 3636 00ff 0000     ........6666....
    2180:	0000 00ff 18ff 1818 0000 0000 36ff 3636     .............666
    2190:	3636 3636 003f 0000 1818 181f 001f 0000     6666?...........
    21a0:	0000 181f 181f 1818 0000 0000 363f 3636     ............?666
    21b0:	3636 3636 36ff 3636 1818 18ff 18ff 1818     6666.666........
    21c0:	1818 1818 00f8 0000 0000 0000 181f 1818     ................
    21d0:	ffff ffff ffff ffff 0000 0000 ffff ffff     ................
    21e0:	f0f0 f0f0 f0f0 f0f0 0f0f 0f0f 0f0f 0f0f     ................
    21f0:	ffff ffff 0000 0000 0000 dc76 dcc8 0076     ..........v...v.
    2200:	cc78 d8cc c6cc 00cc c6fe c0c0 c0c0 00c0     x...............
    2210:	0000 6cfe 6c6c 006c c6fe 3060 c660 00fe     ...llll...`0`...
    2220:	0000 d87e d8d8 0070 0000 6666 6666 c07c     ..~...p...ffff|.
    2230:	7600 18dc 1818 0018 187e 663c 3c66 7e18     .v......~.<ff<.~
    2240:	6c38 fec6 6cc6 0038 6c38 c6c6 6c6c 00ee     8l...l8.8l..ll..
    2250:	180e 3e0c 6666 003c 0000 db7e 7edb 0000     ...>ff<...~..~..
    2260:	0c06 db7e 7edb c060 301e 7e60 3060 001e     ..~..~`..0`~`0..
    2270:	7c00 c6c6 c6c6 00c6 fe00 fe00 fe00 0000     .|..............
    2280:	1818 187e 0018 007e 1830 180c 0030 007e     ..~...~.0...0.~.
    2290:	180c 1830 000c 007e 1b0e 181b 1818 1818     ..0...~.........
    22a0:	1818 1818 d818 70d8 1800 7e00 1800 0000     .......p...~....
    22b0:	7600 00dc dc76 0000 6c38 386c 0000 0000     .v..v...8ll8....
    22c0:	0000 1800 0018 0000 0000 1800 0000 0000     ................
    22d0:	0c0f 0c0c 6cec 1c3c 366c 3636 0036 0000     .....l<.l6666...
    22e0:	0c78 3018 007c 0000 0000 3c3c 3c3c 0000     x..0|.....<<<<..
	...

000022f8 <LSM6DS3Regmap.1>:
    22f8:	4412 5a10 5411 280a 6006 0007 0908 aa09     .D.Z.T.(.`......
    2308:	030a 0013 1015 0016 0113 0000               ............

00002314 <ssd1306_init_array>:
    2314:	00ae b010 00dc 6f81 a421 7fa8 00d3 f0d5     .......o!.......
    2324:	1dd9 35db ad40 a080 d901 8106 dbfe a8fe     ...5@...........
    2334:	af7f 00ff                                   ....

00002338 <channel_map>:
    2338:	0201 0403 0605 0807 0a09 0d0c 0f0e 1110     ................
    2348:	1312 1514 1716 1918 1b1a 1d1c 1f1e 2120     .............. !
    2358:	2322 2524 0026 270b                         "#$%&..'

Disassembly of section .data:

20000290 <_rand_lfsr>:
20000290:	a32f 747a 0000 0000                         /.zt....

20000298 <EventRelease>:
	R8_TMR_CTRL_MOD = 0b00000010; // Reset Timer
20000298:	400027b7          	lui	a5,0x40002
2000029c:	4709                	li	a4,2
2000029e:	40e78023          	sb	a4,1024(a5) # 40002400 <_eusrstack+0x1ffff400>
	R8_TMR_CTRL_MOD = 0b11000101; // Capture mode rising edge
200002a2:	fc500713          	li	a4,-59
200002a6:	40e78023          	sb	a4,1024(a5)
200002aa:	4511                	li	a0,4
200002ac:	6ba00067          	jr	1722(zero) # 6ba <funPinMode.part.0>

200002b0 <TMR1_IRQHandler>:
{
200002b0:	7139                	addi	sp,sp,-64
200002b2:	d62a                	sw	a0,44(sp)
200002b4:	d42e                	sw	a1,40(sp)
200002b6:	ce3a                	sw	a4,28(sp)
200002b8:	cc3e                	sw	a5,24(sp)
200002ba:	de06                	sw	ra,60(sp)
200002bc:	dc16                	sw	t0,56(sp)
200002be:	da1a                	sw	t1,52(sp)
200002c0:	d81e                	sw	t2,48(sp)
200002c2:	d232                	sw	a2,36(sp)
200002c4:	d036                	sw	a3,32(sp)
200002c6:	ca42                	sw	a6,20(sp)
200002c8:	c846                	sw	a7,16(sp)
200002ca:	c672                	sw	t3,12(sp)
200002cc:	c476                	sw	t4,8(sp)
200002ce:	c27a                	sw	t5,4(sp)
200002d0:	c07e                	sw	t6,0(sp)
	R8_TMR_INT_FLAG = 2;
200002d2:	400027b7          	lui	a5,0x40002
200002d6:	4709                	li	a4,2
200002d8:	40e78323          	sb	a4,1030(a5) # 40002406 <_eusrstack+0x1ffff406>
	lastfifo = R32_TMR_FIFO;
200002dc:	4107a703          	lw	a4,1040(a5)
	funPinMode( PA2, GPIO_ModeOut_PP_20mA );
200002e0:	4591                	li	a1,4
200002e2:	852e                	mv	a0,a1
	lastfifo = R32_TMR_FIFO;
200002e4:	e8e1ac23          	sw	a4,-360(gp) # 20000524 <lastfifo>
	funPinMode( PA2, GPIO_ModeOut_PP_20mA );
200002e8:	6ea000e7          	jalr	1770(zero) # 6ea <funPinMode>
}
200002ec:	50f2                	lw	ra,60(sp)
200002ee:	52e2                	lw	t0,56(sp)
200002f0:	5352                	lw	t1,52(sp)
200002f2:	53c2                	lw	t2,48(sp)
200002f4:	5532                	lw	a0,44(sp)
200002f6:	55a2                	lw	a1,40(sp)
200002f8:	5612                	lw	a2,36(sp)
200002fa:	5682                	lw	a3,32(sp)
200002fc:	4772                	lw	a4,28(sp)
200002fe:	47e2                	lw	a5,24(sp)
20000300:	4852                	lw	a6,20(sp)
20000302:	48c2                	lw	a7,16(sp)
20000304:	4e32                	lw	t3,12(sp)
20000306:	4ea2                	lw	t4,8(sp)
20000308:	4f12                	lw	t5,4(sp)
2000030a:	4f82                	lw	t6,0(sp)
2000030c:	6121                	addi	sp,sp,64
2000030e:	30200073          	mret
	...

20000314 <QMC6309Regmap.0>:
20000314:	190a480b                                .H..

20000318 <bubblemirror>:
20000318:	00200002 f800f800 003f003f 0e00fe00     .. .....?.?.....
20000328:	00e000ff 0380ff80 038003ff 00c0ffc0     ................
20000338:	060007ff 0060ffe0 0c080fff 0030fff0     ......`.......0.
20000348:	181c1fff 0018fff8 303e3fff 0008fff8     .........?>0....
20000358:	207f3fff 000cfffc 60fe7fff 0004fffc     .?. .......`....
20000368:	41fc7fff 0006fffe c3f8ffff 0002fffe     ...A............
20000378:	87f0ffff 0002fffe 83e0ffff 0002fffe     ................
20000388:	81c0ffff 0002fffe 8080ffff 0002fffe     ................
20000398:	8000ffff 0002fffe 8000ffff 0002fffe     ................
200003a8:	8000ffff 0002fffe 8000ffff 0002fffe     ................
200003b8:	8000ffff 0006fffe c000ffff 0004fffc     ................
200003c8:	40007fff 000cfffc 60007fff 0008fff8     ...@.......`....
200003d8:	20003fff 0018fff8 30003fff 0030fff0     .?. .....?.0..0.
200003e8:	18001fff 0060ffe0 0c000fff 00c0ffc0     ......`.........
200003f8:	060007ff 0380ff80 038003ff 0e00fe00     ................
20000408:	00e000ff f800f800 003f003f 00000000     ........?.?.....
20000418:	00000000                                ....

2000041c <bubble>:
2000041c:	00200002 fc00fc00 001f001f 0700ff00     .. .............
2000042c:	0070007f 01c0ffc0 01c001ff 0060ffe0     ..p...........`.
2000043c:	030003ff 1030fff0 060007ff 3818fff8     ......0........8
2000044c:	0c000fff 7c0cfffc 18001fff fe04fffc     .......|........
2000045c:	10001fff 7f06fffe 30003fff 3f82fffe     .........?.0...?
2000046c:	20003fff 1fc3ffff 60007fff 0fe1ffff     .?. .......`....
2000047c:	40007fff 07c1ffff 40007fff 0381ffff     ...@.......@....
2000048c:	40007fff 0101ffff 40007fff 0001ffff     ...@.......@....
2000049c:	40007fff 0001ffff 40007fff 0001ffff     ...@.......@....
200004ac:	40007fff 0001ffff 40007fff 0001ffff     ...@.......@....
200004bc:	40007fff 0003ffff 60007fff 0002fffe     ...@.......`....
200004cc:	20003fff 0006fffe 30003fff 0004fffc     .?. .....?.0....
200004dc:	10001fff 000cfffc 18001fff 0018fff8     ................
200004ec:	0c000fff 0030fff0 060007ff 0060ffe0     ......0.......`.
200004fc:	030003ff 01c0ffc0 01c001ff 0700ff00     ................
2000050c:	0070007f fc00fc00 001f001f 00000000     ..p.............
2000051c:	00000000                                ....
