
firmware.elf:     file format elf32-littleriscv


Disassembly of section .init:

00000000 <InterruptVector>:
	void InterruptVector()         __attribute__((naked)) __attribute((section(".init"))) __attribute((weak,alias("InterruptVectorDefault"))) __attribute((naked));
	void InterruptVectorDefault()  __attribute__((naked)) __attribute((section(".init"))) __attribute((naked));
	void InterruptVectorDefault( void )
	{
		#if !defined(FUNCONF_TINYVECTOR) || !FUNCONF_TINYVECTOR
			asm volatile( DEFAULT_INTERRUPT_VECTOR_CONTENTS );
   0:	21c0106f          	j	121c <handle_reset>
   4:	00000000          	.word	0x00000000
   8:	000012d4          	.word	0x000012d4
   c:	000012d4          	.word	0x000012d4
  10:	f3f9bda9          	.word	0xf3f9bda9
  14:	000012d4          	.word	0x000012d4
	...
  20:	000012d4          	.word	0x000012d4
  24:	000012d4          	.word	0x000012d4
	...
  30:	000012d4          	.word	0x000012d4
  34:	00000000          	.word	0x00000000
  38:	000012d4          	.word	0x000012d4
  3c:	00000000          	.word	0x00000000
  40:	000012d4          	.word	0x000012d4
  44:	000012d4          	.word	0x000012d4
  48:	000012d4          	.word	0x000012d4
  4c:	000012d4          	.word	0x000012d4
  50:	000012d4          	.word	0x000012d4
  54:	00001f4a          	.word	0x00001f4a
  58:	000012d4          	.word	0x000012d4
  5c:	00000000          	.word	0x00000000
  60:	200002da          	.word	0x200002da
  64:	000012d4          	.word	0x000012d4
  68:	000012d4          	.word	0x000012d4
  6c:	000012d4          	.word	0x000012d4
  70:	000012d4          	.word	0x000012d4
  74:	000012d4          	.word	0x000012d4
  78:	000012d4          	.word	0x000012d4
  7c:	000012d4          	.word	0x000012d4
  80:	000012d4          	.word	0x000012d4
  84:	000012d4          	.word	0x000012d4
  88:	000012d4          	.word	0x000012d4
  8c:	000012d4          	.word	0x000012d4

Disassembly of section .highcode:

20000000 <EventRelease>:

// The timing on the setup has to be tight.
void EventRelease(void) __attribute__((section(".highcode"))) __attribute__((noinline));
void EventRelease(void)
{
	R8_TMR_CTRL_MOD = 0b00000010; // Reset Timer
20000000:	400027b7          	lui	a5,0x40002
20000004:	4709                	li	a4,2
20000006:	40e78023          	sb	a4,1024(a5) # 40002400 <_eusrstack+0x1ffff400>
	R8_TMR_CTRL_MOD = 0b11000101; // Capture mode rising edge
2000000a:	fc500713          	li	a4,-59
2000000e:	40e78023          	sb	a4,1024(a5)
#define funDigitalWrite( pin, value ) do{ if((value)==FUN_HIGH){GPIO_SetBits(pin);} else if((value)==FUN_LOW){GPIO_ResetBits(pin);} }while(0)
#define funGpioInitAll()              // funGpioInitAll() does not do anything on ch5xx, put here for consistency

RV_STATIC_INLINE void funPinMode(u32 pin, GPIOModeTypeDef mode)
{
	switch(mode) {
20000012:	4511                	li	a0,4
20000014:	e0001317          	auipc	t1,0xe0001
20000018:	e2230067          	jr	-478(t1) # e36 <funPinMode.part.0>

2000001c <iSLERRSSI>:

__HIGH_CODE
int iSLERRSSI() {
#ifdef CH570_CH572
	uint8_t *tx_buf = (uint8_t*)LLE_BUF;
	int len = tx_buf[1];
2000001c:	200027b7          	lui	a5,0x20002
	return (int8_t)tx_buf[len +4];
20000020:	c417c783          	lbu	a5,-959(a5) # 20001c41 <LLE_BUF+0x1>
20000024:	20002737          	lui	a4,0x20002
20000028:	c4470713          	addi	a4,a4,-956 # 20001c44 <LLE_BUF+0x4>
2000002c:	97ba                	add	a5,a5,a4
#else
	return (int8_t)(BB->RSSI >> 0xf);
#endif
}
2000002e:	00078503          	lb	a0,0(a5)
20000032:	8082                	ret

20000034 <iSLERCRCOK>:

__HIGH_CODE
int iSLERCRCOK() {
#ifdef CH570_CH572
	uint8_t *tx_buf = (uint8_t*)LLE_BUF;
	int len = tx_buf[1];
20000034:	200027b7          	lui	a5,0x20002
	return (int8_t)!(tx_buf[len + 5] & 0x10);
20000038:	c417c783          	lbu	a5,-959(a5) # 20001c41 <LLE_BUF+0x1>
2000003c:	20002737          	lui	a4,0x20002
20000040:	c4570713          	addi	a4,a4,-955 # 20001c45 <LLE_BUF+0x5>
20000044:	97ba                	add	a5,a5,a4
20000046:	0007c503          	lbu	a0,0(a5)
2000004a:	8111                	srli	a0,a0,0x4
2000004c:	8905                	andi	a0,a0,1
#else
	// Unimplemented!
	return -1;
#endif
}
2000004e:	00154513          	xori	a0,a0,1
20000052:	8082                	ret

20000054 <iSLERTX>:

__HIGH_CODE
void iSLERTX(uint32_t access_address, uint8_t adv[], size_t len, uint8_t channel, uint8_t phy_mode) {
20000054:	1101                	addi	sp,sp,-32
20000056:	ca26                	sw	s1,20(sp)
	BB->CTRL_TX = (BB->CTRL_TX & 0xfffffffc) | 1;
20000058:	4000c4b7          	lui	s1,0x4000c
2000005c:	10048493          	addi	s1,s1,256 # 4000c100 <_eusrstack+0x20009100>
20000060:	58dc                	lw	a5,52(s1)
void iSLERTX(uint32_t access_address, uint8_t adv[], size_t len, uint8_t channel, uint8_t phy_mode) {
20000062:	ce06                	sw	ra,28(sp)
20000064:	cc22                	sw	s0,24(sp)
	BB->CTRL_TX = (BB->CTRL_TX & 0xfffffffc) | 1;
20000066:	9bf1                	andi	a5,a5,-4
20000068:	0017e793          	ori	a5,a5,1
void iSLERTX(uint32_t access_address, uint8_t adv[], size_t len, uint8_t channel, uint8_t phy_mode) {
2000006c:	c84a                	sw	s2,16(sp)
2000006e:	c64e                	sw	s3,12(sp)
20000070:	c452                	sw	s4,8(sp)
20000072:	89aa                	mv	s3,a0
	BB->CTRL_TX = (BB->CTRL_TX & 0xfffffffc) | 1;
20000074:	d8dc                	sw	a5,52(s1)

	DevSetChannel(channel);
20000076:	8536                	mv	a0,a3
void iSLERTX(uint32_t access_address, uint8_t adv[], size_t len, uint8_t channel, uint8_t phy_mode) {
20000078:	8a2e                	mv	s4,a1
2000007a:	843a                	mv	s0,a4
2000007c:	8932                	mv	s2,a2
	DevSetChannel(channel);
2000007e:	e0001097          	auipc	ra,0xe0001
20000082:	c38080e7          	jalr	-968(ra) # cb6 <DevSetChannel>

	// Uncomment to disable whitening to debug RF.
	//BB->CTRL_CFG |= (1<<6);
	DevSetMode(DEVSETMODE_TX);
20000086:	25800513          	li	a0,600
2000008a:	e0001097          	auipc	ra,0xe0001
2000008e:	b60080e7          	jalr	-1184(ra) # bea <DevSetMode>

	BB->ACCESSADDRESS1 = access_address; // access address
	BB->CRCINIT1 = 0x555555; // crc init
20000092:	005557b7          	lui	a5,0x555
	BB->ACCESSADDRESS1 = access_address; // access address
20000096:	0134a623          	sw	s3,12(s1)
	BB->CRCINIT1 = 0x555555; // crc init
2000009a:	55578793          	addi	a5,a5,1365 # 555555 <firmware.c.57502c15+0x550d37>
2000009e:	c0dc                	sw	a5,4(s1)
#ifdef CH570_CH572
	BB->ACCESSADDRESS2 = access_address;
200000a0:	0734a023          	sw	s3,96(s1)
	BB->CRCINIT2 = 0x555555;
200000a4:	ccbc                	sw	a5,88(s1)
	BB->CRCPOLY1 = (BB->CRCPOLY1 & 0xff000000) | 0x80032d; // crc poly
200000a6:	449c                	lw	a5,8(s1)
200000a8:	ff0006b7          	lui	a3,0xff000
200000ac:	00800737          	lui	a4,0x800
200000b0:	32d70713          	addi	a4,a4,813 # 80032d <firmware.c.57502c15+0x7fbb0f>
200000b4:	8ff5                	and	a5,a5,a3
200000b6:	8fd9                	or	a5,a5,a4
200000b8:	c49c                	sw	a5,8(s1)
	BB->CRCPOLY2 = (BB->CRCPOLY2 & 0xff000000) | 0x80032d;
200000ba:	4cfc                	lw	a5,92(s1)
200000bc:	8ff5                	and	a5,a5,a3
200000be:	8fd9                	or	a5,a5,a4
200000c0:	ccfc                	sw	a5,92(s1)
#endif

#if defined(CH571_CH573)
	DMA->TXBUF = (uint32_t)adv;
#else
	LL->TXBUF = (uint32_t)adv;
200000c2:	4000c7b7          	lui	a5,0x4000c
200000c6:	20078793          	addi	a5,a5,512 # 4000c200 <_eusrstack+0x20009200>
200000ca:	0747ac23          	sw	s4,120(a5)
#endif

	// Wait for tuning bit to clear.
	for( int timeout = 3000; !(RF->RF26 & 0x1000000) && timeout >= 0; timeout-- );
200000ce:	6785                	lui	a5,0x1
200000d0:	bba78793          	addi	a5,a5,-1094 # bba <ssd1306_drawPixel+0xc>
200000d4:	4000d737          	lui	a4,0x4000d
200000d8:	5734                	lw	a3,104(a4)
200000da:	00769613          	slli	a2,a3,0x7
200000de:	00064463          	bltz	a2,200000e6 <iSLERTX+0x92>
200000e2:	17fd                	addi	a5,a5,-1
200000e4:	fbf5                	bnez	a5,200000d8 <iSLERTX+0x84>
		BB->CTRL_CFG = (BB->CTRL_CFG & 0xffff3fff) | ((phy_mode == PHY_S2) ? 0x4000 : 0);
	}
#elif defined(CH571_CH573)
	BB->CTRL_CFG = CTRL_CFG_PHY_1M; // no 2M PHY on ch571/3
#else
	BB->CTRL_CFG = (phy_mode == PHY_2M) ? CTRL_CFG_PHY_2M:
200000e6:	4000c7b7          	lui	a5,0x4000c
200000ea:	4709                	li	a4,2
200000ec:	10078793          	addi	a5,a5,256 # 4000c100 <_eusrstack+0x20009100>
200000f0:	08e41863          	bne	s0,a4,20000180 <iSLERTX+0x12c>
200000f4:	4398                	lw	a4,0(a5)
200000f6:	cff77713          	andi	a4,a4,-769
200000fa:	4000c7b7          	lui	a5,0x4000c
200000fe:	10078793          	addi	a5,a5,256 # 4000c100 <_eusrstack+0x20009100>
20000102:	c398                	sw	a4,0(a5)
										  CTRL_CFG_PHY_1M; // default 1M for now
#endif

#if defined(CH570_CH572)
	BB->BB9 = (BB->BB9 & 0xf9ffffff) | ((phy_mode == PHY_2M) ? 0 : 0x2000000);
20000104:	53d8                	lw	a4,36(a5)
20000106:	1479                	addi	s0,s0,-2
20000108:	fa0006b7          	lui	a3,0xfa000
2000010c:	16fd                	addi	a3,a3,-1 # f9ffffff <_eusrstack+0xd9ffcfff>
2000010e:	00803433          	snez	s0,s0
20000112:	8f75                	and	a4,a4,a3
20000114:	0466                	slli	s0,s0,0x19
20000116:	8c59                	or	s0,s0,a4
20000118:	d3c0                	sw	s0,36(a5)
#if defined(CH571_CH573)
	BB->BB11 = (BB->BB11 & 0xfffffffc); // |2 for RX
#endif

	// This clears bit 17 (If set, seems to have no impact.)
	LL->LL4 &= 0xfffdffff;
2000011a:	4000c437          	lui	s0,0x4000c
2000011e:	20040413          	addi	s0,s0,512 # 4000c200 <_eusrstack+0x20009200>
20000122:	4818                	lw	a4,16(s0)
20000124:	7681                	lui	a3,0xfffe0
20000126:	16fd                	addi	a3,a3,-1 # fffdffff <_eusrstack+0xdffdcfff>
20000128:	8f75                	and	a4,a4,a3
2000012a:	c818                	sw	a4,16(s0)

#if !defined(CH571_CH573)
	LL->STATUS = LL_STATUS_TX;
2000012c:	00020737          	lui	a4,0x20
20000130:	c418                	sw	a4,8(s0)
#endif
	LL->TMR = (uint32_t)(len *512); // needs optimisation, per phy mode
20000132:	0926                	slli	s2,s2,0x9
20000134:	07242223          	sw	s2,100(s0)

	BB->CTRL_CFG |= CTRL_CFG_START_TX;
20000138:	4398                	lw	a4,0(a5)
2000013a:	010006b7          	lui	a3,0x1000
2000013e:	8f55                	or	a4,a4,a3
20000140:	c398                	sw	a4,0(a5)
	BB->CTRL_TX &= 0xfffffffc;
20000142:	5bd8                	lw	a4,52(a5)
20000144:	9b71                	andi	a4,a4,-4
20000146:	dbd8                	sw	a4,52(a5)

	LL->LL0 = 2; // Not sure what this does, but on RX it's 1
20000148:	4789                	li	a5,2
2000014a:	c01c                	sw	a5,0(s0)

	while(LL->TMR); // wait for tx buffer to empty
2000014c:	507c                	lw	a5,100(s0)
2000014e:	fffd                	bnez	a5,2000014c <iSLERTX+0xf8>
	DevSetMode(0);
20000150:	4501                	li	a0,0
20000152:	e0001097          	auipc	ra,0xe0001
20000156:	a98080e7          	jalr	-1384(ra) # bea <DevSetMode>
	if(LL->LL0 & 3) {
2000015a:	401c                	lw	a5,0(s0)
2000015c:	8b8d                	andi	a5,a5,3
2000015e:	cb89                	beqz	a5,20000170 <iSLERTX+0x11c>
		LL->CTRL_MOD &= CTRL_MOD_RFSTOP;
20000160:	483c                	lw	a5,80(s0)
20000162:	8ff7f793          	andi	a5,a5,-1793
20000166:	c83c                	sw	a5,80(s0)
		LL->LL0 |= 0x08;
20000168:	401c                	lw	a5,0(s0)
2000016a:	0087e793          	ori	a5,a5,8
2000016e:	c01c                	sw	a5,0(s0)
	}
}
20000170:	40f2                	lw	ra,28(sp)
20000172:	4462                	lw	s0,24(sp)
20000174:	44d2                	lw	s1,20(sp)
20000176:	4942                	lw	s2,16(sp)
20000178:	49b2                	lw	s3,12(sp)
2000017a:	4a22                	lw	s4,8(sp)
2000017c:	6105                	addi	sp,sp,32
2000017e:	8082                	ret
										  CTRL_CFG_PHY_1M; // default 1M for now
20000180:	4398                	lw	a4,0(a5)
20000182:	cff77713          	andi	a4,a4,-769
	BB->CTRL_CFG = (phy_mode == PHY_2M) ? CTRL_CFG_PHY_2M:
20000186:	10076713          	ori	a4,a4,256
2000018a:	bf85                	j	200000fa <iSLERTX+0xa6>

2000018c <iSLERRX>:

__HIGH_CODE
void iSLERRX(uint32_t access_address, uint8_t channel, uint8_t phy_mode) {
2000018c:	1141                	addi	sp,sp,-16
2000018e:	c226                	sw	s1,4(sp)
20000190:	84aa                	mv	s1,a0
	DevSetMode(0);
20000192:	4501                	li	a0,0
void iSLERRX(uint32_t access_address, uint8_t channel, uint8_t phy_mode) {
20000194:	c422                	sw	s0,8(sp)
20000196:	c04a                	sw	s2,0(sp)
20000198:	c606                	sw	ra,12(sp)
2000019a:	892e                	mv	s2,a1
2000019c:	8432                	mv	s0,a2
	DevSetMode(0);
2000019e:	e0001097          	auipc	ra,0xe0001
200001a2:	a4c080e7          	jalr	-1460(ra) # bea <DevSetMode>
	if(LL->LL0 & 3) {
200001a6:	4000c7b7          	lui	a5,0x4000c
200001aa:	20078793          	addi	a5,a5,512 # 4000c200 <_eusrstack+0x20009200>
200001ae:	4398                	lw	a4,0(a5)
200001b0:	8b0d                	andi	a4,a4,3
200001b2:	cb09                	beqz	a4,200001c4 <iSLERRX+0x38>
		LL->CTRL_MOD &= CTRL_MOD_RFSTOP;
200001b4:	4bb8                	lw	a4,80(a5)
200001b6:	8ff77713          	andi	a4,a4,-1793
200001ba:	cbb8                	sw	a4,80(a5)
		LL->LL0 |= 0x08;
200001bc:	4398                	lw	a4,0(a5)
200001be:	00876713          	ori	a4,a4,8
200001c2:	c398                	sw	a4,0(a5)
	}
	LL->TMR = 0;
200001c4:	4000c7b7          	lui	a5,0x4000c
200001c8:	20078793          	addi	a5,a5,512 # 4000c200 <_eusrstack+0x20009200>
200001cc:	0607a223          	sw	zero,100(a5)

	DevSetChannel(channel);
200001d0:	854a                	mv	a0,s2
200001d2:	e0001097          	auipc	ra,0xe0001
200001d6:	ae4080e7          	jalr	-1308(ra) # cb6 <DevSetChannel>
	DevSetMode(DEVSETMODE_RX);
200001da:	15800513          	li	a0,344
200001de:	e0001097          	auipc	ra,0xe0001
200001e2:	a0c080e7          	jalr	-1524(ra) # bea <DevSetMode>
		BB->CTRL_CFG = (BB->CTRL_CFG & 0xffff3fff) | ((phy_mode == PHY_S2) ? 0x4000 : 0);
	}
#elif defined(CH571_CH573)
	BB->CTRL_CFG = CTRL_CFG_PHY_1M; // no 2M PHY on ch571/3
#else
	BB->CTRL_CFG = (phy_mode == PHY_2M) ? CTRL_CFG_PHY_2M:
200001e6:	4000c7b7          	lui	a5,0x4000c
200001ea:	10078793          	addi	a5,a5,256 # 4000c100 <_eusrstack+0x20009100>
200001ee:	439c                	lw	a5,0(a5)
200001f0:	4709                	li	a4,2
200001f2:	cff7f793          	andi	a5,a5,-769
200001f6:	0ce41a63          	bne	s0,a4,200002ca <iSLERRX+0x13e>
200001fa:	4000c737          	lui	a4,0x4000c
200001fe:	10070713          	addi	a4,a4,256 # 4000c100 <_eusrstack+0x20009100>
20000202:	c31c                	sw	a5,0(a4)
										  CTRL_CFG_PHY_1M; // default 1M for now
#endif

#ifdef CH570_CH572
	BB->BB9 = (BB->BB9 & 0xf9ffffff) | ((phy_mode == PHY_2M) ? 0 : 0x2000000);
20000204:	5354                	lw	a3,36(a4)
20000206:	ffe40793          	addi	a5,s0,-2
2000020a:	fa000637          	lui	a2,0xfa000
2000020e:	00f037b3          	snez	a5,a5
20000212:	167d                	addi	a2,a2,-1 # f9ffffff <_eusrstack+0xd9ffcfff>
20000214:	07e6                	slli	a5,a5,0x19
20000216:	8ef1                	and	a3,a3,a2
20000218:	8fd5                	or	a5,a5,a3
2000021a:	d35c                	sw	a5,36(a4)
	RF->RF20 = (RF->RF20 & 0xffffffe0) | ((phy_mode == PHY_2M) ? (tuneFilter2M & 0x1f) : (tuneFilter & 0x1f));
2000021c:	4000d7b7          	lui	a5,0x4000d
20000220:	4bbc                	lw	a5,80(a5)
20000222:	fe07f713          	andi	a4,a5,-32
20000226:	4789                	li	a5,2
20000228:	0af41463          	bne	s0,a5,200002d0 <iSLERRX+0x144>
2000022c:	200027b7          	lui	a5,0x20002
20000230:	bf07a783          	lw	a5,-1040(a5) # 20001bf0 <tuneFilter2M>
20000234:	8bfd                	andi	a5,a5,31
20000236:	8fd9                	or	a5,a5,a4
20000238:	4000d737          	lui	a4,0x4000d
2000023c:	cb3c                	sw	a5,80(a4)
	BB->BB5 = (BB->BB5 & 0xffffffc0) | ((phy_mode == PHY_2M) ? 0xd : 0xb);
2000023e:	4000c7b7          	lui	a5,0x4000c
20000242:	10078793          	addi	a5,a5,256 # 4000c100 <_eusrstack+0x20009100>
20000246:	4bd8                	lw	a4,20(a5)
20000248:	4609                	li	a2,2
2000024a:	46ad                	li	a3,11
2000024c:	fc077713          	andi	a4,a4,-64
20000250:	00c41363          	bne	s0,a2,20000256 <iSLERRX+0xca>
20000254:	46b5                	li	a3,13
20000256:	8f55                	or	a4,a4,a3
20000258:	cbd8                	sw	a4,20(a5)
	BB->BB7 = (BB->BB7 & 0xff00fc00) | ((phy_mode == PHY_2M) ? 0x7f00a0 : 0x79009c);
2000025a:	4fd8                	lw	a4,28(a5)
2000025c:	ff0107b7          	lui	a5,0xff010
20000260:	c0078793          	addi	a5,a5,-1024 # ff00fc00 <_eusrstack+0xdf00cc00>
20000264:	8f7d                	and	a4,a4,a5
20000266:	4689                	li	a3,2
20000268:	007907b7          	lui	a5,0x790
2000026c:	09c78793          	addi	a5,a5,156 # 79009c <firmware.c.57502c15+0x78b87e>
20000270:	00d41663          	bne	s0,a3,2000027c <iSLERRX+0xf0>
20000274:	007f07b7          	lui	a5,0x7f0
20000278:	0a078793          	addi	a5,a5,160 # 7f00a0 <firmware.c.57502c15+0x7eb882>
2000027c:	8f5d                	or	a4,a4,a5
2000027e:	4000c7b7          	lui	a5,0x4000c
20000282:	10078793          	addi	a5,a5,256 # 4000c100 <_eusrstack+0x20009100>
20000286:	cfd8                	sw	a4,28(a5)
	BB->BB6 = (BB->BB6 & 0xfffffc00) | ((phy_mode == PHY_2M) ? 0x13a : 0x132);
	BB->BB4 = (BB->BB4 & 0x00ffffff) | ((phy_mode == PHY_2M) ? 0x78000000 : 0x7f000000);
#endif

	BB->ACCESSADDRESS1 = access_address; // access address
	BB->CRCINIT1 = 0x555555; // crc init
20000288:	00555737          	lui	a4,0x555
	BB->ACCESSADDRESS1 = access_address; // access address
2000028c:	c7c4                	sw	s1,12(a5)
	BB->CRCINIT1 = 0x555555; // crc init
2000028e:	55570713          	addi	a4,a4,1365 # 555555 <firmware.c.57502c15+0x550d37>
20000292:	c3d8                	sw	a4,4(a5)
#ifdef CH570_CH572
	BB->ACCESSADDRESS2 = access_address;
20000294:	d3a4                	sw	s1,96(a5)
	BB->CRCINIT2 = 0x555555;
20000296:	cfb8                	sw	a4,88(a5)
	BB->CRCPOLY1 = (BB->CRCPOLY1 & 0xff000000) | 0x80032d; // crc poly
20000298:	4798                	lw	a4,8(a5)
2000029a:	ff000637          	lui	a2,0xff000
2000029e:	008006b7          	lui	a3,0x800
200002a2:	32d68693          	addi	a3,a3,813 # 80032d <firmware.c.57502c15+0x7fbb0f>
200002a6:	8f71                	and	a4,a4,a2
200002a8:	8f55                	or	a4,a4,a3
200002aa:	c798                	sw	a4,8(a5)
	BB->CRCPOLY2 = (BB->CRCPOLY2 & 0xff000000) | 0x80032d;
200002ac:	4ff8                	lw	a4,92(a5)

	LL->LL0 = 1; // Not sure what this does, but on TX it's 2
#ifndef ISLER_CALLBACK
	rx_ready = 0;
#endif
}
200002ae:	40b2                	lw	ra,12(sp)
200002b0:	4422                	lw	s0,8(sp)
	BB->CRCPOLY2 = (BB->CRCPOLY2 & 0xff000000) | 0x80032d;
200002b2:	8f71                	and	a4,a4,a2
200002b4:	8f55                	or	a4,a4,a3
200002b6:	cff8                	sw	a4,92(a5)
	LL->LL0 = 1; // Not sure what this does, but on TX it's 2
200002b8:	4000c7b7          	lui	a5,0x4000c
200002bc:	4705                	li	a4,1
200002be:	20e7a023          	sw	a4,512(a5) # 4000c200 <_eusrstack+0x20009200>
}
200002c2:	4492                	lw	s1,4(sp)
200002c4:	4902                	lw	s2,0(sp)
200002c6:	0141                	addi	sp,sp,16
200002c8:	8082                	ret
	BB->CTRL_CFG = (phy_mode == PHY_2M) ? CTRL_CFG_PHY_2M:
200002ca:	1007e793          	ori	a5,a5,256
200002ce:	b735                	j	200001fa <iSLERRX+0x6e>
	RF->RF20 = (RF->RF20 & 0xffffffe0) | ((phy_mode == PHY_2M) ? (tuneFilter2M & 0x1f) : (tuneFilter & 0x1f));
200002d0:	200027b7          	lui	a5,0x20002
200002d4:	bec7a783          	lw	a5,-1044(a5) # 20001bec <tuneFilter>
200002d8:	bfb1                	j	20000234 <iSLERRX+0xa8>

200002da <TMR1_IRQHandler>:
{
200002da:	7139                	addi	sp,sp,-64
200002dc:	d62a                	sw	a0,44(sp)
200002de:	ce3a                	sw	a4,28(sp)
200002e0:	cc3e                	sw	a5,24(sp)
200002e2:	de06                	sw	ra,60(sp)
200002e4:	dc16                	sw	t0,56(sp)
200002e6:	da1a                	sw	t1,52(sp)
200002e8:	d81e                	sw	t2,48(sp)
200002ea:	d42e                	sw	a1,40(sp)
200002ec:	d232                	sw	a2,36(sp)
200002ee:	d036                	sw	a3,32(sp)
200002f0:	ca42                	sw	a6,20(sp)
200002f2:	c846                	sw	a7,16(sp)
200002f4:	c672                	sw	t3,12(sp)
200002f6:	c476                	sw	t4,8(sp)
200002f8:	c27a                	sw	t5,4(sp)
200002fa:	c07e                	sw	t6,0(sp)
	R8_TMR_INT_FLAG = 2;
200002fc:	400027b7          	lui	a5,0x40002
20000300:	4709                	li	a4,2
20000302:	40e78323          	sb	a4,1030(a5) # 40002406 <_eusrstack+0x1ffff406>
	lastfifo = R32_TMR_FIFO;
20000306:	4107a703          	lw	a4,1040(a5)
	funPinMode( PA2, GPIO_ModeOut_PP_20mA );
2000030a:	4511                	li	a0,4
	lastfifo = R32_TMR_FIFO;
2000030c:	200027b7          	lui	a5,0x20002
20000310:	bee7a423          	sw	a4,-1048(a5) # 20001be8 <lastfifo>
	funPinMode( PA2, GPIO_ModeOut_PP_20mA );
20000314:	e0001097          	auipc	ra,0xe0001
20000318:	eea080e7          	jalr	-278(ra) # 11fe <funPinMode.constprop.0>
}
2000031c:	50f2                	lw	ra,60(sp)
2000031e:	52e2                	lw	t0,56(sp)
20000320:	5352                	lw	t1,52(sp)
20000322:	53c2                	lw	t2,48(sp)
20000324:	5532                	lw	a0,44(sp)
20000326:	55a2                	lw	a1,40(sp)
20000328:	5612                	lw	a2,36(sp)
2000032a:	5682                	lw	a3,32(sp)
2000032c:	4772                	lw	a4,28(sp)
2000032e:	47e2                	lw	a5,24(sp)
20000330:	4852                	lw	a6,20(sp)
20000332:	48c2                	lw	a7,16(sp)
20000334:	4e32                	lw	t3,12(sp)
20000336:	4ea2                	lw	t4,8(sp)
20000338:	4f12                	lw	t5,4(sp)
2000033a:	4f82                	lw	t6,0(sp)
2000033c:	6121                	addi	sp,sp,64
2000033e:	30200073          	mret

20000342 <ConfigI2C>:
	#define DSDA_DONE_INPUT
#endif

I2CCODE void I2CFNCOLLAPSE(I2CPREFIX, ConfigI2C)()
{
	DSDA_IHIGH
20000342:	400017b7          	lui	a5,0x40001
20000346:	0b878793          	addi	a5,a5,184 # 400010b8 <_eusrstack+0x1fffe0b8>
2000034a:	40000713          	li	a4,1024
2000034e:	c398                	sw	a4,0(a5)
	DSCL_IHIGH
20000350:	6705                	lui	a4,0x1
20000352:	80070713          	addi	a4,a4,-2048 # 800 <_einit+0x770>
20000356:	c398                	sw	a4,0(a5)
}
20000358:	8082                	ret

2000035a <SendStart>:

I2CCODE void I2CFNCOLLAPSE(I2CPREFIX, SendStart)()
{
	DSDA_IHIGH
2000035a:	400017b7          	lui	a5,0x40001
2000035e:	0b878793          	addi	a5,a5,184 # 400010b8 <_eusrstack+0x1fffe0b8>
20000362:	40000693          	li	a3,1024
20000366:	c394                	sw	a3,0(a5)
	DELAY1
20000368:	0001                	nop
2000036a:	0001                	nop
2000036c:	0001                	nop
2000036e:	0001                	nop
20000370:	0001                	nop
20000372:	0001                	nop
20000374:	0001                	nop
20000376:	0001                	nop
20000378:	0001                	nop
	DSCL_IHIGH
2000037a:	6705                	lui	a4,0x1
2000037c:	80070713          	addi	a4,a4,-2048 # 800 <_einit+0x770>
20000380:	c398                	sw	a4,0(a5)
	DELAY1
20000382:	0001                	nop
20000384:	0001                	nop
20000386:	0001                	nop
20000388:	0001                	nop
2000038a:	0001                	nop
2000038c:	0001                	nop
2000038e:	0001                	nop
20000390:	0001                	nop
20000392:	0001                	nop
	DSDA_OUTPUT
20000394:	400017b7          	lui	a5,0x40001
20000398:	0ac78793          	addi	a5,a5,172 # 400010ac <_eusrstack+0x1fffe0ac>
2000039c:	c394                	sw	a3,0(a5)
	DELAY1
2000039e:	0001                	nop
200003a0:	0001                	nop
200003a2:	0001                	nop
200003a4:	0001                	nop
200003a6:	0001                	nop
200003a8:	0001                	nop
200003aa:	0001                	nop
200003ac:	0001                	nop
200003ae:	0001                	nop
	DSCL_OUTPUT
200003b0:	c398                	sw	a4,0(a5)
	DELAY1
200003b2:	0001                	nop
200003b4:	0001                	nop
200003b6:	0001                	nop
200003b8:	0001                	nop
200003ba:	0001                	nop
200003bc:	0001                	nop
200003be:	0001                	nop
200003c0:	0001                	nop
200003c2:	0001                	nop
}
200003c4:	8082                	ret

200003c6 <SendStop>:

I2CCODE void I2CFNCOLLAPSE(I2CPREFIX, SendStop)()
{
	DELAY1
200003c6:	0001                	nop
200003c8:	0001                	nop
200003ca:	0001                	nop
200003cc:	0001                	nop
200003ce:	0001                	nop
200003d0:	0001                	nop
200003d2:	0001                	nop
200003d4:	0001                	nop
200003d6:	0001                	nop
	DSDA_OUTPUT
200003d8:	400017b7          	lui	a5,0x40001
200003dc:	0ac78793          	addi	a5,a5,172 # 400010ac <_eusrstack+0x1fffe0ac>
200003e0:	40000613          	li	a2,1024
200003e4:	c390                	sw	a2,0(a5)
	DELAY1
200003e6:	0001                	nop
200003e8:	0001                	nop
200003ea:	0001                	nop
200003ec:	0001                	nop
200003ee:	0001                	nop
200003f0:	0001                	nop
200003f2:	0001                	nop
200003f4:	0001                	nop
200003f6:	0001                	nop
	DSCL_IHIGH
200003f8:	400016b7          	lui	a3,0x40001
200003fc:	6705                	lui	a4,0x1
200003fe:	0b868693          	addi	a3,a3,184 # 400010b8 <_eusrstack+0x1fffe0b8>
20000402:	80070713          	addi	a4,a4,-2048 # 800 <_einit+0x770>
20000406:	c298                	sw	a4,0(a3)
	DELAY1
20000408:	0001                	nop
2000040a:	0001                	nop
2000040c:	0001                	nop
2000040e:	0001                	nop
20000410:	0001                	nop
20000412:	0001                	nop
20000414:	0001                	nop
20000416:	0001                	nop
20000418:	0001                	nop
	DSDA_IHIGH
2000041a:	c290                	sw	a2,0(a3)
	DELAY1
2000041c:	0001                	nop
2000041e:	0001                	nop
20000420:	0001                	nop
20000422:	0001                	nop
20000424:	0001                	nop
20000426:	0001                	nop
20000428:	0001                	nop
2000042a:	0001                	nop
2000042c:	0001                	nop
	DSCL_OUTPUT
2000042e:	c398                	sw	a4,0(a5)
	DELAY1
20000430:	0001                	nop
20000432:	0001                	nop
20000434:	0001                	nop
20000436:	0001                	nop
20000438:	0001                	nop
2000043a:	0001                	nop
2000043c:	0001                	nop
2000043e:	0001                	nop
20000440:	0001                	nop
	DSDA_OUTPUT
20000442:	c390                	sw	a2,0(a5)
}
20000444:	8082                	ret

20000446 <SendByte>:
        {
            DSDA_IHIGH
        }
        else
        {
            DSDA_OUTPUT
20000446:	400016b7          	lui	a3,0x40001
            DSDA_IHIGH
2000044a:	40001737          	lui	a4,0x40001
        }
        data <<= 1;
        DELAY2
        DSCL_IHIGH
2000044e:	6785                	lui	a5,0x1
{
20000450:	4621                	li	a2,8
20000452:	40000593          	li	a1,1024
            DSDA_OUTPUT
20000456:	0ac68693          	addi	a3,a3,172 # 400010ac <_eusrstack+0x1fffe0ac>
            DSDA_IHIGH
2000045a:	0b870713          	addi	a4,a4,184 # 400010b8 <_eusrstack+0x1fffe0b8>
        DSCL_IHIGH
2000045e:	80078793          	addi	a5,a5,-2048 # 800 <_einit+0x770>
        if (data & 0x80)
20000462:	01851813          	slli	a6,a0,0x18
20000466:	41885813          	srai	a6,a6,0x18
2000046a:	0a085563          	bgez	a6,20000514 <SendByte+0xce>
            DSDA_IHIGH
2000046e:	c30c                	sw	a1,0(a4)
        data <<= 1;
20000470:	0506                	slli	a0,a0,0x1
20000472:	0ff57513          	zext.b	a0,a0
        DELAY2
20000476:	0001                	nop
20000478:	0001                	nop
2000047a:	0001                	nop
2000047c:	0001                	nop
2000047e:	0001                	nop
20000480:	0001                	nop
20000482:	0001                	nop
20000484:	0001                	nop
20000486:	0001                	nop
        DSCL_IHIGH
20000488:	c31c                	sw	a5,0(a4)
        DELAY1
2000048a:	0001                	nop
2000048c:	0001                	nop
2000048e:	0001                	nop
20000490:	0001                	nop
20000492:	0001                	nop
20000494:	0001                	nop
20000496:	0001                	nop
20000498:	0001                	nop
2000049a:	0001                	nop
        DSCL_OUTPUT
2000049c:	c29c                	sw	a5,0(a3)
    for (i = 0; i < 8; i++)
2000049e:	167d                	addi	a2,a2,-1 # feffffff <_eusrstack+0xdeffcfff>
200004a0:	f269                	bnez	a2,20000462 <SendByte+0x1c>
    }

    // Immediately after sending last bit, open up DDDR for control.
    DELAY1
200004a2:	0001                	nop
200004a4:	0001                	nop
200004a6:	0001                	nop
200004a8:	0001                	nop
200004aa:	0001                	nop
200004ac:	0001                	nop
200004ae:	0001                	nop
200004b0:	0001                	nop
200004b2:	0001                	nop
    DSDA_INPUT
200004b4:	40000613          	li	a2,1024
200004b8:	c310                	sw	a2,0(a4)
    DELAY1
200004ba:	0001                	nop
200004bc:	0001                	nop
200004be:	0001                	nop
200004c0:	0001                	nop
200004c2:	0001                	nop
200004c4:	0001                	nop
200004c6:	0001                	nop
200004c8:	0001                	nop
200004ca:	0001                	nop
    DSCL_IHIGH
200004cc:	c31c                	sw	a5,0(a4)
    DELAY1
200004ce:	0001                	nop
200004d0:	0001                	nop
200004d2:	0001                	nop
200004d4:	0001                	nop
200004d6:	0001                	nop
200004d8:	0001                	nop
200004da:	0001                	nop
200004dc:	0001                	nop
200004de:	0001                	nop
    i = READ_DSDA;
200004e0:	40001737          	lui	a4,0x40001
200004e4:	0a472503          	lw	a0,164(a4) # 400010a4 <_eusrstack+0x1fffe0a4>
    DELAY1
200004e8:	0001                	nop
200004ea:	0001                	nop
200004ec:	0001                	nop
200004ee:	0001                	nop
200004f0:	0001                	nop
200004f2:	0001                	nop
200004f4:	0001                	nop
200004f6:	0001                	nop
200004f8:	0001                	nop
	DSDA_DONE_INPUT
    DSCL_OUTPUT
200004fa:	c29c                	sw	a5,0(a3)
    DELAY1
200004fc:	0001                	nop
200004fe:	0001                	nop
20000500:	0001                	nop
20000502:	0001                	nop
20000504:	0001                	nop
20000506:	0001                	nop
20000508:	0001                	nop
2000050a:	0001                	nop
2000050c:	0001                	nop
    return !!i;
2000050e:	8129                	srli	a0,a0,0xa
}
20000510:	8905                	andi	a0,a0,1
20000512:	8082                	ret
            DSDA_OUTPUT
20000514:	c28c                	sw	a1,0(a3)
20000516:	bfa9                	j	20000470 <SendByte+0x2a>

20000518 <SendByteNoAck>:
        {
            DSDA_IHIGH
        }
        else
        {
            DSDA_OUTPUT
20000518:	400017b7          	lui	a5,0x40001
            DSDA_IHIGH
2000051c:	400016b7          	lui	a3,0x40001
        }
        data <<= 1;
        DELAY2
        DSCL_IHIGH
20000520:	6705                	lui	a4,0x1
{
20000522:	4621                	li	a2,8
20000524:	40000593          	li	a1,1024
            DSDA_OUTPUT
20000528:	0ac78793          	addi	a5,a5,172 # 400010ac <_eusrstack+0x1fffe0ac>
            DSDA_IHIGH
2000052c:	0b868693          	addi	a3,a3,184 # 400010b8 <_eusrstack+0x1fffe0b8>
        DSCL_IHIGH
20000530:	80070713          	addi	a4,a4,-2048 # 800 <_einit+0x770>
        if (data & 0x80)
20000534:	01851813          	slli	a6,a0,0x18
20000538:	41885813          	srai	a6,a6,0x18
2000053c:	0a085363          	bgez	a6,200005e2 <SendByteNoAck+0xca>
            DSDA_IHIGH
20000540:	c28c                	sw	a1,0(a3)
        data <<= 1;
20000542:	0506                	slli	a0,a0,0x1
20000544:	0ff57513          	zext.b	a0,a0
        DELAY2
20000548:	0001                	nop
2000054a:	0001                	nop
2000054c:	0001                	nop
2000054e:	0001                	nop
20000550:	0001                	nop
20000552:	0001                	nop
20000554:	0001                	nop
20000556:	0001                	nop
20000558:	0001                	nop
        DSCL_IHIGH
2000055a:	c298                	sw	a4,0(a3)
        DELAY1
2000055c:	0001                	nop
2000055e:	0001                	nop
20000560:	0001                	nop
20000562:	0001                	nop
20000564:	0001                	nop
20000566:	0001                	nop
20000568:	0001                	nop
2000056a:	0001                	nop
2000056c:	0001                	nop
        DSCL_OUTPUT
2000056e:	c398                	sw	a4,0(a5)
    for (i = 0; i < 8; i++)
20000570:	167d                	addi	a2,a2,-1
20000572:	f269                	bnez	a2,20000534 <SendByteNoAck+0x1c>
    }

    // Immediately after sending last bit, open up DDDR for control.
    DELAY1
20000574:	0001                	nop
20000576:	0001                	nop
20000578:	0001                	nop
2000057a:	0001                	nop
2000057c:	0001                	nop
2000057e:	0001                	nop
20000580:	0001                	nop
20000582:	0001                	nop
20000584:	0001                	nop
    DSDA_OUTPUT
20000586:	40000613          	li	a2,1024
2000058a:	c390                	sw	a2,0(a5)
    DELAY1
2000058c:	0001                	nop
2000058e:	0001                	nop
20000590:	0001                	nop
20000592:	0001                	nop
20000594:	0001                	nop
20000596:	0001                	nop
20000598:	0001                	nop
2000059a:	0001                	nop
2000059c:	0001                	nop
    DSCL_IHIGH
2000059e:	c298                	sw	a4,0(a3)
    DELAY1
200005a0:	0001                	nop
200005a2:	0001                	nop
200005a4:	0001                	nop
200005a6:	0001                	nop
200005a8:	0001                	nop
200005aa:	0001                	nop
200005ac:	0001                	nop
200005ae:	0001                	nop
200005b0:	0001                	nop
    i = READ_DSDA;
200005b2:	400016b7          	lui	a3,0x40001
200005b6:	0a46a683          	lw	a3,164(a3) # 400010a4 <_eusrstack+0x1fffe0a4>
    DELAY1
200005ba:	0001                	nop
200005bc:	0001                	nop
200005be:	0001                	nop
200005c0:	0001                	nop
200005c2:	0001                	nop
200005c4:	0001                	nop
200005c6:	0001                	nop
200005c8:	0001                	nop
200005ca:	0001                	nop
    DSCL_OUTPUT
200005cc:	c398                	sw	a4,0(a5)
    DELAY1
200005ce:	0001                	nop
200005d0:	0001                	nop
200005d2:	0001                	nop
200005d4:	0001                	nop
200005d6:	0001                	nop
200005d8:	0001                	nop
200005da:	0001                	nop
200005dc:	0001                	nop
200005de:	0001                	nop
}
200005e0:	8082                	ret
            DSDA_OUTPUT
200005e2:	c38c                	sw	a1,0(a5)
200005e4:	bfb9                	j	20000542 <SendByteNoAck+0x2a>

200005e6 <GetByte>:
I2CCODE unsigned char I2CFNCOLLAPSE(I2CPREFIX, GetByte)(uint8_t send_nak)
{
    unsigned char i;
    unsigned char ret = 0;

    DSDA_INPUT
200005e6:	400015b7          	lui	a1,0x40001
200005ea:	0b858593          	addi	a1,a1,184 # 400010b8 <_eusrstack+0x1fffe0b8>
200005ee:	40000793          	li	a5,1024

    for (i = 0; i < 8; i++)
    {
        DELAY1
        DELAY1
        DSCL_IHIGH
200005f2:	6605                	lui	a2,0x1
        DELAY1
        ret <<= 1;
        if (READ_DSDA)
200005f4:	400018b7          	lui	a7,0x40001
            ret |= 1;
        DSCL_OUTPUT
200005f8:	400016b7          	lui	a3,0x40001
{
200005fc:	882a                	mv	a6,a0
    DSDA_INPUT
200005fe:	c19c                	sw	a5,0(a1)
20000600:	4721                	li	a4,8
    unsigned char ret = 0;
20000602:	4501                	li	a0,0
        DSCL_IHIGH
20000604:	80060613          	addi	a2,a2,-2048 # 800 <_einit+0x770>
        if (READ_DSDA)
20000608:	0a488893          	addi	a7,a7,164 # 400010a4 <_eusrstack+0x1fffe0a4>
        DSCL_OUTPUT
2000060c:	0ac68693          	addi	a3,a3,172 # 400010ac <_eusrstack+0x1fffe0ac>
        DELAY1
20000610:	0001                	nop
20000612:	0001                	nop
20000614:	0001                	nop
20000616:	0001                	nop
20000618:	0001                	nop
2000061a:	0001                	nop
2000061c:	0001                	nop
2000061e:	0001                	nop
20000620:	0001                	nop
        DELAY1
20000622:	0001                	nop
20000624:	0001                	nop
20000626:	0001                	nop
20000628:	0001                	nop
2000062a:	0001                	nop
2000062c:	0001                	nop
2000062e:	0001                	nop
20000630:	0001                	nop
20000632:	0001                	nop
        DSCL_IHIGH
20000634:	c190                	sw	a2,0(a1)
        DELAY1
20000636:	0001                	nop
20000638:	0001                	nop
2000063a:	0001                	nop
2000063c:	0001                	nop
2000063e:	0001                	nop
20000640:	0001                	nop
20000642:	0001                	nop
20000644:	0001                	nop
20000646:	0001                	nop
        ret <<= 1;
20000648:	00151793          	slli	a5,a0,0x1
2000064c:	0ff7f513          	zext.b	a0,a5
        if (READ_DSDA)
20000650:	0008a783          	lw	a5,0(a7)
20000654:	4007f793          	andi	a5,a5,1024
20000658:	c399                	beqz	a5,2000065e <GetByte+0x78>
            ret |= 1;
2000065a:	00156513          	ori	a0,a0,1
    for (i = 0; i < 8; i++)
2000065e:	177d                	addi	a4,a4,-1
        DSCL_OUTPUT
20000660:	c290                	sw	a2,0(a3)
    for (i = 0; i < 8; i++)
20000662:	0ff77713          	zext.b	a4,a4
20000666:	f74d                	bnez	a4,20000610 <GetByte+0x2a>
    }

	DSDA_DONE_INPUT

    // Send ack.
    if (send_nak)
20000668:	40000793          	li	a5,1024
2000066c:	04080f63          	beqz	a6,200006ca <GetByte+0xe4>
    {
		DSDA_IHIGH
20000670:	40001737          	lui	a4,0x40001
20000674:	0af72c23          	sw	a5,184(a4) # 400010b8 <_eusrstack+0x1fffe0b8>
    else
    {
        DSDA_OUTPUT
    }

    DELAY1
20000678:	0001                	nop
2000067a:	0001                	nop
2000067c:	0001                	nop
2000067e:	0001                	nop
20000680:	0001                	nop
20000682:	0001                	nop
20000684:	0001                	nop
20000686:	0001                	nop
20000688:	0001                	nop
    DSCL_IHIGH
2000068a:	6705                	lui	a4,0x1
2000068c:	400017b7          	lui	a5,0x40001
20000690:	80070713          	addi	a4,a4,-2048 # 800 <_einit+0x770>
20000694:	0ae7ac23          	sw	a4,184(a5) # 400010b8 <_eusrstack+0x1fffe0b8>
    DELAY2
20000698:	0001                	nop
2000069a:	0001                	nop
2000069c:	0001                	nop
2000069e:	0001                	nop
200006a0:	0001                	nop
200006a2:	0001                	nop
200006a4:	0001                	nop
200006a6:	0001                	nop
200006a8:	0001                	nop
    DSCL_OUTPUT
200006aa:	0ac78793          	addi	a5,a5,172
200006ae:	c398                	sw	a4,0(a5)
    DELAY1
200006b0:	0001                	nop
200006b2:	0001                	nop
200006b4:	0001                	nop
200006b6:	0001                	nop
200006b8:	0001                	nop
200006ba:	0001                	nop
200006bc:	0001                	nop
200006be:	0001                	nop
200006c0:	0001                	nop
        DSDA_OUTPUT
200006c2:	40000713          	li	a4,1024
200006c6:	c398                	sw	a4,0(a5)
//    DSDA_IHIGH

    return ret;
}
200006c8:	8082                	ret
        DSDA_OUTPUT
200006ca:	c29c                	sw	a5,0(a3)
200006cc:	b775                	j	20000678 <GetByte+0x92>

200006ce <ProcessLSM6DS3>:

}

void ProcessLSM6DS3() __HIGH_CODE;
void ProcessLSM6DS3()
{
200006ce:	7139                	addi	sp,sp,-64
200006d0:	de06                	sw	ra,60(sp)
200006d2:	dc22                	sw	s0,56(sp)
200006d4:	da26                	sw	s1,52(sp)
200006d6:	d84a                	sw	s2,48(sp)
200006d8:	d64e                	sw	s3,44(sp)
200006da:	d452                	sw	s4,40(sp)
200006dc:	d256                	sw	s5,36(sp)
200006de:	d05a                	sw	s6,32(sp)
200006e0:	ce5e                	sw	s7,28(sp)
	SendStart();
200006e2:	39a5                	jal	2000035a <SendStart>
	SendByteNoAck( LSM6DS3_ADDRESS<<1 );
200006e4:	0d400513          	li	a0,212
200006e8:	3d05                	jal	20000518 <SendByteNoAck>
	SendByteNoAck( 0x3a );
200006ea:	03a00513          	li	a0,58
200006ee:	352d                	jal	20000518 <SendByteNoAck>
	SendStart();
200006f0:	31ad                	jal	2000035a <SendStart>
	SendByteNoAck( (LSM6DS3_ADDRESS<<1)|1 );
200006f2:	0d500513          	li	a0,213
200006f6:	350d                	jal	20000518 <SendByteNoAck>

	uint32_t sw = 0;
	sw = GetByte( 0 );
200006f8:	4501                	li	a0,0
200006fa:	35f5                	jal	200005e6 <GetByte>
200006fc:	84aa                	mv	s1,a0
	sw |= GetByte( 0 ) << 8ULL;
200006fe:	4501                	li	a0,0
20000700:	35dd                	jal	200005e6 <GetByte>
20000702:	842a                	mv	s0,a0
	sw |= GetByte( 1 ) << 16ULL;
20000704:	4505                	li	a0,1
20000706:	35c5                	jal	200005e6 <GetByte>
20000708:	0542                	slli	a0,a0,0x10
	sw |= GetByte( 0 ) << 8ULL;
2000070a:	0422                	slli	s0,s0,0x8
	sw |= GetByte( 1 ) << 16ULL;
2000070c:	8c49                	or	s0,s0,a0
2000070e:	8c45                	or	s0,s0,s1

	SendStop();
20000710:	395d                	jal	200003c6 <SendStop>

	if( sw & 0x4000 )
20000712:	01141793          	slli	a5,s0,0x11
	{
		printf( "Full SW: %06x\n", (int)sw );
20000716:	85a2                	mv	a1,s0
	if( sw & 0x4000 )
20000718:	0407d463          	bgez	a5,20000760 <ProcessLSM6DS3+0x92>
		printf( "Full SW: %06x\n", (int)sw );
2000071c:	650d                	lui	a0,0x3
2000071e:	e1c50513          	addi	a0,a0,-484 # 2e1c <__udivdi3+0x50c>
20000722:	e0001097          	auipc	ra,0xe0001
20000726:	d9c080e7          	jalr	-612(ra) # 14be <printf>
		// Need to reset fifo.

		SetupRegisterMap( LSM6DS3_ADDRESS, 
			(const uint8_t[]){ 0x0a, 0x28, 0x0a, 0x2e },
2000072a:	2e0a37b7          	lui	a5,0x2e0a3
		SetupRegisterMap( LSM6DS3_ADDRESS, 
2000072e:	668d                	lui	a3,0x3
			(const uint8_t[]){ 0x0a, 0x28, 0x0a, 0x2e },
20000730:	80a78793          	addi	a5,a5,-2038 # 2e0a280a <_eusrstack+0xe09f80a>
		SetupRegisterMap( LSM6DS3_ADDRESS, 
20000734:	e2c68693          	addi	a3,a3,-468 # 2e2c <__udivdi3+0x51c>
20000738:	4609                	li	a2,2
2000073a:	006c                	addi	a1,sp,12
2000073c:	06a00513          	li	a0,106
			(const uint8_t[]){ 0x0a, 0x28, 0x0a, 0x2e },
20000740:	c63e                	sw	a5,12(sp)
		SetupRegisterMap( LSM6DS3_ADDRESS, 
20000742:	e0002097          	auipc	ra,0xe0002
20000746:	a74080e7          	jalr	-1420(ra) # 21b6 <SetupRegisterMap.isra.0>
		//printf( "\n" );
	}
	printf( "\n" );

	SendStop();
}
2000074a:	50f2                	lw	ra,60(sp)
2000074c:	5462                	lw	s0,56(sp)
2000074e:	54d2                	lw	s1,52(sp)
20000750:	5942                	lw	s2,48(sp)
20000752:	59b2                	lw	s3,44(sp)
20000754:	5a22                	lw	s4,40(sp)
20000756:	5a92                	lw	s5,36(sp)
20000758:	5b02                	lw	s6,32(sp)
2000075a:	4bf2                	lw	s7,28(sp)
2000075c:	6121                	addi	sp,sp,64
2000075e:	8082                	ret
	printf( "%06x ", (unsigned int)sw );
20000760:	650d                	lui	a0,0x3
20000762:	e4050513          	addi	a0,a0,-448 # 2e40 <__udivdi3+0x530>
20000766:	e0001097          	auipc	ra,0xe0001
2000076a:	d58080e7          	jalr	-680(ra) # 14be <printf>
	if( samps > 63 ) samps = 63;
2000076e:	7c047793          	andi	a5,s0,1984
20000772:	efc9                	bnez	a5,2000080c <ProcessLSM6DS3+0x13e>
20000774:	7ff47413          	andi	s0,s0,2047
	if( samps == 0 )
20000778:	d869                	beqz	s0,2000074a <ProcessLSM6DS3+0x7c>
	SendStart();
2000077a:	36c5                	jal	2000035a <SendStart>
	SendByteNoAck( LSM6DS3_ADDRESS<<1 );
2000077c:	0d400513          	li	a0,212
20000780:	3b61                	jal	20000518 <SendByteNoAck>
	SendByteNoAck( 0x20 );
20000782:	02000513          	li	a0,32
20000786:	3b49                	jal	20000518 <SendByteNoAck>
	SendStart();
20000788:	3ec9                	jal	2000035a <SendStart>
	SendByteNoAck( (LSM6DS3_ADDRESS<<1)|1 );
2000078a:	0d500513          	li	a0,213
2000078e:	3369                	jal	20000518 <SendByteNoAck>
	uint32_t ta = GetByte( 0 );
20000790:	4501                	li	a0,0
20000792:	3d91                	jal	200005e6 <GetByte>
	ta |= GetByte( 0 )<<8; // Ignore FIFO status 4
20000794:	4501                	li	a0,0
20000796:	3d81                	jal	200005e6 <GetByte>
	for( samp = 0; samp < samps; samp++ )
20000798:	4481                	li	s1,0
			int end = (i==5 && samp == samps-1);
2000079a:	4a15                	li	s4,5
2000079c:	fff40b13          	addi	s6,s0,-1
				printf( "%04x ", val );
200007a0:	6b8d                	lui	s7,0x3
		for( i = 0; i < 6; i++ )
200007a2:	4a99                	li	s5,6
200007a4:	4901                	li	s2,0
			uint16_t val = GetByte( 0 );
200007a6:	4501                	li	a0,0
200007a8:	3d3d                	jal	200005e6 <GetByte>
200007aa:	89aa                	mv	s3,a0
			int end = (i==5 && samp == samps-1);
200007ac:	4501                	li	a0,0
200007ae:	01491b63          	bne	s2,s4,200007c4 <ProcessLSM6DS3+0xf6>
200007b2:	009b1963          	bne	s6,s1,200007c4 <ProcessLSM6DS3+0xf6>
			if( end ) printf( "." );
200007b6:	02e00513          	li	a0,46
200007ba:	e0001097          	auipc	ra,0xe0001
200007be:	5fa080e7          	jalr	1530(ra) # 1db4 <putchar>
			int end = (i==5 && samp == samps-1);
200007c2:	4505                	li	a0,1
			val |= GetByte( end ) << 8;
200007c4:	350d                	jal	200005e6 <GetByte>
			if( samp == 0 )
200007c6:	ec89                	bnez	s1,200007e0 <ProcessLSM6DS3+0x112>
			val |= GetByte( end ) << 8;
200007c8:	00851593          	slli	a1,a0,0x8
200007cc:	0135e5b3          	or	a1,a1,s3
				printf( "%04x ", val );
200007d0:	05c2                	slli	a1,a1,0x10
200007d2:	81c1                	srli	a1,a1,0x10
200007d4:	e48b8513          	addi	a0,s7,-440 # 2e48 <__udivdi3+0x538>
200007d8:	e0001097          	auipc	ra,0xe0001
200007dc:	ce6080e7          	jalr	-794(ra) # 14be <printf>
		for( i = 0; i < 6; i++ )
200007e0:	0905                	addi	s2,s2,1
200007e2:	fd5912e3          	bne	s2,s5,200007a6 <ProcessLSM6DS3+0xd8>
	for( samp = 0; samp < samps; samp++ )
200007e6:	0485                	addi	s1,s1,1
200007e8:	fa941ee3          	bne	s0,s1,200007a4 <ProcessLSM6DS3+0xd6>
	printf( "\n" );
200007ec:	4529                	li	a0,10
200007ee:	e0001097          	auipc	ra,0xe0001
200007f2:	5c6080e7          	jalr	1478(ra) # 1db4 <putchar>
}
200007f6:	5462                	lw	s0,56(sp)
200007f8:	50f2                	lw	ra,60(sp)
200007fa:	54d2                	lw	s1,52(sp)
200007fc:	5942                	lw	s2,48(sp)
200007fe:	59b2                	lw	s3,44(sp)
20000800:	5a22                	lw	s4,40(sp)
20000802:	5a92                	lw	s5,36(sp)
20000804:	5b02                	lw	s6,32(sp)
20000806:	4bf2                	lw	s7,28(sp)
20000808:	6121                	addi	sp,sp,64
	SendStop();
2000080a:	be75                	j	200003c6 <SendStop>
	if( samps > 63 ) samps = 63;
2000080c:	03f00413          	li	s0,63
20000810:	b7ad                	j	2000077a <ProcessLSM6DS3+0xac>

20000812 <CoreLoop>:


void CoreLoop() __HIGH_CODE;

void CoreLoop()
{
20000812:	715d                	addi	sp,sp,-80
20000814:	d85a                	sw	s6,48(sp)

	uint32_t cimutag;
	uint32_t cimudat;
	int16_t cimu[3] = { 0 };

	unsigned nextdeadline = SysTick->CNT;
20000816:	e000fb37          	lui	s6,0xe000f
{
2000081a:	d462                	sw	s8,40(sp)
	unsigned nextdeadline = SysTick->CNT;
2000081c:	008b2c03          	lw	s8,8(s6) # e000f008 <_eusrstack+0xc000c008>
{
20000820:	c2a6                	sw	s1,68(sp)
20000822:	de4e                	sw	s3,60(sp)
20000824:	dc52                	sw	s4,56(sp)
20000826:	da56                	sw	s5,52(sp)
	funDigitalWrite( SSD1306_DC_PIN, FUN_LOW );
20000828:	400019b7          	lui	s3,0x40001
2000082c:	6a85                	lui	s5,0x1
	R16_SPI0_TOTAL_CNT = 4;
2000082e:	40004a37          	lui	s4,0x40004
{
20000832:	c0ca                	sw	s2,64(sp)
20000834:	d65e                	sw	s7,44(sp)
20000836:	d266                	sw	s9,36(sp)
20000838:	d06a                	sw	s10,32(sp)
	void * nextjump = &&lsm6_getcimu;
2000083a:	b0c18793          	addi	a5,gp,-1268 # 200008b8 <CoreLoop+0xa6>
{
2000083e:	c686                	sw	ra,76(sp)
20000840:	c4a2                	sw	s0,72(sp)
20000842:	ce6e                	sw	s11,28(sp)
	uint32_t fn = 0;
20000844:	4901                	li	s2,0
20000846:	b0c18493          	addi	s1,gp,-1268 # 200008b8 <CoreLoop+0xa6>
2000084a:	9c4a8a93          	addi	s5,s5,-1596 # 9c4 <_einit+0x934>
	funDigitalWrite( SSD1306_DC_PIN, FUN_LOW );
2000084e:	0ac98993          	addi	s3,s3,172 # 400010ac <_eusrstack+0x1fffe0ac>
20000852:	40000c93          	li	s9,1024
	funDigitalWrite( SSD1306_CS_PIN, FUN_LOW );
20000856:	4bc1                	li	s7,16
	R16_SPI0_TOTAL_CNT = 4;
20000858:	0a31                	addi	s4,s4,12 # 4000400c <_eusrstack+0x2000100c>
2000085a:	4d11                	li	s10,4
2000085c:	035906b3          	mul	a3,s2,s5
20000860:	96e2                	add	a3,a3,s8

	cont:
		// Target 16.697 kHz
		while( ((int32_t)( SysTick->CNT - nextdeadline )) < 0  );
20000862:	008b2703          	lw	a4,8(s6)
20000866:	8f15                	sub	a4,a4,a3
20000868:	fe074de3          	bltz	a4,20000862 <CoreLoop+0x50>
	funDigitalWrite( SSD1306_DC_PIN, FUN_LOW );
2000086c:	0199a023          	sw	s9,0(s3)
	funDigitalWrite( SSD1306_CS_PIN, FUN_LOW );
20000870:	0179a023          	sw	s7,0(s3)
	R16_SPI0_TOTAL_CNT = 4;
20000874:	01aa1023          	sh	s10,0(s4)
	R8_SPI0_FIFO = 0xd3;
20000878:	40004737          	lui	a4,0x40004
2000087c:	fd300693          	li	a3,-45
20000880:	00d70823          	sb	a3,16(a4) # 40004010 <_eusrstack+0x20001010>
	R8_SPI0_FIFO = x;
20000884:	07f97693          	andi	a3,s2,127
20000888:	00d70823          	sb	a3,16(a4)
	R8_SPI0_FIFO = 0xdc;
2000088c:	fdc00693          	li	a3,-36
20000890:	00d70823          	sb	a3,16(a4)
		nextdeadline += 2500;
		spi_send_command_fast( fn&0x7f, fn>>7 );
20000894:	00795693          	srli	a3,s2,0x7
	R8_SPI0_FIFO = y;
20000898:	0ff6f693          	zext.b	a3,a3
2000089c:	00d70823          	sb	a3,16(a4)
	while( R16_SPI0_TOTAL_CNT );
200008a0:	000a5703          	lhu	a4,0(s4)
200008a4:	ff75                	bnez	a4,200008a0 <CoreLoop+0x8e>
	funDigitalWrite( SSD1306_CS_PIN, FUN_HIGH );
200008a6:	40001737          	lui	a4,0x40001
200008aa:	0b772c23          	sw	s7,184(a4) # 400010b8 <_eusrstack+0x1fffe0b8>
		fn++;
200008ae:	0905                	addi	s2,s2,1
		goto *nextjump;
200008b0:	8782                	jr	a5
		cimudat |= GetByte( 0 ) << 8ULL;
		cimudat |= GetByte( 1 ) << 16ULL;
		SendStop();
		if( cimudat & 0x4000 )
		{
			nextjump = &&lsm6_force_fifo_reset;
200008b2:	b5818793          	addi	a5,gp,-1192 # 20000904 <CoreLoop+0xf2>
200008b6:	b75d                	j	2000085c <CoreLoop+0x4a>
		SendStart();
200008b8:	344d                	jal	2000035a <SendStart>
		SendByteNoAck( LSM6DS3_ADDRESS<<1 );
200008ba:	0d400513          	li	a0,212
200008be:	39a9                	jal	20000518 <SendByteNoAck>
		SendByteNoAck( 0x3a );
200008c0:	03a00513          	li	a0,58
200008c4:	3991                	jal	20000518 <SendByteNoAck>
		SendStart();
200008c6:	3c51                	jal	2000035a <SendStart>
		SendByteNoAck( (LSM6DS3_ADDRESS<<1)|1 );
200008c8:	0d500513          	li	a0,213
200008cc:	31b1                	jal	20000518 <SendByteNoAck>
		cimudat = GetByte( 0 );
200008ce:	4501                	li	a0,0
200008d0:	3b19                	jal	200005e6 <GetByte>
200008d2:	c62a                	sw	a0,12(sp)
		cimudat |= GetByte( 0 ) << 8ULL;
200008d4:	4501                	li	a0,0
200008d6:	3b01                	jal	200005e6 <GetByte>
200008d8:	8daa                	mv	s11,a0
		cimudat |= GetByte( 1 ) << 16ULL;
200008da:	4505                	li	a0,1
200008dc:	3329                	jal	200005e6 <GetByte>
200008de:	47b2                	lw	a5,12(sp)
200008e0:	0542                	slli	a0,a0,0x10
		cimudat |= GetByte( 0 ) << 8ULL;
200008e2:	0da2                	slli	s11,s11,0x8
		cimudat |= GetByte( 1 ) << 16ULL;
200008e4:	00adedb3          	or	s11,s11,a0
200008e8:	00fdedb3          	or	s11,s11,a5
		SendStop();
200008ec:	3ce9                	jal	200003c6 <SendStop>
		if( cimudat & 0x4000 )
200008ee:	011d9793          	slli	a5,s11,0x11
200008f2:	fc07c0e3          	bltz	a5,200008b2 <CoreLoop+0xa0>
			goto cont;
		}
		else if( ( cimudat & 0x7ff ) > 0 )
200008f6:	015d9793          	slli	a5,s11,0x15
200008fa:	0a078563          	beqz	a5,200009a4 <CoreLoop+0x192>
		{
			nextjump = &&lsm6_pull0;
200008fe:	b9418793          	addi	a5,gp,-1132 # 20000940 <CoreLoop+0x12e>
20000902:	bfa9                	j	2000085c <CoreLoop+0x4a>
		}
		nextjump = &&lsm6_1;
		goto cont;

	lsm6_force_fifo_reset:
		SendStart();
20000904:	3c99                	jal	2000035a <SendStart>
		SendByteNoAck( LSM6DS3_ADDRESS<<1 );
20000906:	0d400513          	li	a0,212
2000090a:	3139                	jal	20000518 <SendByteNoAck>
		SendByteNoAck( 0x0a );
2000090c:	4529                	li	a0,10
2000090e:	3129                	jal	20000518 <SendByteNoAck>
		SendByteNoAck( 0x28 );
20000910:	02800513          	li	a0,40
20000914:	3111                	jal	20000518 <SendByteNoAck>
		SendStop();
20000916:	3c45                	jal	200003c6 <SendStop>
		SendStart();
20000918:	3489                	jal	2000035a <SendStart>
		SendByteNoAck( LSM6DS3_ADDRESS<<1 );
2000091a:	0d400513          	li	a0,212
2000091e:	3eed                	jal	20000518 <SendByteNoAck>
		SendByteNoAck( 0x0a );
20000920:	4529                	li	a0,10
20000922:	3edd                	jal	20000518 <SendByteNoAck>
		SendByteNoAck( 0x2e );
20000924:	02e00513          	li	a0,46
20000928:	3ec5                	jal	20000518 <SendByteNoAck>
		SendStop();
2000092a:	3c71                	jal	200003c6 <SendStop>
		Delay_Ms(20);
2000092c:	00125537          	lui	a0,0x125
20000930:	f8050513          	addi	a0,a0,-128 # 124f80 <firmware.c.57502c15+0x120762>
20000934:	e0000097          	auipc	ra,0xe0000
20000938:	1d8080e7          	jalr	472(ra) # b0c <DelaySysTick>
	lsm6_1:
		nextjump = &&lsm6_2;
		goto cont;

	lsm6_2:
		nextjump = &&lsm6_getcimu;
2000093c:	87a6                	mv	a5,s1
		goto cont;
2000093e:	bf39                	j	2000085c <CoreLoop+0x4a>
		SendStart();
20000940:	3c29                	jal	2000035a <SendStart>
		SendByteNoAck( LSM6DS3_ADDRESS<<1 );
20000942:	0d400513          	li	a0,212
20000946:	3ec9                	jal	20000518 <SendByteNoAck>
		SendByteNoAck( 0x78 );
20000948:	07800513          	li	a0,120
2000094c:	36f1                	jal	20000518 <SendByteNoAck>
		SendStart();
2000094e:	3431                	jal	2000035a <SendStart>
		SendByteNoAck( (LSM6DS3_ADDRESS<<1)|1 );
20000950:	0d500513          	li	a0,213
20000954:	36d1                	jal	20000518 <SendByteNoAck>
		cimutag = GetByte( 0 ); // FIFO Tag
20000956:	4501                	li	a0,0
20000958:	3179                	jal	200005e6 <GetByte>
2000095a:	842a                	mv	s0,a0
		nextjump = &&lsm6_pull1;
2000095c:	bb618793          	addi	a5,gp,-1098 # 20000962 <CoreLoop+0x150>
		goto cont;
20000960:	bdf5                	j	2000085c <CoreLoop+0x4a>
		tmp = GetByte( 0 );
20000962:	4501                	li	a0,0
20000964:	3149                	jal	200005e6 <GetByte>
		cimu[0] = tmp | GetByte( 0 ) << 8;
20000966:	4501                	li	a0,0
20000968:	39bd                	jal	200005e6 <GetByte>
		tmp = GetByte( 0 );
2000096a:	4501                	li	a0,0
2000096c:	39ad                	jal	200005e6 <GetByte>
		cimu[1] = tmp | GetByte( 0 ) << 8;
2000096e:	4501                	li	a0,0
20000970:	399d                	jal	200005e6 <GetByte>
		tmp = GetByte( 0 );
20000972:	4501                	li	a0,0
20000974:	398d                	jal	200005e6 <GetByte>
		cimu[2] = tmp | GetByte( 1 ) << 8;
20000976:	4505                	li	a0,1
20000978:	31bd                	jal	200005e6 <GetByte>
		SendStop();
2000097a:	34b1                	jal	200003c6 <SendStop>
		nextjump = &&lsm6_pull2;
2000097c:	bd618793          	addi	a5,gp,-1066 # 20000982 <CoreLoop+0x170>
		goto cont;
20000980:	bdf1                	j	2000085c <CoreLoop+0x4a>
		cimutag >>= 3;
20000982:	800d                	srli	s0,s0,0x3
		if( cimutag == 1 )
20000984:	fff40713          	addi	a4,s0,-1
20000988:	4789                	li	a5,2
2000098a:	00e7fa63          	bgeu	a5,a4,2000099e <CoreLoop+0x18c>
			printf( "Confusing tag: %d\n", (int)cimutag );
2000098e:	650d                	lui	a0,0x3
20000990:	85a2                	mv	a1,s0
20000992:	e5050513          	addi	a0,a0,-432 # 2e50 <__udivdi3+0x540>
20000996:	e0001097          	auipc	ra,0xe0001
2000099a:	b28080e7          	jalr	-1240(ra) # 14be <printf>
		nextjump = &&lsm6_process;
2000099e:	bf818793          	addi	a5,gp,-1032 # 200009a4 <CoreLoop+0x192>
200009a2:	bd6d                	j	2000085c <CoreLoop+0x4a>
		nextjump = &&lsm6_1;
200009a4:	bfe18793          	addi	a5,gp,-1026 # 200009aa <CoreLoop+0x198>
200009a8:	bd55                	j	2000085c <CoreLoop+0x4a>
		nextjump = &&lsm6_2;
200009aa:	b9018793          	addi	a5,gp,-1136 # 2000093c <CoreLoop+0x12a>
		goto cont;
200009ae:	b57d                	j	2000085c <CoreLoop+0x4a>

Disassembly of section .text:

00000a40 <mini_pad>:
	if(pad_to == 0) pad_to = len;
     a40:	c699                	beqz	a3,a4e <mini_pad+0xe>
	int overflow = 0;
     a42:	4801                	li	a6,0
	if(len > pad_to) {
     a44:	00b6d763          	bge	a3,a1,a52 <mini_pad+0x12>
		len = pad_to;
     a48:	85b6                	mv	a1,a3
		overflow = 1;
     a4a:	4805                	li	a6,1
     a4c:	a019                	j	a52 <mini_pad+0x12>
	int overflow = 0;
     a4e:	4801                	li	a6,0
	if(pad_to == 0) pad_to = len;
     a50:	86ae                	mv	a3,a1
	for(i = pad_to - len; i > 0; i --) {
     a52:	8e8d                	sub	a3,a3,a1
	char * pbuffer = buffer;
     a54:	87ba                	mv	a5,a4
     a56:	00e68333          	add	t1,a3,a4
	for(i = pad_to - len; i > 0; i --) {
     a5a:	40f308b3          	sub	a7,t1,a5
     a5e:	05104a63          	bgtz	a7,ab2 <mini_pad+0x72>
     a62:	fff6c793          	not	a5,a3
     a66:	87fd                	srai	a5,a5,0x1f
     a68:	8efd                	and	a3,a3,a5
     a6a:	96ba                	add	a3,a3,a4
     a6c:	4781                	li	a5,0
	for(i = len; i > 0; i --) {
     a6e:	40f58633          	sub	a2,a1,a5
     a72:	00f688b3          	add	a7,a3,a5
     a76:	04c04263          	bgtz	a2,aba <mini_pad+0x7a>
     a7a:	fff5c793          	not	a5,a1
     a7e:	87fd                	srai	a5,a5,0x1f
     a80:	8dfd                	and	a1,a1,a5
     a82:	95b6                	add	a1,a1,a3
	len = pbuffer - buffer;
     a84:	40e58533          	sub	a0,a1,a4
	if(overflow) {
     a88:	02080463          	beqz	a6,ab0 <mini_pad+0x70>
		for (i = 0; i < 3 && pbuffer > buffer; i ++) {
     a8c:	02b77263          	bgeu	a4,a1,ab0 <mini_pad+0x70>
			*(pbuffer-- - 1) = '*';
     a90:	02a00793          	li	a5,42
     a94:	fef58fa3          	sb	a5,-1(a1)
     a98:	fff58693          	addi	a3,a1,-1
		for (i = 0; i < 3 && pbuffer > buffer; i ++) {
     a9c:	00d77a63          	bgeu	a4,a3,ab0 <mini_pad+0x70>
			*(pbuffer-- - 1) = '*';
     aa0:	fef58f23          	sb	a5,-2(a1)
     aa4:	ffe58693          	addi	a3,a1,-2
		for (i = 0; i < 3 && pbuffer > buffer; i ++) {
     aa8:	00d77463          	bgeu	a4,a3,ab0 <mini_pad+0x70>
			*(pbuffer-- - 1) = '*';
     aac:	fef58ea3          	sb	a5,-3(a1)
}
     ab0:	8082                	ret
		*(pbuffer++) = pad_char;
     ab2:	0785                	addi	a5,a5,1
     ab4:	fec78fa3          	sb	a2,-1(a5)
	for(i = pad_to - len; i > 0; i --) {
     ab8:	b74d                	j	a5a <mini_pad+0x1a>
		*(pbuffer++) = *(ptr++);
     aba:	00f50633          	add	a2,a0,a5
     abe:	00064603          	lbu	a2,0(a2)
     ac2:	0785                	addi	a5,a5,1
     ac4:	00c88023          	sb	a2,0(a7)
	for(i = len; i > 0; i --) {
     ac8:	b75d                	j	a6e <mini_pad+0x2e>

00000aca <_puts>:
{
     aca:	86aa                	mv	a3,a0
     acc:	852e                	mv	a0,a1
	if(!buf) return len;
     ace:	ce01                	beqz	a2,ae6 <_puts+0x1c>
	char * p0 = b->buffer;
     ad0:	00062883          	lw	a7,0(a2)
	for (i = 0; i < len; i++) {
     ad4:	4701                	li	a4,0
		if(b->pbuffer == b->buffer + b->buffer_len - 1) {
     ad6:	425c                	lw	a5,4(a2)
	for (i = 0; i < len; i++) {
     ad8:	00a74863          	blt	a4,a0,ae8 <_puts+0x1e>
	*(b->pbuffer) = 0;
     adc:	00078023          	sb	zero,0(a5)
	return b->pbuffer - p0;
     ae0:	4248                	lw	a0,4(a2)
     ae2:	41150533          	sub	a0,a0,a7
}
     ae6:	8082                	ret
		if(b->pbuffer == b->buffer + b->buffer_len - 1) {
     ae8:	00862803          	lw	a6,8(a2)
     aec:	420c                	lw	a1,0(a2)
     aee:	187d                	addi	a6,a6,-1
     af0:	95c2                	add	a1,a1,a6
     af2:	feb785e3          	beq	a5,a1,adc <_puts+0x12>
		*(b->pbuffer ++) = s[i];
     af6:	00178593          	addi	a1,a5,1
     afa:	c24c                	sw	a1,4(a2)
     afc:	00e685b3          	add	a1,a3,a4
     b00:	0005c583          	lbu	a1,0(a1)
	for (i = 0; i < len; i++) {
     b04:	0705                	addi	a4,a4,1
		*(b->pbuffer ++) = s[i];
     b06:	00b78023          	sb	a1,0(a5)
	for (i = 0; i < len; i++) {
     b0a:	b7f1                	j	ad6 <_puts+0xc>

00000b0c <DelaySysTick>:
	while( ((int32_t)( SysTick->CNT - targend )) < 0 );
#elif defined(CH32V20x) || defined(CH32V30x) || defined(CH32X03x) || defined(CH32L103) || defined(CH582_CH583) || defined(CH591_CH592) || defined(CH32H41x)
	uint64_t targend = SysTick->CNT + n;
	while( ((int64_t)( SysTick->CNT - targend )) < 0 );
#elif defined(CH32V10x) || defined(CH570_CH572) || defined(CH584_CH585)
	uint32_t targend = SysTick->CNTL + n;
     b0c:	e000f737          	lui	a4,0xe000f
     b10:	471c                	lw	a5,8(a4)
     b12:	953e                	add	a0,a0,a5
	while( ((int32_t)( SysTick->CNTL - targend )) < 0 );
     b14:	471c                	lw	a5,8(a4)
     b16:	8f89                	sub	a5,a5,a0
     b18:	fe07cee3          	bltz	a5,b14 <DelaySysTick+0x8>
	uint64_t targend = SysTick->CNT - n;
	while( ((int64_t)( SysTick->CNT - targend )) > 0 );
#else
	#error DelaySysTick not defined.
#endif
}
     b1c:	8082                	ret

00000b1e <mini_itoa.part.0>:
	int	negative = 0;
     b1e:	4881                	li	a7,0
	if (value < 0 && !unsig) {
     b20:	00055663          	bgez	a0,b2c <mini_itoa.part.0+0xe>
     b24:	e681                	bnez	a3,b2c <mini_itoa.part.0+0xe>
		value = -value;
     b26:	40a00533          	neg	a0,a0
		negative = 1;
     b2a:	4885                	li	a7,1
     b2c:	8a05                	andi	a2,a2,1
     b2e:	06100793          	li	a5,97
     b32:	c219                	beqz	a2,b38 <mini_itoa.part.0+0x1a>
     b34:	04100793          	li	a5,65
	int	negative = 0;
     b38:	883a                	mv	a6,a4
		*(pbuffer++) = (digit < 10 ? '0' + digit : (uppercase ? 'A' : 'a') + digit - 10);
     b3a:	4e25                	li	t3,9
     b3c:	ff678613          	addi	a2,a5,-10
		int digit = value % radix;
     b40:	02b577b3          	remu	a5,a0,a1
     b44:	832a                	mv	t1,a0
		*(pbuffer++) = (digit < 10 ? '0' + digit : (uppercase ? 'A' : 'a') + digit - 10);
     b46:	0ff7f693          	zext.b	a3,a5
     b4a:	04fe6463          	bltu	t3,a5,b92 <mini_itoa.part.0+0x74>
     b4e:	03068693          	addi	a3,a3,48
     b52:	0ff6f693          	zext.b	a3,a3
     b56:	00d80023          	sb	a3,0(a6)
     b5a:	00180793          	addi	a5,a6,1
		value /= radix;
     b5e:	02b55533          	divu	a0,a0,a1
	} while (value > 0);
     b62:	02b37663          	bgeu	t1,a1,b8e <mini_itoa.part.0+0x70>
	if (negative)
     b66:	00088863          	beqz	a7,b76 <mini_itoa.part.0+0x58>
		*(pbuffer++) = '-';
     b6a:	02d00693          	li	a3,45
     b6e:	00d78023          	sb	a3,0(a5)
     b72:	00280793          	addi	a5,a6,2
	len = (pbuffer - buffer);
     b76:	40e78533          	sub	a0,a5,a4
	for (i = 0; i < len / 2; i++) {
     b7a:	4609                	li	a2,2
	*(pbuffer) = '\0';
     b7c:	00078023          	sb	zero,0(a5)
	for (i = 0; i < len / 2; i++) {
     b80:	4681                	li	a3,0
     b82:	02c54633          	div	a2,a0,a2
     b86:	17fd                	addi	a5,a5,-1
     b88:	00c6c763          	blt	a3,a2,b96 <mini_itoa.part.0+0x78>
}
     b8c:	8082                	ret
		*(pbuffer++) = (digit < 10 ? '0' + digit : (uppercase ? 'A' : 'a') + digit - 10);
     b8e:	883e                	mv	a6,a5
     b90:	bf45                	j	b40 <mini_itoa.part.0+0x22>
     b92:	96b2                	add	a3,a3,a2
     b94:	bf7d                	j	b52 <mini_itoa.part.0+0x34>
		char j = buffer[i];
     b96:	00d705b3          	add	a1,a4,a3
		buffer[i] = buffer[len-i-1];
     b9a:	0007c883          	lbu	a7,0(a5)
		char j = buffer[i];
     b9e:	0005c803          	lbu	a6,0(a1)
	for (i = 0; i < len / 2; i++) {
     ba2:	0685                	addi	a3,a3,1
		buffer[i] = buffer[len-i-1];
     ba4:	01158023          	sb	a7,0(a1)
		buffer[len-i-1] = j;
     ba8:	01078023          	sb	a6,0(a5)
	for (i = 0; i < len / 2; i++) {
     bac:	bfe9                	j	b86 <mini_itoa.part.0+0x68>

00000bae <ssd1306_drawPixel>:
void ssd1306_drawPixel(uint32_t x, uint32_t y, int color)
{
	uint32_t addr;
	
	/* clip */
	if(x >= SSD1306_W)
     bae:	00b56733          	or	a4,a0,a1
     bb2:	07f00793          	li	a5,127
     bb6:	02e7e563          	bltu	a5,a4,be0 <ssd1306_drawPixel+0x32>
		return;
	if(y >= SSD1306_H)
		return;
	
	/* compute buffer address */
	addr = x + SSD1306_W*(y/8);
     bba:	0035d793          	srli	a5,a1,0x3
     bbe:	079e                	slli	a5,a5,0x7
     bc0:	97aa                	add	a5,a5,a0
	
	/* set/clear bit in buffer */
	if(color)
		ssd1306_buffer[addr] |= (1<<(y&7));
     bc2:	20002537          	lui	a0,0x20002
     bc6:	08050513          	addi	a0,a0,128 # 20002080 <ssd1306_buffer>
     bca:	953e                	add	a0,a0,a5
     bcc:	899d                	andi	a1,a1,7
     bce:	4705                	li	a4,1
     bd0:	00054783          	lbu	a5,0(a0)
     bd4:	00b71733          	sll	a4,a4,a1
	if(color)
     bd8:	c609                	beqz	a2,be2 <ssd1306_drawPixel+0x34>
		ssd1306_buffer[addr] |= (1<<(y&7));
     bda:	8fd9                	or	a5,a5,a4
	else
		ssd1306_buffer[addr] &= ~(1<<(y&7));
     bdc:	00f50023          	sb	a5,0(a0)
}
     be0:	8082                	ret
		ssd1306_buffer[addr] &= ~(1<<(y&7));
     be2:	fff74713          	not	a4,a4
     be6:	8ff9                	and	a5,a5,a4
     be8:	bfd5                	j	bdc <ssd1306_drawPixel+0x2e>

00000bea <DevSetMode>:
	if(mode) {
     bea:	4000c7b7          	lui	a5,0x4000c
     bee:	10078793          	addi	a5,a5,256 # 4000c100 <_eusrstack+0x20009100>
		BB->CTRL_CFG = DEVSETMODE_ON;
     bf2:	4398                	lw	a4,0(a5)
     bf4:	fffd06b7          	lui	a3,0xfffd0
     bf8:	16fd                	addi	a3,a3,-1 # fffcffff <_eusrstack+0xdffccfff>
     bfa:	8f75                	and	a4,a4,a3
	if(mode) {
     bfc:	c115                	beqz	a0,c20 <DevSetMode+0x36>
		BB->CTRL_CFG = DEVSETMODE_ON;
     bfe:	000206b7          	lui	a3,0x20
     c02:	8f55                	or	a4,a4,a3
     c04:	c398                	sw	a4,0(a5)
		RF->RF2 |= 0x330000;
     c06:	4000d737          	lui	a4,0x4000d
     c0a:	471c                	lw	a5,8(a4)
     c0c:	003306b7          	lui	a3,0x330
     c10:	8fd5                	or	a5,a5,a3
     c12:	c71c                	sw	a5,8(a4)
	LL->CTRL_MOD = mode;
     c14:	4000c7b7          	lui	a5,0x4000c
     c18:	20078793          	addi	a5,a5,512 # 4000c200 <_eusrstack+0x20009200>
     c1c:	cba8                	sw	a0,80(a5)
}
     c1e:	8082                	ret
		BB->CTRL_CFG = DEVSETMODE_OFF;
     c20:	66c1                	lui	a3,0x10
     c22:	8f55                	or	a4,a4,a3
     c24:	c398                	sw	a4,0(a5)
		RF->RF2 &= 0xffcdffff;
     c26:	4000d6b7          	lui	a3,0x4000d
     c2a:	469c                	lw	a5,8(a3)
     c2c:	ffce0737          	lui	a4,0xffce0
     c30:	177d                	addi	a4,a4,-1 # ffcdffff <_eusrstack+0xdfcdcfff>
     c32:	8ff9                	and	a5,a5,a4
     c34:	c69c                	sw	a5,8(a3)
     c36:	bff9                	j	c14 <DevSetMode+0x2a>

00000c38 <RFEND_TXCTune>:
	RF->RF1 &= 0xfffffffe;
     c38:	4000d7b7          	lui	a5,0x4000d
     c3c:	43d8                	lw	a4,4(a5)
	RF->TXTUNE_CTRL = (RF->TXTUNE_CTRL & 0xfffe00ff) | (0xbf00 + (channel_map[channel] << 8));
     c3e:	6631                	lui	a2,0xc
     c40:	f0060613          	addi	a2,a2,-256 # bf00 <firmware.c.57502c15+0x76e2>
	RF->RF1 &= 0xfffffffe;
     c44:	9b79                	andi	a4,a4,-2
     c46:	c3d8                	sw	a4,4(a5)
	RF->TXTUNE_CTRL = (RF->TXTUNE_CTRL & 0xfffe00ff) | (0xbf00 + (channel_map[channel] << 8));
     c48:	670d                	lui	a4,0x3
     c4a:	6e470713          	addi	a4,a4,1764 # 36e4 <channel_map>
     c4e:	972a                	add	a4,a4,a0
     c50:	00074703          	lbu	a4,0(a4)
     c54:	5f94                	lw	a3,56(a5)
     c56:	0722                	slli	a4,a4,0x8
     c58:	9732                	add	a4,a4,a2
     c5a:	7601                	lui	a2,0xfffe0
     c5c:	0ff60613          	addi	a2,a2,255 # fffe00ff <_eusrstack+0xdffdd0ff>
     c60:	8ef1                	and	a3,a3,a2
     c62:	8f55                	or	a4,a4,a3
     c64:	df98                	sw	a4,56(a5)
	RF->RF1 |= 1;
     c66:	43d8                	lw	a4,4(a5)
	LL->TMR = 8000;
     c68:	6689                	lui	a3,0x2
     c6a:	f4068693          	addi	a3,a3,-192 # 1f40 <ISLER_BEANBOY_INTERNAL_CALLBACK+0x48>
	RF->RF1 |= 1;
     c6e:	00176713          	ori	a4,a4,1
     c72:	c3d8                	sw	a4,4(a5)
	LL->TMR = 8000;
     c74:	4000c737          	lui	a4,0x4000c
     c78:	20070713          	addi	a4,a4,512 # 4000c200 <_eusrstack+0x20009200>
     c7c:	d374                	sw	a3,100(a4)
	while(!(RF->TXCTUNE_CO_CTRL & (1 << 25)) || !(RF->TXCTUNE_CO_CTRL & (1 << 26))) {
     c7e:	0907a683          	lw	a3,144(a5) # 4000d090 <_eusrstack+0x2000a090>
     c82:	00669613          	slli	a2,a3,0x6
     c86:	00065863          	bgez	a2,c96 <RFEND_TXCTune+0x5e>
     c8a:	0907a683          	lw	a3,144(a5)
     c8e:	00569613          	slli	a2,a3,0x5
     c92:	00064463          	bltz	a2,c9a <RFEND_TXCTune+0x62>
		if(LL->TMR == 0) {
     c96:	5374                	lw	a3,100(a4)
     c98:	f2fd                	bnez	a3,c7e <RFEND_TXCTune+0x46>
	uint8_t nCO = (uint8_t)RF->TXCTUNE_CO_CTRL & 0x3f;
     c9a:	4000d7b7          	lui	a5,0x4000d
     c9e:	0907a503          	lw	a0,144(a5) # 4000d090 <_eusrstack+0x2000a090>
	uint8_t nGA = (uint8_t)(RF->TXCTUNE_GA_CTRL >> 10) & 0x7f;
     ca2:	0947a783          	lw	a5,148(a5)
	return (nGA << 24) | nCO;
     ca6:	03f57513          	andi	a0,a0,63
	uint8_t nGA = (uint8_t)(RF->TXCTUNE_GA_CTRL >> 10) & 0x7f;
     caa:	83a9                	srli	a5,a5,0xa
	return (nGA << 24) | nCO;
     cac:	07f7f793          	andi	a5,a5,127
     cb0:	07e2                	slli	a5,a5,0x18
}
     cb2:	8d5d                	or	a0,a0,a5
     cb4:	8082                	ret

00000cb6 <DevSetChannel>:
	RF->RF11 &= 0xfffffffd;
     cb6:	4000d737          	lui	a4,0x4000d
     cba:	575c                	lw	a5,44(a4)
	BB->CTRL_CFG = (BB->CTRL_CFG & 0xffffff80) | (channel & 0x7f);
     cbc:	07f57513          	andi	a0,a0,127
	RF->RF11 &= 0xfffffffd;
     cc0:	9bf5                	andi	a5,a5,-3
     cc2:	d75c                	sw	a5,44(a4)
	BB->CTRL_CFG = (BB->CTRL_CFG & 0xffffff80) | (channel & 0x7f);
     cc4:	4000c737          	lui	a4,0x4000c
     cc8:	10070713          	addi	a4,a4,256 # 4000c100 <_eusrstack+0x20009100>
     ccc:	431c                	lw	a5,0(a4)
     cce:	f807f793          	andi	a5,a5,-128
     cd2:	8fc9                	or	a5,a5,a0
     cd4:	c31c                	sw	a5,0(a4)
}
     cd6:	8082                	ret

00000cd8 <RenderBSprite>:
	int sw = spr->w;
     cd8:	00051303          	lh	t1,0(a0)
{
     cdc:	1101                	addi	sp,sp,-32
     cde:	ca4a                	sw	s2,20(sp)
     ce0:	c84e                	sw	s3,16(sp)
     ce2:	ce22                	sw	s0,28(sp)
     ce4:	cc26                	sw	s1,24(sp)
     ce6:	c652                	sw	s4,12(sp)
     ce8:	c456                	sw	s5,8(sp)
     cea:	c25a                	sw	s6,4(sp)
     cec:	c05e                	sw	s7,0(sp)
	int sh = spr->h;
     cee:	00251903          	lh	s2,2(a0)
			bin += sw;
     cf2:	00231993          	slli	s3,t1,0x2
	const uint32_t * bin = &spr->data[0];
     cf6:	0511                	addi	a0,a0,4
	for( y = 0; y < sh; y++, outy++ )
     cf8:	4781                	li	a5,0
     cfa:	00034363          	bltz	t1,d00 <RenderBSprite+0x28>
     cfe:	879a                	mv	a5,t1
     d00:	07c2                	slli	a5,a5,0x10
     d02:	87c1                	srai	a5,a5,0x10
     d04:	00279813          	slli	a6,a5,0x2
		else if( outy >= SSD1306_H )
     d08:	07f00413          	li	s0,127
	for( y = 0; y < sh; y++, outy++ )
     d0c:	87b2                	mv	a5,a2
		uint8_t * bout = &ssd1306_buffer[(outy>>3)*SSD1306_W + outx];
     d0e:	20002a37          	lui	s4,0x20002
		int boutshiftmaskinv = ~(1<<boutshift);
     d12:	4a85                	li	s5,1
			for( x = 0; x < 16; x++, tx++, input >>= 1 )
     d14:	4b41                	li	s6,16
	for( y = 0; y < sh; y++, outy++ )
     d16:	40c78733          	sub	a4,a5,a2
     d1a:	01274c63          	blt	a4,s2,d32 <RenderBSprite+0x5a>
}
     d1e:	4472                	lw	s0,28(sp)
     d20:	44e2                	lw	s1,24(sp)
     d22:	4952                	lw	s2,20(sp)
     d24:	49c2                	lw	s3,16(sp)
     d26:	4a32                	lw	s4,12(sp)
     d28:	4aa2                	lw	s5,8(sp)
     d2a:	4b12                	lw	s6,4(sp)
     d2c:	4b82                	lw	s7,0(sp)
     d2e:	6105                	addi	sp,sp,32
     d30:	8082                	ret
		if( outy < 0 )
     d32:	0007d563          	bgez	a5,d3c <RenderBSprite+0x64>
			bin += sw;
     d36:	954e                	add	a0,a0,s3
	for( y = 0; y < sh; y++, outy++ )
     d38:	0785                	addi	a5,a5,1
     d3a:	bff1                	j	d16 <RenderBSprite+0x3e>
		else if( outy >= SSD1306_H )
     d3c:	fef441e3          	blt	s0,a5,d1e <RenderBSprite+0x46>
		uint8_t * bout = &ssd1306_buffer[(outy>>3)*SSD1306_W + outx];
     d40:	4037d713          	srai	a4,a5,0x3
		int boutshift = outy&7;
     d44:	0077f493          	andi	s1,a5,7
		uint8_t * bout = &ssd1306_buffer[(outy>>3)*SSD1306_W + outx];
     d48:	071e                	slli	a4,a4,0x7
     d4a:	080a0f93          	addi	t6,s4,128 # 20002080 <ssd1306_buffer>
		int boutshiftmaskinv = ~(1<<boutshift);
     d4e:	009a92b3          	sll	t0,s5,s1
     d52:	fff2c293          	not	t0,t0
		int tx = outx;
     d56:	8eae                	mv	t4,a1
		for( group = 0; group < sw; group++ )
     d58:	4e01                	li	t3,0
     d5a:	9fba                	add	t6,t6,a4
     d5c:	01df8bb3          	add	s7,t6,t4
     d60:	006e4463          	blt	t3,t1,d68 <RenderBSprite+0x90>
     d64:	9542                	add	a0,a0,a6
     d66:	bfc9                	j	d38 <RenderBSprite+0x60>
			uint32_t input = *(bin++);
     d68:	002e1713          	slli	a4,t3,0x2
     d6c:	972a                	add	a4,a4,a0
     d6e:	00072f03          	lw	t5,0(a4)
			for( x = 0; x < 16; x++, tx++, input >>= 1 )
     d72:	4881                	li	a7,0
				if( tx < 0 || tx >= SSD1306_W ) continue;
     d74:	01d88733          	add	a4,a7,t4
     d78:	02e46463          	bltu	s0,a4,da0 <RenderBSprite+0xc8>
				if( input & 1 )
     d7c:	001f7713          	andi	a4,t5,1
     d80:	c305                	beqz	a4,da0 <RenderBSprite+0xc8>
					bout[x] = ( bout[x] & boutshiftmaskinv ) | (((input>>16)&1)<< ( boutshift));
     d82:	011b86b3          	add	a3,s7,a7
     d86:	0006c383          	lbu	t2,0(a3)
     d8a:	010f5713          	srli	a4,t5,0x10
     d8e:	8b05                	andi	a4,a4,1
     d90:	00971733          	sll	a4,a4,s1
     d94:	0053f3b3          	and	t2,t2,t0
     d98:	00776733          	or	a4,a4,t2
     d9c:	00e68023          	sb	a4,0(a3)
			for( x = 0; x < 16; x++, tx++, input >>= 1 )
     da0:	0885                	addi	a7,a7,1
     da2:	001f5f13          	srli	t5,t5,0x1
     da6:	fd6897e3          	bne	a7,s6,d74 <RenderBSprite+0x9c>
     daa:	0ec1                	addi	t4,t4,16
		for( group = 0; group < sw; group++ )
     dac:	0e05                	addi	t3,t3,1
     dae:	b77d                	j	d5c <RenderBSprite+0x84>

00000db0 <_rand_gen_32b>:
uint32_t _rand_gen_32b(void)
{
	uint32_t rand_out = 0;
	
	uint8_t bits = 32;
	while(bits--)
     db0:	c041a703          	lw	a4,-1020(gp) # 200009b0 <_rand_lfsr>
{
     db4:	02000693          	li	a3,32
	uint32_t rand_out = 0;
     db8:	4501                	li	a0,0
	uint32_t msb = bit_31 ^ bit_21 ^ bit_01 ^ bit_00;
     dba:	80000837          	lui	a6,0x80000
	uint32_t bit_01 = (_rand_lfsr << 30) & 0x80000000;
     dbe:	01e71593          	slli	a1,a4,0x1e
	uint32_t bit_21 = (_rand_lfsr << 10) & 0x80000000;
     dc2:	00a71793          	slli	a5,a4,0xa
	uint32_t msb = bit_31 ^ bit_21 ^ bit_01 ^ bit_00;
     dc6:	8fad                	xor	a5,a5,a1
     dc8:	8fb9                	xor	a5,a5,a4
	uint32_t bit_00 = (_rand_lfsr << 31) & 0x80000000;
     dca:	01f71593          	slli	a1,a4,0x1f
	uint32_t msb = bit_31 ^ bit_21 ^ bit_01 ^ bit_00;
     dce:	0107f7b3          	and	a5,a5,a6
     dd2:	8fad                	xor	a5,a5,a1
	_rand_lfsr = (_rand_lfsr >> 1) | msb;
     dd4:	8305                	srli	a4,a4,0x1
	while(bits--)
     dd6:	16fd                	addi	a3,a3,-1
	{
		// Shift the current rand value for the new LSB
		rand_out = rand_out << 1;
     dd8:	0506                	slli	a0,a0,0x1
	_rand_lfsr = (_rand_lfsr >> 1) | msb;
     dda:	8f5d                	or	a4,a4,a5
	while(bits--)
     ddc:	0ff6f693          	zext.b	a3,a3
	return msb >> 31;
     de0:	83fd                	srli	a5,a5,0x1f
		// Append the LSB
		rand_out |= _rand_lfsr_update();
     de2:	8d5d                	or	a0,a0,a5
	while(bits--)
     de4:	fee9                	bnez	a3,dbe <_rand_gen_32b+0xe>
     de6:	c0e1a223          	sw	a4,-1020(gp) # 200009b0 <_rand_lfsr>
	}
	
	return rand_out;
}
     dea:	8082                	ret

00000dec <ModePufferWirelessRX>:
void ModePufferWirelessRX( uint8_t * txmac, uint8_t * message, int messageLength, int rssi )
{
	//Note to self, this is bad but it works
	ModePuffer *m = (ModePuffer*) game;
	//Include this in modes to handle incoming traffic from the internet
}
     dec:	8082                	ret

00000dee <badSin>:
	//0 returns 1
	//90 returns 0
	//180 returns -1
	//270 returns 0
	//We interpolate these values linearly because who has time for real lookup tables
	if(degrees >= 180){
     dee:	0b300793          	li	a5,179
     df2:	05a00713          	li	a4,90
     df6:	00a7d663          	bge	a5,a0,e02 <badSin+0x14>
		return -1 + ((degrees-180)/90);
     dfa:	02e54533          	div	a0,a0,a4
     dfe:	1575                	addi	a0,a0,-3
     e00:	8082                	ret
	}else{
		return -1 + ((180-degrees)/90);
     e02:	0b400793          	li	a5,180
     e06:	40a78533          	sub	a0,a5,a0
     e0a:	02e54533          	div	a0,a0,a4
     e0e:	157d                	addi	a0,a0,-1
	}
}
     e10:	8082                	ret

00000e12 <rollDice>:
static const int   boxStaticTime = 60000;
static const int   boxMovingTime = 1250000;
static const int   boxMovePixels = 27;


int rollDice(){
     e12:	1141                	addi	sp,sp,-16
     e14:	c606                	sw	ra,12(sp)
     e16:	c422                	sw	s0,8(sp)
	#endif

	// If RANDOM_STRENGTH is level 2, generate a 32-bit output, using 32 random
	// bits from the LFSR
	#if RANDOM_STRENGTH == 2
	rand_out = _rand_gen_32b();
     e18:	3f61                	jal	db0 <_rand_gen_32b>
     e1a:	842a                	mv	s0,a0
     e1c:	3f51                	jal	db0 <_rand_gen_32b>
	//more instructions but also more realistic!
	return (rand() % 6) + (rand() % 6) + 2; 
     e1e:	4799                	li	a5,6
     e20:	02f47433          	remu	s0,s0,a5
}
     e24:	40b2                	lw	ra,12(sp)
	return (rand() % 6) + (rand() % 6) + 2; 
     e26:	02f57533          	remu	a0,a0,a5
     e2a:	9522                	add	a0,a0,s0
}
     e2c:	4422                	lw	s0,8(sp)
     e2e:	0509                	addi	a0,a0,2
     e30:	0141                	addi	sp,sp,16
     e32:	8082                	ret

00000e34 <ModeShutWirelessRX>:
		}
	}
	return 1;
}

void ModeShutWirelessRX( uint8_t * txmac, uint8_t * message, int messageLength, int rssi )
     e34:	8082                	ret

00000e36 <funPinMode.part.0>:
	case GPIO_ModeIN_Floating:
		*(&R32_PA_PD_DRV + OFFSET_FOR_GPIOB(pin)) &= ~(pin & ~PB);
     e36:	400017b7          	lui	a5,0x40001
     e3a:	0b478793          	addi	a5,a5,180 # 400010b4 <_eusrstack+0x1fffe0b4>
     e3e:	4398                	lw	a4,0(a5)
     e40:	fff54513          	not	a0,a0
     e44:	8f69                	and	a4,a4,a0
     e46:	c398                	sw	a4,0(a5)
		*(&R32_PA_PU + OFFSET_FOR_GPIOB(pin))     &= ~(pin & ~PB);
     e48:	400017b7          	lui	a5,0x40001
     e4c:	0b078793          	addi	a5,a5,176 # 400010b0 <_eusrstack+0x1fffe0b0>
     e50:	4398                	lw	a4,0(a5)
     e52:	8f69                	and	a4,a4,a0
     e54:	c398                	sw	a4,0(a5)
		*(&R32_PA_DIR + OFFSET_FOR_GPIOB(pin))    &= ~(pin & ~PB);
     e56:	400017b7          	lui	a5,0x40001
     e5a:	0a078793          	addi	a5,a5,160 # 400010a0 <_eusrstack+0x1fffe0a0>
     e5e:	4398                	lw	a4,0(a5)
     e60:	8d79                	and	a0,a0,a4
     e62:	c388                	sw	a0,0(a5)
	case GPIO_ModeOut_PP_20mA:
		*(&R32_PA_PD_DRV + OFFSET_FOR_GPIOB(pin)) |= (pin & ~PB);
		*(&R32_PA_DIR + OFFSET_FOR_GPIOB(pin))    |= (pin & ~PB);
		break;
	}
}
     e64:	8082                	ret

00000e66 <ssd1306_drawstr_sz.constprop.0>:
}

/*
 * draw a string to the display buffer, scaled to size
 */
void ssd1306_drawstr_sz(int x, int y, const char *str, uint8_t color, font_size_t font_size)
     e66:	711d                	addi	sp,sp,-96
     e68:	c6ce                	sw	s3,76(sp)
	
	while((c=*str++))
	{
		ssd1306_drawchar_sz(x, y, c, color, font_size);
		x += 8 * font_size;
		if(x>128 - 8 * font_size)
     e6a:	49c1                	li	s3,16
     e6c:	40d989b3          	sub	s3,s3,a3
void ssd1306_drawstr_sz(int x, int y, const char *str, uint8_t color, font_size_t font_size)
     e70:	cca2                	sw	s0,88(sp)
     e72:	caa6                	sw	s1,84(sp)
     e74:	c8ca                	sw	s2,80(sp)
     e76:	d86a                	sw	s10,48(sp)
     e78:	d66e                	sw	s11,44(sp)
     e7a:	8436                	mv	s0,a3
		x += 8 * font_size;
     e7c:	00369d93          	slli	s11,a3,0x3
void ssd1306_drawstr_sz(int x, int y, const char *str, uint8_t color, font_size_t font_size)
     e80:	ce86                	sw	ra,92(sp)
     e82:	c4d2                	sw	s4,72(sp)
     e84:	c2d6                	sw	s5,68(sp)
     e86:	c0da                	sw	s6,64(sp)
     e88:	de5e                	sw	s7,60(sp)
     e8a:	dc62                	sw	s8,56(sp)
     e8c:	da66                	sw	s9,52(sp)
     e8e:	84aa                	mv	s1,a0
     e90:	8d2e                	mv	s10,a1
     e92:	8932                	mv	s2,a2
		if(x>128 - 8 * font_size)
     e94:	098e                	slli	s3,s3,0x3
    uint8_t font_scale = (uint8_t)font_size;
     e96:	0ff6f693          	zext.b	a3,a3
        d = fontdata[(chr << 3) + i];
     e9a:	688d                	lui	a7,0x3
	while((c=*str++))
     e9c:	00094783          	lbu	a5,0(s2)
     ea0:	0905                	addi	s2,s2,1
     ea2:	cfb5                	beqz	a5,f1e <ssd1306_drawstr_sz.constprop.0+0xb8>
     ea4:	876a                	mv	a4,s10
    uint8_t font_scale = (uint8_t)font_size;
     ea6:	4b81                	li	s7,0
        d = fontdata[(chr << 3) + i];
     ea8:	00379b13          	slli	s6,a5,0x3
     eac:	017b07b3          	add	a5,s6,s7
     eb0:	e8c88613          	addi	a2,a7,-372 # 2e8c <fontdata>
     eb4:	97b2                	add	a5,a5,a2
     eb6:	0007ca83          	lbu	s5,0(a5)
     eba:	4a21                	li	s4,8
     ebc:	87a6                	mv	a5,s1
            if (d & 0x80)
     ebe:	007ad613          	srli	a2,s5,0x7
     ec2:	4c81                	li	s9,0
     ec4:	01978533          	add	a0,a5,s9
        d = fontdata[(chr << 3) + i];
     ec8:	4c01                	li	s8,0
                    ssd1306_drawPixel(x + (j * font_scale) + k, y + (i * font_scale) + l, col);
     eca:	00ec05b3          	add	a1,s8,a4
     ece:	ce36                	sw	a3,28(sp)
     ed0:	cc3e                	sw	a5,24(sp)
     ed2:	ca32                	sw	a2,20(sp)
     ed4:	c83a                	sw	a4,16(sp)
     ed6:	c62a                	sw	a0,12(sp)
     ed8:	39d9                	jal	bae <ssd1306_drawPixel>
                for (uint8_t l = 0; l < font_scale; l++) {
     eda:	46f2                	lw	a3,28(sp)
     edc:	0c05                	addi	s8,s8,1
     ede:	0ffc7593          	zext.b	a1,s8
     ee2:	4532                	lw	a0,12(sp)
     ee4:	4742                	lw	a4,16(sp)
     ee6:	4652                	lw	a2,20(sp)
     ee8:	47e2                	lw	a5,24(sp)
     eea:	688d                	lui	a7,0x3
     eec:	4321                	li	t1,8
     eee:	fcd5eee3          	bltu	a1,a3,eca <ssd1306_drawstr_sz.constprop.0+0x64>
            for (uint8_t k = 0; k < font_scale; k++) {
     ef2:	0c85                	addi	s9,s9,1
     ef4:	0ffcf593          	zext.b	a1,s9
     ef8:	fcd5e6e3          	bltu	a1,a3,ec4 <ssd1306_drawstr_sz.constprop.0+0x5e>
        for (j = 0; j < 8; j++)
     efc:	1a7d                	addi	s4,s4,-1
     efe:	0a42                	slli	s4,s4,0x10
            d <<= 1;
     f00:	0a86                	slli	s5,s5,0x1
        for (j = 0; j < 8; j++)
     f02:	010a5a13          	srli	s4,s4,0x10
            d <<= 1;
     f06:	0ffafa93          	zext.b	s5,s5
        for (j = 0; j < 8; j++)
     f0a:	97a2                	add	a5,a5,s0
     f0c:	fa0a19e3          	bnez	s4,ebe <ssd1306_drawstr_sz.constprop.0+0x58>
    for (i = 0; i < 8; i++)
     f10:	0b85                	addi	s7,s7,1
     f12:	9722                	add	a4,a4,s0
     f14:	f86b9ce3          	bne	s7,t1,eac <ssd1306_drawstr_sz.constprop.0+0x46>
     f18:	94ee                	add	s1,s1,s11
		if(x>128 - 8 * font_size)
     f1a:	f899f1e3          	bgeu	s3,s1,e9c <ssd1306_drawstr_sz.constprop.0+0x36>
			break;
	}
}
     f1e:	40f6                	lw	ra,92(sp)
     f20:	4466                	lw	s0,88(sp)
     f22:	44d6                	lw	s1,84(sp)
     f24:	4946                	lw	s2,80(sp)
     f26:	49b6                	lw	s3,76(sp)
     f28:	4a26                	lw	s4,72(sp)
     f2a:	4a96                	lw	s5,68(sp)
     f2c:	4b06                	lw	s6,64(sp)
     f2e:	5bf2                	lw	s7,60(sp)
     f30:	5c62                	lw	s8,56(sp)
     f32:	5cd2                	lw	s9,52(sp)
     f34:	5d42                	lw	s10,48(sp)
     f36:	5db2                	lw	s11,44(sp)
     f38:	6125                	addi	sp,sp,96
     f3a:	8082                	ret

00000f3c <ssd1306_drawFastHLine.constprop.0>:
	if((x >= SSD1306_W) || (y >= SSD1306_H)) return;
     f3c:	00b567b3          	or	a5,a0,a1
     f40:	07f00693          	li	a3,127
     f44:	04f6e063          	bltu	a3,a5,f84 <ssd1306_drawFastHLine.constprop.0+0x48>
void ssd1306_drawFastHLine(uint32_t x, uint32_t y, uint32_t w, uint32_t color)
     f48:	1141                	addi	sp,sp,-16
     f4a:	c422                	sw	s0,8(sp)
     f4c:	c04a                	sw	s2,0(sp)
     f4e:	c606                	sw	ra,12(sp)
     f50:	c226                	sw	s1,4(sp)
	if((x+w-1) >= SSD1306_W)  w = SSD1306_W-x;
     f52:	01550713          	addi	a4,a0,21
     f56:	842a                	mv	s0,a0
     f58:	892e                	mv	s2,a1
     f5a:	47d9                	li	a5,22
     f5c:	00e6f563          	bgeu	a3,a4,f66 <ssd1306_drawFastHLine.constprop.0+0x2a>
     f60:	08000793          	li	a5,128
     f64:	8f89                	sub	a5,a5,a0
     f66:	00f404b3          	add	s1,s0,a5
     f6a:	8522                	mv	a0,s0
        ssd1306_drawPixel(x++, y, color);
     f6c:	4605                	li	a2,1
     f6e:	0405                	addi	s0,s0,1
     f70:	85ca                	mv	a1,s2
     f72:	3935                	jal	bae <ssd1306_drawPixel>
	while (w--)
     f74:	fe849be3          	bne	s1,s0,f6a <ssd1306_drawFastHLine.constprop.0+0x2e>
}
     f78:	40b2                	lw	ra,12(sp)
     f7a:	4422                	lw	s0,8(sp)
     f7c:	4492                	lw	s1,4(sp)
     f7e:	4902                	lw	s2,0(sp)
     f80:	0141                	addi	sp,sp,16
     f82:	8082                	ret
     f84:	8082                	ret

00000f86 <ssd1306_drawFastVLine.constprop.0>:
	if((x >= SSD1306_W) || (y >= SSD1306_H)) return;
     f86:	07f00793          	li	a5,127
     f8a:	04a7c163          	blt	a5,a0,fcc <ssd1306_drawFastVLine.constprop.0+0x46>
void ssd1306_drawFastVLine(int32_t x, int32_t y, int32_t h, uint32_t color)
     f8e:	1141                	addi	sp,sp,-16
     f90:	c422                	sw	s0,8(sp)
     f92:	c04a                	sw	s2,0(sp)
     f94:	c606                	sw	ra,12(sp)
     f96:	c226                	sw	s1,4(sp)
	if((y+h-1) >= SSD1306_H) h = SSD1306_H-y;
     f98:	00c587b3          	add	a5,a1,a2
     f9c:	08000713          	li	a4,128
     fa0:	892a                	mv	s2,a0
     fa2:	842e                	mv	s0,a1
     fa4:	00f75463          	bge	a4,a5,fac <ssd1306_drawFastVLine.constprop.0+0x26>
     fa8:	40b70633          	sub	a2,a4,a1
     fac:	008604b3          	add	s1,a2,s0
	while(h--)
     fb0:	00941863          	bne	s0,s1,fc0 <ssd1306_drawFastVLine.constprop.0+0x3a>
}
     fb4:	40b2                	lw	ra,12(sp)
     fb6:	4422                	lw	s0,8(sp)
     fb8:	4492                	lw	s1,4(sp)
     fba:	4902                	lw	s2,0(sp)
     fbc:	0141                	addi	sp,sp,16
     fbe:	8082                	ret
        ssd1306_drawPixel(x, y++, color);
     fc0:	85a2                	mv	a1,s0
     fc2:	4605                	li	a2,1
     fc4:	854a                	mv	a0,s2
     fc6:	36e5                	jal	bae <ssd1306_drawPixel>
     fc8:	0405                	addi	s0,s0,1
     fca:	b7dd                	j	fb0 <ssd1306_drawFastVLine.constprop.0+0x2a>
     fcc:	8082                	ret

00000fce <ssd1306_drawRect.constprop.0>:
void ssd1306_drawRect(int32_t x, int32_t y, uint32_t w, uint32_t h, uint32_t color)
     fce:	1141                	addi	sp,sp,-16
     fd0:	c606                	sw	ra,12(sp)
     fd2:	c422                	sw	s0,8(sp)
     fd4:	c226                	sw	s1,4(sp)
     fd6:	c04a                	sw	s2,0(sp)
     fd8:	84aa                	mv	s1,a0
     fda:	842e                	mv	s0,a1
     fdc:	8932                	mv	s2,a2
	ssd1306_drawFastVLine(x, y, h, color);
     fde:	3765                	jal	f86 <ssd1306_drawFastVLine.constprop.0>
	ssd1306_drawFastVLine(x+w-1, y, h, color);
     fe0:	864a                	mv	a2,s2
     fe2:	85a2                	mv	a1,s0
     fe4:	01548513          	addi	a0,s1,21
     fe8:	3f79                	jal	f86 <ssd1306_drawFastVLine.constprop.0>
	ssd1306_drawFastHLine(x, y, w, color);
     fea:	85a2                	mv	a1,s0
     fec:	8526                	mv	a0,s1
     fee:	37b9                	jal	f3c <ssd1306_drawFastHLine.constprop.0>
	ssd1306_drawFastHLine(x, y+h-1, w, color);
     ff0:	fff40593          	addi	a1,s0,-1
}
     ff4:	4422                	lw	s0,8(sp)
     ff6:	40b2                	lw	ra,12(sp)
	ssd1306_drawFastHLine(x, y+h-1, w, color);
     ff8:	95ca                	add	a1,a1,s2
     ffa:	8526                	mv	a0,s1
}
     ffc:	4902                	lw	s2,0(sp)
     ffe:	4492                	lw	s1,4(sp)
    1000:	0141                	addi	sp,sp,16
	ssd1306_drawFastHLine(x, y+h-1, w, color);
    1002:	bf2d                	j	f3c <ssd1306_drawFastHLine.constprop.0>

00001004 <internal_handle_input.constprop.0>:
	uint32_t dmd0 = *dmdata0;
    1004:	e00007b7          	lui	a5,0xe0000
    1008:	3407a783          	lw	a5,832(a5) # e0000340 <_eusrstack+0xbfffd340>
}
    100c:	8082                	ret

0000100e <_write.constprop.0>:
WEAK int _write(int fd, const char *buf, int size)
    100e:	7139                	addi	sp,sp,-64
    1010:	dc22                	sw	s0,56(sp)
	if( ( *DMDATA0 & 0xc0 ) == 0xc0 ) return 0;
    1012:	e0000437          	lui	s0,0xe0000
    1016:	34040413          	addi	s0,s0,832 # e0000340 <_eusrstack+0xbfffd340>
    101a:	401c                	lw	a5,0(s0)
WEAK int _write(int fd, const char *buf, int size)
    101c:	de06                	sw	ra,60(sp)
    101e:	da26                	sw	s1,52(sp)
    1020:	d84a                	sw	s2,48(sp)
    1022:	d64e                	sw	s3,44(sp)
    1024:	d452                	sw	s4,40(sp)
    1026:	d256                	sw	s5,36(sp)
    1028:	d05a                	sw	s6,32(sp)
    102a:	ce5e                	sw	s7,28(sp)
	if( ( *DMDATA0 & 0xc0 ) == 0xc0 ) return 0;
    102c:	0c07f793          	andi	a5,a5,192
    1030:	0c000713          	li	a4,192
    1034:	00e78b63          	beq	a5,a4,104a <_write.constprop.0+0x3c>
	char buffer[4] = { 0 };
    1038:	c602                	sw	zero,12(sp)
    103a:	84ae                	mv	s1,a1
	if( size == 0 )
    103c:	e5d5                	bnez	a1,10e8 <_write.constprop.0+0xda>
		lastdmd = (*DMDATA0);
    103e:	401c                	lw	a5,0(s0)
		if( lastdmd && !(lastdmd&0x80) ) internal_handle_input( (uint32_t*)DMDATA0 );
    1040:	c789                	beqz	a5,104a <_write.constprop.0+0x3c>
    1042:	0807f793          	andi	a5,a5,128
    1046:	e391                	bnez	a5,104a <_write.constprop.0+0x3c>
    1048:	3f75                	jal	1004 <internal_handle_input.constprop.0>
	if( ( *DMDATA0 & 0xc0 ) == 0xc0 ) return 0;
    104a:	4481                	li	s1,0
}
    104c:	50f2                	lw	ra,60(sp)
    104e:	5462                	lw	s0,56(sp)
    1050:	5942                	lw	s2,48(sp)
    1052:	59b2                	lw	s3,44(sp)
    1054:	5a22                	lw	s4,40(sp)
    1056:	5a92                	lw	s5,36(sp)
    1058:	5b02                	lw	s6,32(sp)
    105a:	4bf2                	lw	s7,28(sp)
    105c:	8526                	mv	a0,s1
    105e:	54d2                	lw	s1,52(sp)
    1060:	6121                	addi	sp,sp,64
    1062:	8082                	ret
		int tosend = size - place;
    1064:	412489b3          	sub	s3,s1,s2
		if( tosend > 7 ) tosend = 7;
    1068:	013b5363          	bge	s6,s3,106e <_write.constprop.0+0x60>
    106c:	499d                	li	s3,7
    106e:	001007b7          	lui	a5,0x100
    1072:	0785                	addi	a5,a5,1 # 100001 <firmware.c.57502c15+0xfb7e3>
		while( ( lastdmd = (*DMDATA0) ) & 0x80 )
    1074:	4018                	lw	a4,0(s0)
    1076:	08077693          	andi	a3,a4,128
    107a:	e6b1                	bnez	a3,10c6 <_write.constprop.0+0xb8>
		if( lastdmd ) internal_handle_input( (uint32_t*)DMDATA0 );
    107c:	c311                	beqz	a4,1080 <_write.constprop.0+0x72>
    107e:	3759                	jal	1004 <internal_handle_input.constprop.0>
    1080:	0078                	addi	a4,sp,12
		if( tosend > 7 ) tosend = 7;
    1082:	478d                	li	a5,3
    1084:	863a                	mv	a2,a4
		while( t < tosend )
    1086:	0537c763          	blt	a5,s3,10d4 <_write.constprop.0+0xc6>
		*DMDATA1 = *(uint32_t*)&(buffer[0]);
    108a:	47b2                	lw	a5,12(sp)
    108c:	012a0733          	add	a4,s4,s2
    1090:	00faa023          	sw	a5,0(s5)
		t = 0;
    1094:	4781                	li	a5,0
			buffer[t+1] = buf[t+place];
    1096:	00074583          	lbu	a1,0(a4)
    109a:	0785                	addi	a5,a5,1
    109c:	00f606b3          	add	a3,a2,a5
    10a0:	00b68023          	sb	a1,0(a3)
		while( t < tosend && t < 3 )
    10a4:	00f98563          	beq	s3,a5,10ae <_write.constprop.0+0xa0>
    10a8:	0705                	addi	a4,a4,1
    10aa:	ff7796e3          	bne	a5,s7,1096 <_write.constprop.0+0x88>
		buffer[0] = 0x80 | (tosend + 4);
    10ae:	00498793          	addi	a5,s3,4
    10b2:	f807e793          	ori	a5,a5,-128
    10b6:	00f10623          	sb	a5,12(sp)
		*DMDATA0 = *(uint32_t*)&(buffer[0]);
    10ba:	47b2                	lw	a5,12(sp)
		place += tosend;
    10bc:	994e                	add	s2,s2,s3
		*DMDATA0 = *(uint32_t*)&(buffer[0]);
    10be:	c01c                	sw	a5,0(s0)
	while( place < size )
    10c0:	fa9942e3          	blt	s2,s1,1064 <_write.constprop.0+0x56>
    10c4:	b761                	j	104c <_write.constprop.0+0x3e>
			if( timeout-- == 0 )
    10c6:	17fd                	addi	a5,a5,-1
    10c8:	f7d5                	bnez	a5,1074 <_write.constprop.0+0x66>
				*DMDATA0 |= 0xc0;
    10ca:	401c                	lw	a5,0(s0)
    10cc:	0c07e793          	ori	a5,a5,192
    10d0:	c01c                	sw	a5,0(s0)
				return 0;
    10d2:	bfa5                	j	104a <_write.constprop.0+0x3c>
			buffer[t-3] = buf[t+place];
    10d4:	00f906b3          	add	a3,s2,a5
    10d8:	96d2                	add	a3,a3,s4
    10da:	0006c683          	lbu	a3,0(a3)
			t++;
    10de:	0785                	addi	a5,a5,1
    10e0:	0705                	addi	a4,a4,1
			buffer[t-3] = buf[t+place];
    10e2:	fed70fa3          	sb	a3,-1(a4)
    10e6:	b745                	j	1086 <_write.constprop.0+0x78>
		*DMDATA1 = *(uint32_t*)&(buffer[0]);
    10e8:	e0000ab7          	lui	s5,0xe0000
    10ec:	8a2a                	mv	s4,a0
    10ee:	4901                	li	s2,0
		if( tosend > 7 ) tosend = 7;
    10f0:	4b1d                	li	s6,7
		*DMDATA1 = *(uint32_t*)&(buffer[0]);
    10f2:	344a8a93          	addi	s5,s5,836 # e0000344 <_eusrstack+0xbfffd344>
		while( t < tosend && t < 3 )
    10f6:	4b8d                	li	s7,3
    10f8:	b7e1                	j	10c0 <_write.constprop.0+0xb2>

000010fa <__puts_uart>:
{
    10fa:	1141                	addi	sp,sp,-16
    10fc:	c422                	sw	s0,8(sp)
    10fe:	c606                	sw	ra,12(sp)
    1100:	842e                	mv	s0,a1
	_write( 0, s, len );
    1102:	3731                	jal	100e <_write.constprop.0>
}
    1104:	40b2                	lw	ra,12(sp)
    1106:	8522                	mv	a0,s0
    1108:	4422                	lw	s0,8(sp)
    110a:	0141                	addi	sp,sp,16
    110c:	8082                	ret

0000110e <ssd1306_pkt_send.isra.0>:
}

/*
 * packet send for blocking polled operation via spi
 */
uint8_t ssd1306_pkt_send(const uint8_t *data, int sz, uint8_t cmd)
    110e:	400017b7          	lui	a5,0x40001
    1112:	0ac78793          	addi	a5,a5,172 # 400010ac <_eusrstack+0x1fffe0ac>
    1116:	40000713          	li	a4,1024
{
	if(cmd)
    111a:	ca1d                	beqz	a2,1150 <ssd1306_pkt_send.isra.0+0x42>
	{
		funDigitalWrite( SSD1306_DC_PIN, FUN_LOW );
    111c:	c398                	sw	a4,0(a5)
	else
	{
		funDigitalWrite( SSD1306_DC_PIN, FUN_HIGH );
	}

	funDigitalWrite( SSD1306_CS_PIN, FUN_LOW );
    111e:	4741                	li	a4,16
    1120:	c398                	sw	a4,0(a5)
			funDigitalWrite( SSD1306_SCK_PIN, FUN_HIGH );      ADD_N_NOPS(1)
			c<<=1;
		} while( --i );

#elif defined( CH5xx )
		while(! (R8_SPI0_INT_FLAG & RB_SPI_FREE) );
    1122:	400047b7          	lui	a5,0x40004
		R8_SPI0_BUFFER = *data++;
    1126:	40004737          	lui	a4,0x40004
    112a:	95aa                	add	a1,a1,a0
		while(! (R8_SPI0_INT_FLAG & RB_SPI_FREE) );
    112c:	0799                	addi	a5,a5,6 # 40004006 <_eusrstack+0x20001006>
		R8_SPI0_BUFFER = *data++;
    112e:	0711                	addi	a4,a4,4 # 40004004 <_eusrstack+0x20001004>
	while(sz--)
    1130:	02b51563          	bne	a0,a1,115a <ssd1306_pkt_send.isra.0+0x4c>
	
	// wait for not busy before exiting
#if SSD1306_SOFT_SPI
	// Nothing needed here.
#elif defined( CH5xx )
	while( !(R8_SPI0_INT_FLAG & RB_SPI_FREE)) { }
    1134:	40004737          	lui	a4,0x40004
    1138:	0719                	addi	a4,a4,6 # 40004006 <_eusrstack+0x20001006>
    113a:	00074783          	lbu	a5,0(a4)
    113e:	0407f793          	andi	a5,a5,64
    1142:	dfe5                	beqz	a5,113a <ssd1306_pkt_send.isra.0+0x2c>
#else
	while(SPI1->STATR & SPI_STATR_BSY) { }
#endif

	funDigitalWrite( SSD1306_CS_PIN, FUN_HIGH );
    1144:	400017b7          	lui	a5,0x40001
    1148:	4741                	li	a4,16
    114a:	0ae7ac23          	sw	a4,184(a5) # 400010b8 <_eusrstack+0x1fffe0b8>
	
	// we're happy
	return 0;
}
    114e:	8082                	ret
		funDigitalWrite( SSD1306_DC_PIN, FUN_HIGH );
    1150:	400016b7          	lui	a3,0x40001
    1154:	0ae6ac23          	sw	a4,184(a3) # 400010b8 <_eusrstack+0x1fffe0b8>
    1158:	b7d9                	j	111e <ssd1306_pkt_send.isra.0+0x10>
		while(! (R8_SPI0_INT_FLAG & RB_SPI_FREE) );
    115a:	0007c683          	lbu	a3,0(a5)
    115e:	0406f693          	andi	a3,a3,64
    1162:	dee5                	beqz	a3,115a <ssd1306_pkt_send.isra.0+0x4c>
		R8_SPI0_BUFFER = *data++;
    1164:	00054683          	lbu	a3,0(a0)
    1168:	0505                	addi	a0,a0,1
    116a:	00d70023          	sb	a3,0(a4)
    116e:	b7c9                	j	1130 <ssd1306_pkt_send.isra.0+0x22>

00001170 <ssd1306_cmd.isra.0>:
uint8_t ssd1306_cmd(uint8_t cmd)
    1170:	1101                	addi	sp,sp,-32
	return ssd1306_pkt_send(&cmd, 1, 1);
    1172:	4605                	li	a2,1
uint8_t ssd1306_cmd(uint8_t cmd)
    1174:	00a107a3          	sb	a0,15(sp)
	return ssd1306_pkt_send(&cmd, 1, 1);
    1178:	85b2                	mv	a1,a2
    117a:	00f10513          	addi	a0,sp,15
uint8_t ssd1306_cmd(uint8_t cmd)
    117e:	ce06                	sw	ra,28(sp)
	return ssd1306_pkt_send(&cmd, 1, 1);
    1180:	3779                	jal	110e <ssd1306_pkt_send.isra.0>
}
    1182:	40f2                	lw	ra,28(sp)
    1184:	6105                	addi	sp,sp,32
    1186:	8082                	ret

00001188 <ssd1306_refresh>:
{
    1188:	1141                	addi	sp,sp,-16
    118a:	c422                	sw	s0,8(sp)
	ssd1306_cmd(SSD1306_MEMORYMODE); // vertical addressing mode.
    118c:	02000513          	li	a0,32
    1190:	20002437          	lui	s0,0x20002
{
    1194:	c226                	sw	s1,4(sp)
    1196:	c04a                	sw	s2,0(sp)
    1198:	c606                	sw	ra,12(sp)
    119a:	08040413          	addi	s0,s0,128 # 20002080 <ssd1306_buffer>
	ssd1306_cmd(SSD1306_MEMORYMODE); // vertical addressing mode.
    119e:	3fc9                	jal	1170 <ssd1306_cmd.isra.0>
	for(i=0;i<SSD1306_H/8;i++)
    11a0:	4481                	li	s1,0
		ssd1306_cmd( 0x10 | (0>>4) );
    11a2:	4941                	li	s2,16
		ssd1306_cmd(0xb0 | i);
    11a4:	fb04e513          	ori	a0,s1,-80
    11a8:	0ff57513          	zext.b	a0,a0
    11ac:	37d1                	jal	1170 <ssd1306_cmd.isra.0>
		ssd1306_cmd( 0x00 | (0&0xf) ); 
    11ae:	4501                	li	a0,0
    11b0:	37c1                	jal	1170 <ssd1306_cmd.isra.0>
		ssd1306_cmd( 0x10 | (0>>4) );
    11b2:	4541                	li	a0,16
    11b4:	3f75                	jal	1170 <ssd1306_cmd.isra.0>
	return ssd1306_pkt_send(data, sz, 0);
    11b6:	8522                	mv	a0,s0
    11b8:	4601                	li	a2,0
    11ba:	02000593          	li	a1,32
    11be:	3f81                	jal	110e <ssd1306_pkt_send.isra.0>
    11c0:	02000593          	li	a1,32
    11c4:	00b40533          	add	a0,s0,a1
    11c8:	4601                	li	a2,0
    11ca:	3791                	jal	110e <ssd1306_pkt_send.isra.0>
    11cc:	04040513          	addi	a0,s0,64
    11d0:	4601                	li	a2,0
    11d2:	02000593          	li	a1,32
	for(i=0;i<SSD1306_H/8;i++)
    11d6:	0485                	addi	s1,s1,1
	return ssd1306_pkt_send(data, sz, 0);
    11d8:	3f1d                	jal	110e <ssd1306_pkt_send.isra.0>
	for(i=0;i<SSD1306_H/8;i++)
    11da:	04c2                	slli	s1,s1,0x10
	return ssd1306_pkt_send(data, sz, 0);
    11dc:	06040513          	addi	a0,s0,96
    11e0:	4601                	li	a2,0
    11e2:	02000593          	li	a1,32
	for(i=0;i<SSD1306_H/8;i++)
    11e6:	80c1                	srli	s1,s1,0x10
	return ssd1306_pkt_send(data, sz, 0);
    11e8:	371d                	jal	110e <ssd1306_pkt_send.isra.0>
	for(i=0;i<SSD1306_H/8;i++)
    11ea:	08040413          	addi	s0,s0,128
    11ee:	fb249be3          	bne	s1,s2,11a4 <ssd1306_refresh+0x1c>
}
    11f2:	40b2                	lw	ra,12(sp)
    11f4:	4422                	lw	s0,8(sp)
    11f6:	4492                	lw	s1,4(sp)
    11f8:	4902                	lw	s2,0(sp)
    11fa:	0141                	addi	sp,sp,16
    11fc:	8082                	ret

000011fe <funPinMode.constprop.0>:
		*(&R32_PA_PD_DRV + OFFSET_FOR_GPIOB(pin)) |= (pin & ~PB);
    11fe:	400017b7          	lui	a5,0x40001
    1202:	0b478793          	addi	a5,a5,180 # 400010b4 <_eusrstack+0x1fffe0b4>
    1206:	4398                	lw	a4,0(a5)
    1208:	8f49                	or	a4,a4,a0
    120a:	c398                	sw	a4,0(a5)
		*(&R32_PA_DIR + OFFSET_FOR_GPIOB(pin))    |= (pin & ~PB);
    120c:	400017b7          	lui	a5,0x40001
    1210:	0a078793          	addi	a5,a5,160 # 400010a0 <_eusrstack+0x1fffe0a0>
    1214:	4398                	lw	a4,0(a5)
    1216:	8d59                	or	a0,a0,a4
    1218:	c388                	sw	a0,0(a5)
}
    121a:	8082                	ret

0000121c <handle_reset>:
	asm volatile( "\n\
    121c:	20000197          	auipc	gp,0x20000
    1220:	b9018193          	addi	gp,gp,-1136 # 20000dac <__global_pointer$>
    1224:	20002117          	auipc	sp,0x20002
    1228:	ddc10113          	addi	sp,sp,-548 # 20003000 <_eusrstack>
	asm volatile(
    122c:	20001517          	auipc	a0,0x20001
    1230:	9b450513          	addi	a0,a0,-1612 # 20001be0 <frameentropy>
    1234:	20001597          	auipc	a1,0x20001
    1238:	64c58593          	addi	a1,a1,1612 # 20002880 <_ebss>
    123c:	00b57763          	bgeu	a0,a1,124a <handle_reset+0x2e>
    1240:	00052023          	sw	zero,0(a0)
    1244:	0511                	addi	a0,a0,4
    1246:	feb56de3          	bltu	a0,a1,1240 <handle_reset+0x24>
    124a:	09000513          	li	a0,144
    124e:	1ffff597          	auipc	a1,0x1ffff
    1252:	db258593          	addi	a1,a1,-590 # 20000000 <EventRelease>
    1256:	1ffff617          	auipc	a2,0x1ffff
    125a:	75a60613          	addi	a2,a2,1882 # 200009b0 <_rand_lfsr>
    125e:	00c5fa63          	bgeu	a1,a2,1272 <handle_reset+0x56>
    1262:	00052283          	lw	t0,0(a0)
    1266:	0055a023          	sw	t0,0(a1)
    126a:	0511                	addi	a0,a0,4
    126c:	0591                	addi	a1,a1,4
    126e:	fec5eae3          	bltu	a1,a2,1262 <handle_reset+0x46>
    1272:	00002517          	auipc	a0,0x2
    1276:	59a50513          	addi	a0,a0,1434 # 380c <_data_lma>
    127a:	c0418593          	addi	a1,gp,-1020 # 200009b0 <_rand_lfsr>
    127e:	20001617          	auipc	a2,0x20001
    1282:	95e60613          	addi	a2,a2,-1698 # 20001bdc <_edata>
    1286:	00c58a63          	beq	a1,a2,129a <handle_reset+0x7e>
    128a:	00052283          	lw	t0,0(a0)
    128e:	0055a023          	sw	t0,0(a1)
    1292:	0511                	addi	a0,a0,4
    1294:	0591                	addi	a1,a1,4
    1296:	fec5eae3          	bltu	a1,a2,128a <handle_reset+0x6e>
	asm volatile(
    129a:	00000793          	li	a5,0
    129e:	42fd                	li	t0,31
    12a0:	bc029073          	csrw	0xbc0,t0
    12a4:	6289                	lui	t0,0x2
    12a6:	88828293          	addi	t0,t0,-1912 # 1888 <ModeShutLoop+0xce>
    12aa:	3002a073          	csrs	mstatus,t0
    12ae:	fffff297          	auipc	t0,0xfffff
    12b2:	d5228293          	addi	t0,t0,-686 # 0 <InterruptVector>
    12b6:	0032e293          	ori	t0,t0,3
    12ba:	30529073          	csrw	mtvec,t0
	SysTick->CTLR = 5;
    12be:	e000f7b7          	lui	a5,0xe000f
    12c2:	4715                	li	a4,5
    12c4:	c398                	sw	a4,0(a5)
	asm volatile(
    12c6:	6789                	lui	a5,0x2
    12c8:	23a78793          	addi	a5,a5,570 # 223a <main>
    12cc:	34179073          	csrw	mepc,a5
    12d0:	30200073          	mret

000012d4 <ADC1_2_IRQHandler>:
	asm volatile( "1: j 1b" );
    12d4:	a001                	j	12d4 <ADC1_2_IRQHandler>

000012d6 <strlen>:
	for (; *s; s++);
    12d6:	87aa                	mv	a5,a0
    12d8:	0007c703          	lbu	a4,0(a5)
    12dc:	e701                	bnez	a4,12e4 <strlen+0xe>
}
    12de:	40a78533          	sub	a0,a5,a0
    12e2:	8082                	ret
	for (; *s; s++);
    12e4:	0785                	addi	a5,a5,1
    12e6:	bfcd                	j	12d8 <strlen+0x2>

000012e8 <mini_vpprintf>:
{
    12e8:	7175                	addi	sp,sp,-144
    12ea:	c522                	sw	s0,136(sp)
    12ec:	d2e6                	sw	s9,100(sp)
    12ee:	c706                	sw	ra,140(sp)
    12f0:	c326                	sw	s1,132(sp)
    12f2:	c14a                	sw	s2,128(sp)
    12f4:	dece                	sw	s3,124(sp)
    12f6:	dcd2                	sw	s4,120(sp)
    12f8:	dad6                	sw	s5,116(sp)
    12fa:	d8da                	sw	s6,112(sp)
    12fc:	d6de                	sw	s7,108(sp)
    12fe:	d4e2                	sw	s8,104(sp)
    1300:	d0ea                	sw	s10,96(sp)
    1302:	ceee                	sw	s11,92(sp)
    1304:	8432                	mv	s0,a2
    1306:	8cb6                	mv	s9,a3
	if(puts == (void*)0) {
    1308:	e139                	bnez	a0,134e <mini_vpprintf+0x66>
		puts = _puts; buf = (void*)0;
    130a:	6485                	lui	s1,0x1
    130c:	4901                	li	s2,0
    130e:	aca48493          	addi	s1,s1,-1334 # aca <_puts>
	int n = 0;
    1312:	4981                	li	s3,0
		if (ch!='%') {
    1314:	02500a93          	li	s5,37
			if (ch == '0') pad_char = '0';
    1318:	03000a13          	li	s4,48
			while (ch >= '0' && ch <= '9') {
    131c:	4b25                	li	s6,9
				pad_to = pad_to * 10 + (ch - '0');
    131e:	4ba9                	li	s7,10
	while ((ch=*(fmt++))) {
    1320:	00044783          	lbu	a5,0(s0)
    1324:	00140d13          	addi	s10,s0,1
    1328:	00f10fa3          	sb	a5,31(sp)
    132c:	e785                	bnez	a5,1354 <mini_vpprintf+0x6c>
}
    132e:	40ba                	lw	ra,140(sp)
    1330:	442a                	lw	s0,136(sp)
    1332:	449a                	lw	s1,132(sp)
    1334:	490a                	lw	s2,128(sp)
    1336:	5a66                	lw	s4,120(sp)
    1338:	5ad6                	lw	s5,116(sp)
    133a:	5b46                	lw	s6,112(sp)
    133c:	5bb6                	lw	s7,108(sp)
    133e:	5c26                	lw	s8,104(sp)
    1340:	5c96                	lw	s9,100(sp)
    1342:	5d06                	lw	s10,96(sp)
    1344:	4df6                	lw	s11,92(sp)
    1346:	854e                	mv	a0,s3
    1348:	59f6                	lw	s3,124(sp)
    134a:	6149                	addi	sp,sp,144
    134c:	8082                	ret
    134e:	84aa                	mv	s1,a0
    1350:	892e                	mv	s2,a1
    1352:	b7c1                	j	1312 <mini_vpprintf+0x2a>
		if (ch!='%') {
    1354:	01578c63          	beq	a5,s5,136c <mini_vpprintf+0x84>
			len = puts(&ch, len, buf);
    1358:	864a                	mv	a2,s2
    135a:	4585                	li	a1,1
    135c:	01f10513          	addi	a0,sp,31
    1360:	9482                	jalr	s1
    1362:	8c66                	mv	s8,s9
	while ((ch=*(fmt++))) {
    1364:	846a                	mv	s0,s10
		n = n + len;
    1366:	99aa                	add	s3,s3,a0
    1368:	8ce2                	mv	s9,s8
    136a:	bf5d                	j	1320 <mini_vpprintf+0x38>
			ch=*(fmt++);
    136c:	00144703          	lbu	a4,1(s0)
    1370:	00240793          	addi	a5,s0,2
			if (ch == '0') pad_char = '0';
    1374:	8d52                	mv	s10,s4
			ch=*(fmt++);
    1376:	00e10fa3          	sb	a4,31(sp)
			if (ch == '0') pad_char = '0';
    137a:	07471e63          	bne	a4,s4,13f6 <mini_vpprintf+0x10e>
				ch=*(fmt++);
    137e:	843e                	mv	s0,a5
    1380:	4681                	li	a3,0
    1382:	4781                	li	a5,0
    1384:	a801                	j	1394 <mini_vpprintf+0xac>
				pad_to = pad_to * 10 + (ch - '0');
    1386:	037787b3          	mul	a5,a5,s7
				ch=*(fmt++);
    138a:	00044703          	lbu	a4,0(s0)
    138e:	0405                	addi	s0,s0,1
    1390:	4685                	li	a3,1
				pad_to = pad_to * 10 + (ch - '0');
    1392:	97b2                	add	a5,a5,a2
			while (ch >= '0' && ch <= '9') {
    1394:	fd070613          	addi	a2,a4,-48
    1398:	0ff67593          	zext.b	a1,a2
    139c:	febb75e3          	bgeu	s6,a1,1386 <mini_vpprintf+0x9e>
    13a0:	c299                	beqz	a3,13a6 <mini_vpprintf+0xbe>
    13a2:	00e10fa3          	sb	a4,31(sp)
			if(pad_to > (signed int) sizeof(bf)) {
    13a6:	46e1                	li	a3,24
    13a8:	8dbe                	mv	s11,a5
    13aa:	00f6d363          	bge	a3,a5,13b0 <mini_vpprintf+0xc8>
    13ae:	8db6                	mv	s11,a3
			if (ch == 'l') {
    13b0:	06c00693          	li	a3,108
			char l = 0;
    13b4:	4601                	li	a2,0
			if (ch == 'l') {
    13b6:	00d71863          	bne	a4,a3,13c6 <mini_vpprintf+0xde>
				ch=*(fmt++);
    13ba:	00044703          	lbu	a4,0(s0)
				l = 1;
    13be:	4605                	li	a2,1
				ch=*(fmt++);
    13c0:	0405                	addi	s0,s0,1
    13c2:	00e10fa3          	sb	a4,31(sp)
			switch (ch) {
    13c6:	01f14683          	lbu	a3,31(sp)
    13ca:	06400713          	li	a4,100
    13ce:	06e68363          	beq	a3,a4,1434 <mini_vpprintf+0x14c>
    13d2:	02d76563          	bltu	a4,a3,13fc <mini_vpprintf+0x114>
    13d6:	05800793          	li	a5,88
    13da:	0af68063          	beq	a3,a5,147a <mini_vpprintf+0x192>
    13de:	06300793          	li	a5,99
    13e2:	0af68e63          	beq	a3,a5,149e <mini_vpprintf+0x1b6>
    13e6:	d6a1                	beqz	a3,132e <mini_vpprintf+0x46>
					len = puts(&ch, len, buf);
    13e8:	864a                	mv	a2,s2
    13ea:	4585                	li	a1,1
    13ec:	01f10513          	addi	a0,sp,31
    13f0:	9482                	jalr	s1
					break;
    13f2:	8c66                	mv	s8,s9
    13f4:	bf8d                	j	1366 <mini_vpprintf+0x7e>
			char pad_char = ' ';
    13f6:	02000d13          	li	s10,32
    13fa:	b751                	j	137e <mini_vpprintf+0x96>
			switch (ch) {
    13fc:	07500713          	li	a4,117
    1400:	02e68a63          	beq	a3,a4,1434 <mini_vpprintf+0x14c>
    1404:	07800713          	li	a4,120
    1408:	06e68963          	beq	a3,a4,147a <mini_vpprintf+0x192>
    140c:	07300713          	li	a4,115
    1410:	fce69ce3          	bne	a3,a4,13e8 <mini_vpprintf+0x100>
					ptr = va_arg(va, char*);
    1414:	004c8c13          	addi	s8,s9,4
    1418:	000cac83          	lw	s9,0(s9)
    141c:	c63e                	sw	a5,12(sp)
					len = mini_strlen(ptr);
    141e:	8566                	mv	a0,s9
    1420:	3d5d                	jal	12d6 <strlen>
					if (pad_to > 0) {
    1422:	47b2                	lw	a5,12(sp)
					len = mini_strlen(ptr);
    1424:	85aa                	mv	a1,a0
					if (pad_to > 0) {
    1426:	08f05963          	blez	a5,14b8 <mini_vpprintf+0x1d0>
						len = mini_pad(ptr, len, pad_char, pad_to, bf);
    142a:	1838                	addi	a4,sp,56
    142c:	86ee                	mv	a3,s11
    142e:	866a                	mv	a2,s10
    1430:	8566                	mv	a0,s9
    1432:	a025                	j	145a <mini_vpprintf+0x172>
						len = mini_itoa(va_arg(va, unsigned long), 10, 0, (ch=='u'), bf2);
    1434:	004c8c13          	addi	s8,s9,4
					if(l) {
    1438:	ca05                	beqz	a2,1468 <mini_vpprintf+0x180>
						len = mini_itoa(va_arg(va, unsigned long), 10, 0, (ch=='u'), bf2);
    143a:	f8b68693          	addi	a3,a3,-117
    143e:	1018                	addi	a4,sp,32
    1440:	0016b693          	seqz	a3,a3
    1444:	000ca503          	lw	a0,0(s9)
    1448:	4601                	li	a2,0
    144a:	45a9                	li	a1,10
    144c:	ed2ff0ef          	jal	b1e <mini_itoa.part.0>
					len = mini_pad(bf2, len, pad_char, pad_to, bf);
    1450:	1838                	addi	a4,sp,56
    1452:	86ee                	mv	a3,s11
    1454:	866a                	mv	a2,s10
    1456:	85aa                	mv	a1,a0
					len = mini_pad(bf2, len, pad_char, pad_to, bf);
    1458:	1008                	addi	a0,sp,32
    145a:	de6ff0ef          	jal	a40 <mini_pad>
    145e:	85aa                	mv	a1,a0
					len = puts(bf, len, buf);
    1460:	864a                	mv	a2,s2
    1462:	1828                	addi	a0,sp,56
    1464:	9482                	jalr	s1
					break;
    1466:	b701                	j	1366 <mini_vpprintf+0x7e>
						if(ch == 'u') {
    1468:	07500793          	li	a5,117
    146c:	1018                	addi	a4,sp,32
    146e:	00f69463          	bne	a3,a5,1476 <mini_vpprintf+0x18e>
	if (radix > 16)
    1472:	4685                	li	a3,1
    1474:	bfc1                	j	1444 <mini_vpprintf+0x15c>
    1476:	4681                	li	a3,0
    1478:	b7f1                	j	1444 <mini_vpprintf+0x15c>
					if(l) {
    147a:	000ca503          	lw	a0,0(s9)
						len = mini_itoa(va_arg(va, unsigned long), 16, (ch=='X'), 1, bf2);
    147e:	fa868613          	addi	a2,a3,-88
    1482:	1018                	addi	a4,sp,32
    1484:	4685                	li	a3,1
    1486:	00163613          	seqz	a2,a2
    148a:	45c1                	li	a1,16
    148c:	e92ff0ef          	jal	b1e <mini_itoa.part.0>
						len = mini_itoa(va_arg(va, unsigned long), 10, 0, (ch=='u'), bf2);
    1490:	004c8c13          	addi	s8,s9,4
	if (radix > 16)
    1494:	85aa                	mv	a1,a0
					len = mini_pad(bf2, len, pad_char, pad_to, bf);
    1496:	1838                	addi	a4,sp,56
    1498:	86ee                	mv	a3,s11
    149a:	866a                	mv	a2,s10
    149c:	bf75                	j	1458 <mini_vpprintf+0x170>
					ch = (char)(va_arg(va, int));
    149e:	000ca783          	lw	a5,0(s9)
    14a2:	004c8c13          	addi	s8,s9,4
					len = mini_pad(&ch, 1, pad_char, pad_to, bf);
    14a6:	1838                	addi	a4,sp,56
					ch = (char)(va_arg(va, int));
    14a8:	00f10fa3          	sb	a5,31(sp)
					len = mini_pad(&ch, 1, pad_char, pad_to, bf);
    14ac:	86ee                	mv	a3,s11
    14ae:	866a                	mv	a2,s10
    14b0:	4585                	li	a1,1
    14b2:	01f10513          	addi	a0,sp,31
    14b6:	b755                	j	145a <mini_vpprintf+0x172>
						len = puts(ptr, len, buf);
    14b8:	864a                	mv	a2,s2
    14ba:	8566                	mv	a0,s9
    14bc:	b765                	j	1464 <mini_vpprintf+0x17c>

000014be <printf>:
{
    14be:	7139                	addi	sp,sp,-64
    14c0:	d432                	sw	a2,40(sp)
	int ret_status = mini_vpprintf(__puts_uart, 0, format, args);
    14c2:	862a                	mv	a2,a0
    14c4:	6505                	lui	a0,0x1
{
    14c6:	d22e                	sw	a1,36(sp)
    14c8:	d636                	sw	a3,44(sp)
	int ret_status = mini_vpprintf(__puts_uart, 0, format, args);
    14ca:	4581                	li	a1,0
	va_start( args, format );
    14cc:	1054                	addi	a3,sp,36
	int ret_status = mini_vpprintf(__puts_uart, 0, format, args);
    14ce:	0fa50513          	addi	a0,a0,250 # 10fa <__puts_uart>
{
    14d2:	ce06                	sw	ra,28(sp)
    14d4:	d83a                	sw	a4,48(sp)
    14d6:	da3e                	sw	a5,52(sp)
    14d8:	dc42                	sw	a6,56(sp)
    14da:	de46                	sw	a7,60(sp)
	va_start( args, format );
    14dc:	c636                	sw	a3,12(sp)
	int ret_status = mini_vpprintf(__puts_uart, 0, format, args);
    14de:	3529                	jal	12e8 <mini_vpprintf>
}
    14e0:	40f2                	lw	ra,28(sp)
    14e2:	6121                	addi	sp,sp,64
    14e4:	8082                	ret

000014e6 <mini_vsnprintf>:
{
    14e6:	1101                	addi	sp,sp,-32
    14e8:	ce06                	sw	ra,28(sp)
    14ea:	cc22                	sw	s0,24(sp)
	b.buffer = buffer;
    14ec:	c22a                	sw	a0,4(sp)
	b.pbuffer = buffer;
    14ee:	c42a                	sw	a0,8(sp)
	b.buffer_len = buffer_len;
    14f0:	c62e                	sw	a1,12(sp)
	if(buffer_len == 0) buffer = (void*) 0;
    14f2:	c585                	beqz	a1,151a <mini_vsnprintf+0x34>
	int n = mini_vpprintf(_puts, (buffer != (void*)0)?&b:(void*)0, fmt, va);
    14f4:	00a037b3          	snez	a5,a0
    14f8:	004c                	addi	a1,sp,4
    14fa:	40f007b3          	neg	a5,a5
    14fe:	842a                	mv	s0,a0
    1500:	8dfd                	and	a1,a1,a5
    1502:	6505                	lui	a0,0x1
    1504:	aca50513          	addi	a0,a0,-1334 # aca <_puts>
    1508:	33c5                	jal	12e8 <mini_vpprintf>
	if(buffer == (void*) 0) {
    150a:	c401                	beqz	s0,1512 <mini_vsnprintf+0x2c>
	return b.pbuffer - b.buffer;
    150c:	4522                	lw	a0,8(sp)
    150e:	4792                	lw	a5,4(sp)
    1510:	8d1d                	sub	a0,a0,a5
}
    1512:	40f2                	lw	ra,28(sp)
    1514:	4462                	lw	s0,24(sp)
    1516:	6105                	addi	sp,sp,32
    1518:	8082                	ret
    151a:	4401                	li	s0,0
	int n = mini_vpprintf(_puts, (buffer != (void*)0)?&b:(void*)0, fmt, va);
    151c:	4581                	li	a1,0
    151e:	b7d5                	j	1502 <mini_vsnprintf+0x1c>

00001520 <sprintf>:
{
    1520:	7139                	addi	sp,sp,-64
    1522:	d432                	sw	a2,40(sp)
	int ret = mini_vsnprintf( buffer, INT_MAX, format, args );
    1524:	862e                	mv	a2,a1
    1526:	800005b7          	lui	a1,0x80000
{
    152a:	d636                	sw	a3,44(sp)
	int ret = mini_vsnprintf( buffer, INT_MAX, format, args );
    152c:	15fd                	addi	a1,a1,-1 # 7fffffff <_eusrstack+0x5fffcfff>
	va_start( args, format );
    152e:	1034                	addi	a3,sp,40
{
    1530:	ce06                	sw	ra,28(sp)
    1532:	d83a                	sw	a4,48(sp)
    1534:	da3e                	sw	a5,52(sp)
    1536:	dc42                	sw	a6,56(sp)
    1538:	de46                	sw	a7,60(sp)
	va_start( args, format );
    153a:	c636                	sw	a3,12(sp)
	int ret = mini_vsnprintf( buffer, INT_MAX, format, args );
    153c:	376d                	jal	14e6 <mini_vsnprintf>
}
    153e:	40f2                	lw	ra,28(sp)
    1540:	6121                	addi	sp,sp,64
    1542:	8082                	ret

00001544 <memset>:
WEAK void *memset(void *dest, int c, size_t n) { unsigned char *s = dest; for (; n; n--, s++) *s = c; return dest; }
    1544:	962a                	add	a2,a2,a0
    1546:	87aa                	mv	a5,a0
    1548:	00c79363          	bne	a5,a2,154e <memset+0xa>
    154c:	8082                	ret
    154e:	00b78023          	sb	a1,0(a5)
    1552:	0785                	addi	a5,a5,1
    1554:	bfd5                	j	1548 <memset+0x4>

00001556 <EnterMenuMode.constprop.0>:
	ssd1306_refresh();
}

void EnterMenuMode( ModeMenu * m )
{
	memset( m, 0, sizeof( *m ) );
    1556:	200027b7          	lui	a5,0x20002
    155a:	be07ae23          	sw	zero,-1028(a5) # 20001bfc <gameUnion+0x4>
	m->Update = ModeMenuLoop;
    155e:	6709                	lui	a4,0x2
    1560:	200027b7          	lui	a5,0x20002
    1564:	bf878793          	addi	a5,a5,-1032 # 20001bf8 <gameUnion>
    1568:	b7c70713          	addi	a4,a4,-1156 # 1b7c <ModeMenuLoop>
    156c:	c398                	sw	a4,0(a5)
	m->selectedEntry = 1;
    156e:	4705                	li	a4,1
    1570:	c798                	sw	a4,8(a5)
}
    1572:	8082                	ret

00001574 <ssd1306_setbuf.constprop.0>:
	memset(ssd1306_buffer, color ? 0xFF : 0x00, sizeof(ssd1306_buffer));
    1574:	6605                	lui	a2,0x1
    1576:	20002537          	lui	a0,0x20002
    157a:	80060613          	addi	a2,a2,-2048 # 800 <_einit+0x770>
    157e:	4581                	li	a1,0
    1580:	08050513          	addi	a0,a0,128 # 20002080 <ssd1306_buffer>
    1584:	b7c1                	j	1544 <memset>

00001586 <ModePufferLoop>:

void ModePufferLoop( void * mode, uint32_t deltaTime, uint32_t * pressures, uint32_t clickedMask, uint32_t lastClickMask )
{
    1586:	1101                	addi	sp,sp,-32
    1588:	c64e                	sw	s3,12(sp)
	
	ModePuffer * m = (ModePuffer *)mode;
	uint32_t newClickedMask = (clickedMask & ( clickedMask ^ lastClickMask ) );
    158a:	fff74993          	not	s3,a4
{
    158e:	cc22                	sw	s0,24(sp)
    1590:	ca26                	sw	s1,20(sp)
    1592:	842a                	mv	s0,a0
    1594:	c84a                	sw	s2,16(sp)
    1596:	ce06                	sw	ra,28(sp)
    1598:	892e                	mv	s2,a1
	uint32_t newClickedMask = (clickedMask & ( clickedMask ^ lastClickMask ) );
    159a:	00d9f9b3          	and	s3,s3,a3
    ssd1306_setbuf(0x00); // Clear screen
    159e:	3fd9                	jal	1574 <ssd1306_setbuf.constprop.0>
	
	if(m->curPoke < m->popNum){
    15a0:	01241783          	lh	a5,18(s0)
    15a4:	01041483          	lh	s1,16(s0)
    15a8:	0897c663          	blt	a5,s1,1634 <ModePufferLoop+0xae>
		}
		//printf("%d,%d\n",m->spriteTime,deltaTime);
	}
	//printf("%d\n",deltaTime);
	
	if(newClickedMask & 2){
    15ac:	0029f793          	andi	a5,s3,2
    15b0:	e3e9                	bnez	a5,1672 <ModePufferLoop+0xec>
		//Pressed the button
		m->curPoke++;
	}
	if(newClickedMask & 4 && m->curPoke >= m->popNum){
    15b2:	0049f993          	andi	s3,s3,4
    15b6:	0c099463          	bnez	s3,167e <ModePufferLoop+0xf8>
		m->spriteTime = 0;
		m->popNum = getNewPufferPokes();
		m->displayAdd = getRandExtraPokes();
	}
	
    if(m->popNum == 0){
    15ba:	0e049d63          	bnez	s1,16b4 <ModePufferLoop+0x12e>
		ssd1306_drawstr_sz(5,0,TitleText,1,1);
    15be:	660d                	lui	a2,0x3
    15c0:	4685                	li	a3,1
    15c2:	cb860613          	addi	a2,a2,-840 # 2cb8 <__udivdi3+0x3a8>
    15c6:	4581                	li	a1,0
    15c8:	4515                	li	a0,5
    15ca:	89dff0ef          	jal	e66 <ssd1306_drawstr_sz.constprop.0>
		ssd1306_drawstr_sz(0,20,Instructions1,1,1);
    15ce:	660d                	lui	a2,0x3
    15d0:	4685                	li	a3,1
    15d2:	ccc60613          	addi	a2,a2,-820 # 2ccc <__udivdi3+0x3bc>
    15d6:	45d1                	li	a1,20
    15d8:	4501                	li	a0,0
    15da:	88dff0ef          	jal	e66 <ssd1306_drawstr_sz.constprop.0>
		ssd1306_drawstr_sz(0,32,Instructions2,1,1);
    15de:	660d                	lui	a2,0x3
    15e0:	4685                	li	a3,1
    15e2:	ce060613          	addi	a2,a2,-800 # 2ce0 <__udivdi3+0x3d0>
    15e6:	02000593          	li	a1,32
    15ea:	4501                	li	a0,0
    15ec:	87bff0ef          	jal	e66 <ssd1306_drawstr_sz.constprop.0>
		ssd1306_drawstr_sz(0,44,Instructions3,1,1);
    15f0:	660d                	lui	a2,0x3
    15f2:	4685                	li	a3,1
    15f4:	cf060613          	addi	a2,a2,-784 # 2cf0 <__udivdi3+0x3e0>
    15f8:	02c00593          	li	a1,44
    15fc:	4501                	li	a0,0
    15fe:	869ff0ef          	jal	e66 <ssd1306_drawstr_sz.constprop.0>
		ssd1306_drawstr_sz(0,73,NewGameText1,1,1);
    1602:	660d                	lui	a2,0x3
    1604:	4685                	li	a3,1
    1606:	d0460613          	addi	a2,a2,-764 # 2d04 <__udivdi3+0x3f4>
    160a:	04900593          	li	a1,73
    160e:	4501                	li	a0,0
    1610:	857ff0ef          	jal	e66 <ssd1306_drawstr_sz.constprop.0>
		ssd1306_drawstr_sz(0,85,NewGameText2,1,1);
    1614:	660d                	lui	a2,0x3
    1616:	4685                	li	a3,1
    1618:	d1060613          	addi	a2,a2,-752 # 2d10 <__udivdi3+0x400>
    161c:	05500593          	li	a1,85
	}else if(m->curPoke >= m->popNum){
		ssd1306_drawstr_sz(25,40,GameOverText,1,1);
		ssd1306_drawstr_sz(0,60,NewGameText1,1,1);
		ssd1306_drawstr_sz(0,72,NewGameText2,1,1);
    1620:	4501                	li	a0,0
    1622:	845ff0ef          	jal	e66 <ssd1306_drawstr_sz.constprop.0>
		}

	}
	
	ssd1306_refresh();
}
    1626:	4462                	lw	s0,24(sp)
    1628:	40f2                	lw	ra,28(sp)
    162a:	44d2                	lw	s1,20(sp)
    162c:	4942                	lw	s2,16(sp)
    162e:	49b2                	lw	s3,12(sp)
    1630:	6105                	addi	sp,sp,32
	ssd1306_refresh();
    1632:	be99                	j	1188 <ssd1306_refresh>
		m->spriteTime += deltaTime;
    1634:	445c                	lw	a5,12(s0)
    1636:	00f905b3          	add	a1,s2,a5
		while(m->spriteTime > TimePerTick){
    163a:	67d5                	lui	a5,0x15
		m->spriteTime += deltaTime;
    163c:	c44c                	sw	a1,12(s0)
		while(m->spriteTime > TimePerTick){
    163e:	c0878793          	addi	a5,a5,-1016 # 14c08 <firmware.c.57502c15+0x103ea>
			m->frameNum++;
    1642:	00841703          	lh	a4,8(s0)
		while(m->spriteTime > TimePerTick){
    1646:	02b7e063          	bltu	a5,a1,1666 <ModePufferLoop+0xe0>
		while(m->frameNum > TicksPerLoop){
    164a:	4755                	li	a4,21
    164c:	00841783          	lh	a5,8(s0)
    1650:	f4f77ee3          	bgeu	a4,a5,15ac <ModePufferLoop+0x26>
			m->frameNum -= TicksPerLoop;
    1654:	17ad                	addi	a5,a5,-21
    1656:	00f41423          	sh	a5,8(s0)
			m->curPoke++;
    165a:	01245783          	lhu	a5,18(s0)
    165e:	0785                	addi	a5,a5,1
    1660:	00f41923          	sh	a5,18(s0)
    1664:	b7e5                	j	164c <ModePufferLoop+0xc6>
			m->spriteTime -= TimePerTick;
    1666:	8d9d                	sub	a1,a1,a5
			m->frameNum++;
    1668:	0705                	addi	a4,a4,1
			m->spriteTime -= TimePerTick;
    166a:	c44c                	sw	a1,12(s0)
			m->frameNum++;
    166c:	00e41423          	sh	a4,8(s0)
    1670:	bfc9                	j	1642 <ModePufferLoop+0xbc>
		m->curPoke++;
    1672:	01245783          	lhu	a5,18(s0)
    1676:	0785                	addi	a5,a5,1
    1678:	00f41923          	sh	a5,18(s0)
    167c:	bf1d                	j	15b2 <ModePufferLoop+0x2c>
	if(newClickedMask & 4 && m->curPoke >= m->popNum){
    167e:	01241783          	lh	a5,18(s0)
    1682:	f297cce3          	blt	a5,s1,15ba <ModePufferLoop+0x34>
		m->curPoke = 0;
    1686:	00041923          	sh	zero,18(s0)
		m->frameNum = 0;
    168a:	00041423          	sh	zero,8(s0)
		m->spriteTime = 0;
    168e:	00042623          	sw	zero,12(s0)
    1692:	f1eff0ef          	jal	db0 <_rand_gen_32b>
	return ((rand() % 35) + 20);
    1696:	02300793          	li	a5,35
    169a:	02f574b3          	remu	s1,a0,a5
		m->popNum = getNewPufferPokes();
    169e:	04d1                	addi	s1,s1,20
    16a0:	00941823          	sh	s1,16(s0)
    16a4:	f0cff0ef          	jal	db0 <_rand_gen_32b>
	return (rand() % 5) + 10;
    16a8:	4795                	li	a5,5
    16aa:	02f57533          	remu	a0,a0,a5
    16ae:	0529                	addi	a0,a0,10
		m->displayAdd = getRandExtraPokes();
    16b0:	00a41a23          	sh	a0,20(s0)
	}else if(m->curPoke >= m->popNum){
    16b4:	01241703          	lh	a4,18(s0)
    16b8:	02974b63          	blt	a4,s1,16ee <ModePufferLoop+0x168>
		ssd1306_drawstr_sz(25,40,GameOverText,1,1);
    16bc:	660d                	lui	a2,0x3
    16be:	4685                	li	a3,1
    16c0:	d2060613          	addi	a2,a2,-736 # 2d20 <__udivdi3+0x410>
    16c4:	02800593          	li	a1,40
    16c8:	4565                	li	a0,25
    16ca:	f9cff0ef          	jal	e66 <ssd1306_drawstr_sz.constprop.0>
		ssd1306_drawstr_sz(0,60,NewGameText1,1,1);
    16ce:	660d                	lui	a2,0x3
    16d0:	4685                	li	a3,1
    16d2:	d0460613          	addi	a2,a2,-764 # 2d04 <__udivdi3+0x3f4>
    16d6:	03c00593          	li	a1,60
    16da:	4501                	li	a0,0
    16dc:	f8aff0ef          	jal	e66 <ssd1306_drawstr_sz.constprop.0>
		ssd1306_drawstr_sz(0,72,NewGameText2,1,1);
    16e0:	660d                	lui	a2,0x3
    16e2:	4685                	li	a3,1
    16e4:	d1060613          	addi	a2,a2,-752 # 2d10 <__udivdi3+0x400>
    16e8:	04800593          	li	a1,72
    16ec:	bf15                	j	1620 <ModePufferLoop+0x9a>
		int radialSteps = (m->frameNum * SinStepsPerFrame) % TicksPerLoop;
    16ee:	00841503          	lh	a0,8(s0)
    16f2:	4995                	li	s3,5
    16f4:	46d5                	li	a3,21
    16f6:	03350533          	mul	a0,a0,s3
		int sinDegrees = radialSteps * 360  / TicksPerLoop;
    16fa:	16800793          	li	a5,360
		int radialSteps = (m->frameNum * SinStepsPerFrame) % TicksPerLoop;
    16fe:	02d57533          	remu	a0,a0,a3
		int sinDegrees = radialSteps * 360  / TicksPerLoop;
    1702:	02f50533          	mul	a0,a0,a5
    1706:	02d55533          	divu	a0,a0,a3
		int cosDegrees = (sinDegrees + 90) % 360;
    170a:	05a50913          	addi	s2,a0,90
    170e:	02f96933          	rem	s2,s2,a5
		int displayedPokes = (m->curPoke + m->displayAdd)*100/m->popNum;
    1712:	01441783          	lh	a5,20(s0)
    1716:	97ba                	add	a5,a5,a4
    1718:	06400713          	li	a4,100
    171c:	02e787b3          	mul	a5,a5,a4
		if(  displayedPokes  >  90  ){
    1720:	05a00713          	li	a4,90
		int displayedPokes = (m->curPoke + m->displayAdd)*100/m->popNum;
    1724:	0297c7b3          	div	a5,a5,s1
		if(  displayedPokes  >  90  ){
    1728:	02f75963          	bge	a4,a5,175a <ModePufferLoop+0x1d4>
			RenderBSprite(&fish2, 64+24*badSin(sinDegrees)-imageOffset,64+28*badSin(cosDegrees)-imageOffset);
    172c:	ec2ff0ef          	jal	dee <badSin>
    1730:	842a                	mv	s0,a0
    1732:	854a                	mv	a0,s2
    1734:	ebaff0ef          	jal	dee <badSin>
    1738:	47f1                	li	a5,28
    173a:	02f50633          	mul	a2,a0,a5
    173e:	47e1                	li	a5,24
    1740:	20001537          	lui	a0,0x20001
    1744:	67050513          	addi	a0,a0,1648 # 20001670 <fish2>
    1748:	02f405b3          	mul	a1,s0,a5
    174c:	03460613          	addi	a2,a2,52
    1750:	03458593          	addi	a1,a1,52
			RenderBSprite(&fish0, 64-imageOffset,64-imageOffset);
    1754:	d84ff0ef          	jal	cd8 <RenderBSprite>
    1758:	b5f9                	j	1626 <ModePufferLoop+0xa0>
		}else if(  displayedPokes  >  65  ){
    175a:	04100713          	li	a4,65
    175e:	02f75663          	bge	a4,a5,178a <ModePufferLoop+0x204>
			RenderBSprite(&fish1, 64+17*badSin(sinDegrees)-imageOffset,64+17*badSin(cosDegrees)-imageOffset);
    1762:	e8cff0ef          	jal	dee <badSin>
    1766:	842a                	mv	s0,a0
    1768:	854a                	mv	a0,s2
    176a:	e84ff0ef          	jal	dee <badSin>
    176e:	47c5                	li	a5,17
    1770:	02f50633          	mul	a2,a0,a5
    1774:	20001537          	lui	a0,0x20001
    1778:	3ac50513          	addi	a0,a0,940 # 200013ac <fish1>
    177c:	02f405b3          	mul	a1,s0,a5
    1780:	03460613          	addi	a2,a2,52
    1784:	03458593          	addi	a1,a1,52
    1788:	b7f1                	j	1754 <ModePufferLoop+0x1ce>
		}else if(  displayedPokes  >  30  ){
    178a:	4779                	li	a4,30
    178c:	02f75363          	bge	a4,a5,17b2 <ModePufferLoop+0x22c>
			RenderBSprite(&fish0, 64+5*badSin(sinDegrees)-imageOffset,64+5*badSin(cosDegrees)-imageOffset);
    1790:	e5eff0ef          	jal	dee <badSin>
    1794:	842a                	mv	s0,a0
    1796:	854a                	mv	a0,s2
    1798:	e56ff0ef          	jal	dee <badSin>
    179c:	03350633          	mul	a2,a0,s3
    17a0:	033405b3          	mul	a1,s0,s3
    17a4:	03460613          	addi	a2,a2,52
    17a8:	03458593          	addi	a1,a1,52
			RenderBSprite(&fish0, 64-imageOffset,64-imageOffset);
    17ac:	41c18513          	addi	a0,gp,1052 # 200011c8 <fish0>
    17b0:	b755                	j	1754 <ModePufferLoop+0x1ce>
    17b2:	03400613          	li	a2,52
    17b6:	85b2                	mv	a1,a2
    17b8:	bfd5                	j	17ac <ModePufferLoop+0x226>

000017ba <ModeShutLoop>:
	ModeShut *m = (ModeShut*) game;
	//Include this in modes to handle incoming traffic from the internet
}

void ModeShutLoop( void * mode, uint32_t deltaTime, uint32_t * pressures, uint32_t clickedMask, uint32_t lastClickMask )
{
    17ba:	7135                	addi	sp,sp,-160
    17bc:	cd22                	sw	s0,152(sp)
    17be:	cb26                	sw	s1,148(sp)
    17c0:	842a                	mv	s0,a0
	ModeShut * m = (ModeShut *)mode;
	uint32_t newClickedMask = (clickedMask & ( clickedMask ^ lastClickMask ) );
    17c2:	fff74493          	not	s1,a4
{
    17c6:	c94a                	sw	s2,144(sp)
    17c8:	c74e                	sw	s3,140(sp)
	uint32_t newClickedMask = (clickedMask & ( clickedMask ^ lastClickMask ) );
    17ca:	8cf5                	and	s1,s1,a3
{
    17cc:	cf06                	sw	ra,156(sp)
    17ce:	c552                	sw	s4,136(sp)
    17d0:	c356                	sw	s5,132(sp)
    17d2:	c15a                	sw	s6,128(sp)
    17d4:	892e                	mv	s2,a1
    ssd1306_setbuf(0x00); // Clear screen
    17d6:	3b79                	jal	1574 <ssd1306_setbuf.constprop.0>
	char t[128];//Allows us to dynamically draw text

	switch (m->gameState)
    17d8:	03c42983          	lw	s3,60(s0)
    17dc:	4685                	li	a3,1
    17de:	1cd98163          	beq	s3,a3,19a0 <ModeShutLoop+0x1e6>
    17e2:	4789                	li	a5,2
    17e4:	24f98463          	beq	s3,a5,1a2c <ModeShutLoop+0x272>
    17e8:	12099a63          	bnez	s3,191c <ModeShutLoop+0x162>
	{
		case 0: //playing the game
			if(newClickedMask & 1){//Left
    17ec:	00d4f7b3          	and	a5,s1,a3
    17f0:	cf89                	beqz	a5,180a <ModeShutLoop+0x50>
    17f2:	5c1c                	lw	a5,56(s0)
				do{
					m->selected = (m->selected + 9) % 10;
    17f4:	46a9                	li	a3,10
    17f6:	07a5                	addi	a5,a5,9
    17f8:	02d7e7b3          	rem	a5,a5,a3
				}while(m->shutters[m->selected]!=0);
    17fc:	00478713          	addi	a4,a5,4
    1800:	070a                	slli	a4,a4,0x2
    1802:	9722                	add	a4,a4,s0
    1804:	4318                	lw	a4,0(a4)
    1806:	fb65                	bnez	a4,17f6 <ModeShutLoop+0x3c>
    1808:	dc1c                	sw	a5,56(s0)
			}
			if(newClickedMask & 4){//Right
    180a:	0044f793          	andi	a5,s1,4
    180e:	cf89                	beqz	a5,1828 <ModeShutLoop+0x6e>
    1810:	5c1c                	lw	a5,56(s0)
				do{
					m->selected = (m->selected + 1) % 10;
    1812:	46a9                	li	a3,10
    1814:	0785                	addi	a5,a5,1
    1816:	02d7e7b3          	rem	a5,a5,a3
				}while(m->shutters[m->selected]!=0);
    181a:	00478713          	addi	a4,a5,4
    181e:	070a                	slli	a4,a4,0x2
    1820:	9722                	add	a4,a4,s0
    1822:	4318                	lw	a4,0(a4)
    1824:	fb65                	bnez	a4,1814 <ModeShutLoop+0x5a>
    1826:	dc1c                	sw	a5,56(s0)
			}
			if(newClickedMask & 2){//Center, aka shutting
    1828:	0024f793          	andi	a5,s1,2
    182c:	01040493          	addi	s1,s0,16
    1830:	cba5                	beqz	a5,18a0 <ModeShutLoop+0xe6>
				if(m->remainingRoll >= (m->selected+1)){//if selected is 0 we're actually shutting the 1 spot
    1832:	5c1c                	lw	a5,56(s0)
    1834:	4454                	lw	a3,12(s0)
    1836:	00d7de63          	bge	a5,a3,1852 <ModeShutLoop+0x98>
					m->shutters[m->selected] = 1;
    183a:	00478713          	addi	a4,a5,4
    183e:	070a                	slli	a4,a4,0x2
    1840:	9722                	add	a4,a4,s0
    1842:	4605                	li	a2,1
    1844:	c310                	sw	a2,0(a4)
					m->score += m->selected + 1;
    1846:	4418                	lw	a4,8(s0)
    1848:	97b2                	add	a5,a5,a2
					m->remainingRoll -= m->selected + 1;
    184a:	8e9d                	sub	a3,a3,a5
					m->score += m->selected + 1;
    184c:	973e                	add	a4,a4,a5
    184e:	c418                	sw	a4,8(s0)
					m->remainingRoll -= m->selected + 1;
    1850:	c454                	sw	a3,12(s0)
	for(int i=0; i<10; i++){
    1852:	8926                	mv	s2,s1
    1854:	03840713          	addi	a4,s0,56
{
    1858:	87a6                	mv	a5,s1
		if(m->shutters[i] == 0){
    185a:	4394                	lw	a3,0(a5)
    185c:	30068663          	beqz	a3,1b68 <ModeShutLoop+0x3ae>
	for(int i=0; i<10; i++){
    1860:	0791                	addi	a5,a5,4
    1862:	fef71ce3          	bne	a4,a5,185a <ModeShutLoop+0xa0>
					m->shutters[m->selected] = 1;
				}

				//Check if that won the game
				if(victoryAchieved(m)){
					memset(m->shutters, 0, sizeof(int)*10);
    1866:	02800613          	li	a2,40
    186a:	4581                	li	a1,0
    186c:	8526                	mv	a0,s1
    186e:	39d9                	jal	1544 <memset>
					m->remainingRoll = rollDice();
    1870:	da2ff0ef          	jal	e12 <rollDice>
					m->selected = 0;
					m->gameState = 2;
    1874:	4789                	li	a5,2
					m->remainingRoll = rollDice();
    1876:	c448                	sw	a0,12(s0)
					m->selected = 0;
    1878:	02042c23          	sw	zero,56(s0)
					m->gameState = 2;
    187c:	dc5c                	sw	a5,60(s0)
	for(int i=0; i<m->remainingRoll; i++){
    187e:	acd5                	j	1b72 <ModeShutLoop+0x3b8>
		if(m->shutters[i] == 0){
    1880:	00092783          	lw	a5,0(s2)
    1884:	0911                	addi	s2,s2,4
    1886:	e7dd                	bnez	a5,1934 <ModeShutLoop+0x17a>
					m->remainingRoll = rollDice();
				}

				//Check if we just lost the game
				if(legalMoveLeft(m)){
					while(m->shutters[m->selected]==1){
    1888:	4685                	li	a3,1
						m->selected = (m->selected + 1)%10;
    188a:	4629                	li	a2,10
					while(m->shutters[m->selected]==1){
    188c:	5c1c                	lw	a5,56(s0)
    188e:	00478713          	addi	a4,a5,4
    1892:	070a                	slli	a4,a4,0x2
    1894:	9722                	add	a4,a4,s0
    1896:	4318                	lw	a4,0(a4)
    1898:	0ad70063          	beq	a4,a3,1938 <ModeShutLoop+0x17e>
					m->gameState = 1;
				}
			}

			//draw screen
			if(m->gameState != 0){break;}//Cancels out a flash frame of drawing the empty board before the box on hardware
    189c:	5c5c                	lw	a5,60(s0)
    189e:	efbd                	bnez	a5,191c <ModeShutLoop+0x162>
{
    18a0:	4919                	li	s2,6
    18a2:	4a01                	li	s4,0
			for(int x=0; x<5; x++){
				for(int y=0; y<2; y++){
					if(m->shutters[x+y*5]==0){
						ssd1306_drawRect(x*(shutterWidth+shutterOffset)+3, 30+y*(openShutterHeight+shutterOffset), shutterWidth, openShutterHeight, 1);

						sprintf(t, "%d", x + (y*5) + 1);
    18a4:	6b0d                	lui	s6,0x3
					if(m->shutters[x+y*5]==0){
    18a6:	409c                	lw	a5,0(s1)
    18a8:	89d2                	mv	s3,s4
							(x==4&&y==1)?x*(shutterWidth+shutterOffset)+6:x*(shutterWidth+shutterOffset)+11,
							y*(openShutterHeight+shutterOffset)+35,
							t,1,1);
					}else{
						if(m->shutters[x+y*5]){//This box is shut
							ssd1306_drawRect(x*(shutterWidth+shutterOffset)+3, 30+(openShutterHeight-closedShutterHeight)+y*(closedShutterHeight+shutterOffset) , shutterWidth, closedShutterHeight, 1);
    18aa:	ffd90a93          	addi	s5,s2,-3
    18ae:	0a05                	addi	s4,s4,1
					if(m->shutters[x+y*5]==0){
    18b0:	cbc9                	beqz	a5,1942 <ModeShutLoop+0x188>
							ssd1306_drawRect(x*(shutterWidth+shutterOffset)+3, 30+(openShutterHeight-closedShutterHeight)+y*(closedShutterHeight+shutterOffset) , shutterWidth, closedShutterHeight, 1);
    18b2:	4659                	li	a2,22
    18b4:	03500593          	li	a1,53
    18b8:	8556                	mv	a0,s5
    18ba:	f14ff0ef          	jal	fce <ssd1306_drawRect.constprop.0>
					}
					
			
					

					if(m->selected == (x + y*5)){
    18be:	5c1c                	lw	a5,56(s0)
    18c0:	00f99963          	bne	s3,a5,18d2 <ModeShutLoop+0x118>
						RenderBSprite(&finger, x*(shutterWidth+shutterOffset) + 6,
    18c4:	02900613          	li	a2,41
    18c8:	85ca                	mv	a1,s2
    18ca:	39418513          	addi	a0,gp,916 # 20001140 <finger>
    18ce:	c0aff0ef          	jal	cd8 <RenderBSprite>
					if(m->shutters[x+y*5]==0){
    18d2:	48dc                	lw	a5,20(s1)
    18d4:	cbd9                	beqz	a5,196a <ModeShutLoop+0x1b0>
							ssd1306_drawRect(x*(shutterWidth+shutterOffset)+3, 30+(openShutterHeight-closedShutterHeight)+y*(closedShutterHeight+shutterOffset) , shutterWidth, closedShutterHeight, 1);
    18d6:	4659                	li	a2,22
    18d8:	04e00593          	li	a1,78
    18dc:	8556                	mv	a0,s5
    18de:	ef0ff0ef          	jal	fce <ssd1306_drawRect.constprop.0>
					if(m->selected == (x + y*5)){
    18e2:	5c1c                	lw	a5,56(s0)
    18e4:	0995                	addi	s3,s3,5
    18e6:	00f99963          	bne	s3,a5,18f8 <ModeShutLoop+0x13e>
						RenderBSprite(&finger, x*(shutterWidth+shutterOffset) + 6,
    18ea:	05900613          	li	a2,89
    18ee:	85ca                	mv	a1,s2
    18f0:	39418513          	addi	a0,gp,916 # 20001140 <finger>
    18f4:	be4ff0ef          	jal	cd8 <RenderBSprite>
			for(int x=0; x<5; x++){
    18f8:	4795                	li	a5,5
    18fa:	0491                	addi	s1,s1,4
    18fc:	0965                	addi	s2,s2,25
    18fe:	fafa14e3          	bne	s4,a5,18a6 <ModeShutLoop+0xec>
							y*(openShutterHeight+shutterOffset)+41);
					}
				}
			}
			sprintf(t, "%d", m->remainingRoll);
    1902:	4450                	lw	a2,12(s0)
    1904:	658d                	lui	a1,0x3
    1906:	dc458593          	addi	a1,a1,-572 # 2dc4 <__udivdi3+0x4b4>
    190a:	850a                	mv	a0,sp
    190c:	3911                	jal	1520 <sprintf>
			ssd1306_drawstr_sz(40,5,t,1,2);
    190e:	4689                	li	a3,2
    1910:	860a                	mv	a2,sp
    1912:	85d2                	mv	a1,s4
    1914:	02800513          	li	a0,40
    1918:	d4eff0ef          	jal	e66 <ssd1306_drawstr_sz.constprop.0>
			}
			
			break;
	}
	
	ssd1306_refresh();
    191c:	86dff0ef          	jal	1188 <ssd1306_refresh>
}
    1920:	40fa                	lw	ra,156(sp)
    1922:	446a                	lw	s0,152(sp)
    1924:	44da                	lw	s1,148(sp)
    1926:	494a                	lw	s2,144(sp)
    1928:	49ba                	lw	s3,140(sp)
    192a:	4a2a                	lw	s4,136(sp)
    192c:	4a9a                	lw	s5,132(sp)
    192e:	4b0a                	lw	s6,128(sp)
    1930:	610d                	addi	sp,sp,160
    1932:	8082                	ret
	for(int i=0; i<m->remainingRoll; i++){
    1934:	0985                	addi	s3,s3,1
    1936:	ac35                	j	1b72 <ModeShutLoop+0x3b8>
						m->selected = (m->selected + 1)%10;
    1938:	0785                	addi	a5,a5,1
    193a:	02c7e7b3          	rem	a5,a5,a2
    193e:	dc1c                	sw	a5,56(s0)
    1940:	b7b1                	j	188c <ModeShutLoop+0xd2>
						ssd1306_drawRect(x*(shutterWidth+shutterOffset)+3, 30+y*(openShutterHeight+shutterOffset), shutterWidth, openShutterHeight, 1);
    1942:	8556                	mv	a0,s5
    1944:	02d00613          	li	a2,45
    1948:	45f9                	li	a1,30
    194a:	e84ff0ef          	jal	fce <ssd1306_drawRect.constprop.0>
						sprintf(t, "%d", x + (y*5) + 1);
    194e:	8652                	mv	a2,s4
    1950:	dc4b0593          	addi	a1,s6,-572 # 2dc4 <__udivdi3+0x4b4>
    1954:	850a                	mv	a0,sp
    1956:	36e9                	jal	1520 <sprintf>
						ssd1306_drawstr_sz(
    1958:	4685                	li	a3,1
    195a:	860a                	mv	a2,sp
    195c:	02300593          	li	a1,35
    1960:	00590513          	addi	a0,s2,5
    1964:	d02ff0ef          	jal	e66 <ssd1306_drawstr_sz.constprop.0>
    1968:	bf99                	j	18be <ModeShutLoop+0x104>
						ssd1306_drawRect(x*(shutterWidth+shutterOffset)+3, 30+y*(openShutterHeight+shutterOffset), shutterWidth, openShutterHeight, 1);
    196a:	02d00613          	li	a2,45
    196e:	04e00593          	li	a1,78
    1972:	8556                	mv	a0,s5
    1974:	e5aff0ef          	jal	fce <ssd1306_drawRect.constprop.0>
						sprintf(t, "%d", x + (y*5) + 1);
    1978:	00698613          	addi	a2,s3,6
    197c:	dc4b0593          	addi	a1,s6,-572
    1980:	850a                	mv	a0,sp
    1982:	3e79                	jal	1520 <sprintf>
						ssd1306_drawstr_sz(
    1984:	4791                	li	a5,4
    1986:	00590513          	addi	a0,s2,5
    198a:	00f99463          	bne	s3,a5,1992 <ModeShutLoop+0x1d8>
    198e:	06a00513          	li	a0,106
    1992:	4685                	li	a3,1
    1994:	860a                	mv	a2,sp
    1996:	05300593          	li	a1,83
    199a:	cccff0ef          	jal	e66 <ssd1306_drawstr_sz.constprop.0>
    199e:	b791                	j	18e2 <ModeShutLoop+0x128>
			ssd1306_drawstr_sz(24,10,deathText1,1,1);
    19a0:	660d                	lui	a2,0x3
    19a2:	86ce                	mv	a3,s3
    19a4:	d2060613          	addi	a2,a2,-736 # 2d20 <__udivdi3+0x410>
    19a8:	45a9                	li	a1,10
    19aa:	4561                	li	a0,24
    19ac:	cbaff0ef          	jal	e66 <ssd1306_drawstr_sz.constprop.0>
			ssd1306_drawstr_sz(20,22,deathText2,1,1);
    19b0:	660d                	lui	a2,0x3
    19b2:	86ce                	mv	a3,s3
    19b4:	d2c60613          	addi	a2,a2,-724 # 2d2c <__udivdi3+0x41c>
    19b8:	45d9                	li	a1,22
    19ba:	4551                	li	a0,20
    19bc:	caaff0ef          	jal	e66 <ssd1306_drawstr_sz.constprop.0>
			sprintf(t,"%3d",m->score);
    19c0:	4410                	lw	a2,8(s0)
    19c2:	658d                	lui	a1,0x3
    19c4:	d3858593          	addi	a1,a1,-712 # 2d38 <__udivdi3+0x428>
    19c8:	850a                	mv	a0,sp
    19ca:	3e99                	jal	1520 <sprintf>
			ssd1306_drawstr_sz(30,48,t,1,3);
    19cc:	468d                	li	a3,3
    19ce:	860a                	mv	a2,sp
    19d0:	03000593          	li	a1,48
    19d4:	4579                	li	a0,30
    19d6:	c90ff0ef          	jal	e66 <ssd1306_drawstr_sz.constprop.0>
			ssd1306_drawstr_sz(17,90,deathText3,1,1);
    19da:	660d                	lui	a2,0x3
    19dc:	86ce                	mv	a3,s3
    19de:	d3c60613          	addi	a2,a2,-708 # 2d3c <__udivdi3+0x42c>
    19e2:	05a00593          	li	a1,90
    19e6:	4545                	li	a0,17
    19e8:	c7eff0ef          	jal	e66 <ssd1306_drawstr_sz.constprop.0>
			ssd1306_drawstr_sz(24,102,deathText4,1,1);
    19ec:	660d                	lui	a2,0x3
    19ee:	86ce                	mv	a3,s3
    19f0:	d4c60613          	addi	a2,a2,-692 # 2d4c <__udivdi3+0x43c>
    19f4:	06600593          	li	a1,102
    19f8:	4561                	li	a0,24
    19fa:	c6cff0ef          	jal	e66 <ssd1306_drawstr_sz.constprop.0>
			if(newClickedMask & 4){//Right
    19fe:	0044f793          	andi	a5,s1,4
    1a02:	c385                	beqz	a5,1a22 <ModeShutLoop+0x268>
				memset(m->shutters, 0, sizeof(int)*10);
    1a04:	02800613          	li	a2,40
    1a08:	4581                	li	a1,0
				m->gameState = 0;
    1a0a:	02042e23          	sw	zero,60(s0)
				memset(m->shutters, 0, sizeof(int)*10);
    1a0e:	01040513          	addi	a0,s0,16
    1a12:	3e0d                	jal	1544 <memset>
				m->remainingRoll = rollDice();
    1a14:	bfeff0ef          	jal	e12 <rollDice>
    1a18:	c448                	sw	a0,12(s0)
				m->selected = 0;
    1a1a:	02042c23          	sw	zero,56(s0)
				m->score=0;
    1a1e:	00042423          	sw	zero,8(s0)
			}if(newClickedMask & 1){
    1a22:	8885                	andi	s1,s1,1
    1a24:	ee048ce3          	beqz	s1,191c <ModeShutLoop+0x162>
{
	switch(modeNumber)
	{
		case 0:
		default:
			EnterMenuMode( &gameUnion.menu );
    1a28:	363d                	jal	1556 <EnterMenuMode.constprop.0>
			break;
		case 4:
			EnterShutMode( &gameUnion.shut);
			break;
	}
}
    1a2a:	bdcd                	j	191c <ModeShutLoop+0x162>
			if(m->animTimer <= (boxMovingTime+boxStaticTime)){
    1a2c:	407c                	lw	a5,68(s0)
    1a2e:	04042983          	lw	s3,64(s0)
    1a32:	660d                	lui	a2,0x3
    1a34:	6a8d                	lui	s5,0x3
    1a36:	20001a37          	lui	s4,0x20001
    1a3a:	e7e1                	bnez	a5,1b02 <ModeShutLoop+0x348>
    1a3c:	001407b7          	lui	a5,0x140
    1a40:	d3078793          	addi	a5,a5,-720 # 13fd30 <firmware.c.57502c15+0x13b512>
    1a44:	0b37ef63          	bltu	a5,s3,1b02 <ModeShutLoop+0x348>
				m->animTimer += deltaTime;
    1a48:	99ca                	add	s3,s3,s2
    1a4a:	0129b933          	sltu	s2,s3,s2
    1a4e:	05342023          	sw	s3,64(s0)
    1a52:	05242223          	sw	s2,68(s0)
			if(m->animTimer < boxStaticTime){
    1a56:	0a091663          	bnez	s2,1b02 <ModeShutLoop+0x348>
    1a5a:	67bd                	lui	a5,0xf
    1a5c:	a5f78793          	addi	a5,a5,-1441 # ea5f <firmware.c.57502c15+0xa241>
    1a60:	0537e263          	bltu	a5,s3,1aa4 <ModeShutLoop+0x2ea>
				ssd1306_drawstr_sz(24,3,winText1,1,1);
    1a64:	d5860613          	addi	a2,a2,-680 # 2d58 <__udivdi3+0x448>
    1a68:	458d                	li	a1,3
    1a6a:	4561                	li	a0,24
    1a6c:	bfaff0ef          	jal	e66 <ssd1306_drawstr_sz.constprop.0>
				ssd1306_drawstr_sz(44,15,winText1_2,1,1);
    1a70:	d64a8613          	addi	a2,s5,-668 # 2d64 <__udivdi3+0x454>
    1a74:	4685                	li	a3,1
    1a76:	45bd                	li	a1,15
    1a78:	02c00513          	li	a0,44
    1a7c:	beaff0ef          	jal	e66 <ssd1306_drawstr_sz.constprop.0>
				RenderBSprite(&closed_box, 0, 16+openShutterHeight-closedShutterHeight);
    1a80:	02700613          	li	a2,39
				RenderBSprite(&closed_box, 0, 16+openShutterHeight-closedShutterHeight+boxMovePixels);
    1a84:	4581                	li	a1,0
    1a86:	9bca0513          	addi	a0,s4,-1604 # 200009bc <closed_box>
    1a8a:	a4eff0ef          	jal	cd8 <RenderBSprite>
			if(newClickedMask&2){//Any button to continue
    1a8e:	0024f793          	andi	a5,s1,2
    1a92:	c7e1                	beqz	a5,1b5a <ModeShutLoop+0x3a0>
				m->animTimer = 0;
    1a94:	4781                	li	a5,0
    1a96:	4801                	li	a6,0
				m->gameState = 0;
    1a98:	02042e23          	sw	zero,60(s0)
				m->animTimer = 0;
    1a9c:	c03c                	sw	a5,64(s0)
    1a9e:	05042223          	sw	a6,68(s0)
    1aa2:	bdad                	j	191c <ModeShutLoop+0x162>
			}else if(m->animTimer < (boxStaticTime + boxMovingTime)){
    1aa4:	001407b7          	lui	a5,0x140
    1aa8:	d2f78793          	addi	a5,a5,-721 # 13fd2f <firmware.c.57502c15+0x13b511>
    1aac:	0537eb63          	bltu	a5,s3,1b02 <ModeShutLoop+0x348>
				ssd1306_drawstr_sz(24,3,winText1,1,1);
    1ab0:	d5860613          	addi	a2,a2,-680
    1ab4:	458d                	li	a1,3
    1ab6:	4561                	li	a0,24
    1ab8:	baeff0ef          	jal	e66 <ssd1306_drawstr_sz.constprop.0>
				ssd1306_drawstr_sz(44,15,winText1_2,1,1);
    1abc:	4685                	li	a3,1
    1abe:	d64a8613          	addi	a2,s5,-668
    1ac2:	45bd                	li	a1,15
    1ac4:	02c00513          	li	a0,44
    1ac8:	b9eff0ef          	jal	e66 <ssd1306_drawstr_sz.constprop.0>
				int movePix = boxMovePixels * (m->animTimer-boxStaticTime) / boxMovingTime;
    1acc:	47ed                	li	a5,27
    1ace:	02f985b3          	mul	a1,s3,a5
    1ad2:	ffe74537          	lui	a0,0xffe74
    1ad6:	7e050513          	addi	a0,a0,2016 # ffe747e0 <_eusrstack+0xdfe717e0>
    1ada:	00131637          	lui	a2,0x131
    1ade:	2d060613          	addi	a2,a2,720 # 1312d0 <firmware.c.57502c15+0x12cab2>
    1ae2:	4681                	li	a3,0
    1ae4:	02f90933          	mul	s2,s2,a5
    1ae8:	952e                	add	a0,a0,a1
    1aea:	00b535b3          	sltu	a1,a0,a1
    1aee:	02f9b9b3          	mulhu	s3,s3,a5
    1af2:	994e                	add	s2,s2,s3
    1af4:	197d                	addi	s2,s2,-1
    1af6:	95ca                	add	a1,a1,s2
    1af8:	619000ef          	jal	2910 <__udivdi3>
				RenderBSprite(&closed_box, 0, 16+openShutterHeight-closedShutterHeight+movePix);
    1afc:	02750613          	addi	a2,a0,39
    1b00:	b751                	j	1a84 <ModeShutLoop+0x2ca>
				ssd1306_drawstr_sz(24,3,winText1,1,1);
    1b02:	4685                	li	a3,1
    1b04:	d5860613          	addi	a2,a2,-680
    1b08:	458d                	li	a1,3
    1b0a:	4561                	li	a0,24
    1b0c:	b5aff0ef          	jal	e66 <ssd1306_drawstr_sz.constprop.0>
				ssd1306_drawstr_sz(44,15,winText1_2,1,1);
    1b10:	4685                	li	a3,1
    1b12:	d64a8613          	addi	a2,s5,-668
    1b16:	45bd                	li	a1,15
    1b18:	02c00513          	li	a0,44
    1b1c:	b4aff0ef          	jal	e66 <ssd1306_drawstr_sz.constprop.0>
				ssd1306_drawstr_sz(3,28,deathText3,1,1);
    1b20:	660d                	lui	a2,0x3
    1b22:	4685                	li	a3,1
    1b24:	d3c60613          	addi	a2,a2,-708 # 2d3c <__udivdi3+0x42c>
    1b28:	45f1                	li	a1,28
    1b2a:	450d                	li	a0,3
    1b2c:	b3aff0ef          	jal	e66 <ssd1306_drawstr_sz.constprop.0>
				ssd1306_drawstr_sz(3,40,deathText4,1,1);
    1b30:	660d                	lui	a2,0x3
    1b32:	4685                	li	a3,1
    1b34:	d4c60613          	addi	a2,a2,-692 # 2d4c <__udivdi3+0x43c>
    1b38:	02800593          	li	a1,40
    1b3c:	450d                	li	a0,3
    1b3e:	b28ff0ef          	jal	e66 <ssd1306_drawstr_sz.constprop.0>
				ssd1306_drawstr_sz(3,52,winText2,1,1);
    1b42:	660d                	lui	a2,0x3
    1b44:	d7060613          	addi	a2,a2,-656 # 2d70 <__udivdi3+0x460>
    1b48:	4685                	li	a3,1
    1b4a:	03400593          	li	a1,52
    1b4e:	450d                	li	a0,3
    1b50:	b16ff0ef          	jal	e66 <ssd1306_drawstr_sz.constprop.0>
				RenderBSprite(&closed_box, 0, 16+openShutterHeight-closedShutterHeight+boxMovePixels);
    1b54:	04200613          	li	a2,66
    1b58:	b735                	j	1a84 <ModeShutLoop+0x2ca>
			}else if(newClickedMask&4){
    1b5a:	0044f793          	andi	a5,s1,4
    1b5e:	ec0782e3          	beqz	a5,1a22 <ModeShutLoop+0x268>
				m->score = 0;
    1b62:	00042423          	sw	zero,8(s0)
    1b66:	b73d                	j	1a94 <ModeShutLoop+0x2da>
				if(m->remainingRoll == 0){
    1b68:	4448                	lw	a0,12(s0)
    1b6a:	e501                	bnez	a0,1b72 <ModeShutLoop+0x3b8>
					m->remainingRoll = rollDice();
    1b6c:	aa6ff0ef          	jal	e12 <rollDice>
    1b70:	c448                	sw	a0,12(s0)
	for(int i=0; i<m->remainingRoll; i++){
    1b72:	d0a9c7e3          	blt	s3,a0,1880 <ModeShutLoop+0xc6>
					m->gameState = 1;
    1b76:	4785                	li	a5,1
    1b78:	dc5c                	sw	a5,60(s0)
			if(m->gameState != 0){break;}//Cancels out a flash frame of drawing the empty board before the box on hardware
    1b7a:	b34d                	j	191c <ModeShutLoop+0x162>

00001b7c <ModeMenuLoop>:
{
    1b7c:	7135                	addi	sp,sp,-160
    1b7e:	cd22                	sw	s0,152(sp)
    1b80:	843a                	mv	s0,a4
    1b82:	c94a                	sw	s2,144(sp)
    1b84:	c74e                	sw	s3,140(sp)
    1b86:	8936                	mv	s2,a3
	uint32_t newClickedMask = (clickedMask & ( clickedMask ^ lastClickMask ) );
    1b88:	fff44413          	not	s0,s0
    1b8c:	698d                	lui	s3,0x3
{
    1b8e:	cb26                	sw	s1,148(sp)
    1b90:	c552                	sw	s4,136(sp)
    1b92:	c356                	sw	s5,132(sp)
    1b94:	c15a                	sw	s6,128(sp)
    1b96:	cf06                	sw	ra,156(sp)
    1b98:	84aa                	mv	s1,a0
	uint32_t newClickedMask = (clickedMask & ( clickedMask ^ lastClickMask ) );
    1b9a:	01247433          	and	s0,s0,s2
	ssd1306_setbuf(0x00); // Clear screen
    1b9e:	9d7ff0ef          	jal	1574 <ssd1306_setbuf.constprop.0>
	for( i = 1; i < sizeof(gameModes)/sizeof(gameModes[0]); i++ )
    1ba2:	6d098993          	addi	s3,s3,1744 # 36d0 <gameModes>
    1ba6:	4905                	li	s2,1
		sprintf( st, "%c%s", m->selectedEntry == i ? '>':' ', gameModes[i] );
    1ba8:	6b0d                	lui	s6,0x3
		ssd1306_drawstr_sz(0, 20*(i-1), st, 1, 2 );
    1baa:	4ad1                	li	s5,20
	for( i = 1; i < sizeof(gameModes)/sizeof(gameModes[0]); i++ )
    1bac:	4a15                	li	s4,5
		sprintf( st, "%c%s", m->selectedEntry == i ? '>':' ', gameModes[i] );
    1bae:	449c                	lw	a5,8(s1)
    1bb0:	02000613          	li	a2,32
    1bb4:	01279463          	bne	a5,s2,1bbc <ModeMenuLoop+0x40>
    1bb8:	03e00613          	li	a2,62
    1bbc:	0049a683          	lw	a3,4(s3)
    1bc0:	d80b0593          	addi	a1,s6,-640 # 2d80 <__udivdi3+0x470>
    1bc4:	850a                	mv	a0,sp
    1bc6:	95bff0ef          	jal	1520 <sprintf>
		ssd1306_drawstr_sz(0, 20*(i-1), st, 1, 2 );
    1bca:	035905b3          	mul	a1,s2,s5
    1bce:	4689                	li	a3,2
    1bd0:	860a                	mv	a2,sp
    1bd2:	4501                	li	a0,0
	for( i = 1; i < sizeof(gameModes)/sizeof(gameModes[0]); i++ )
    1bd4:	0905                	addi	s2,s2,1
    1bd6:	0991                	addi	s3,s3,4
		ssd1306_drawstr_sz(0, 20*(i-1), st, 1, 2 );
    1bd8:	15b1                	addi	a1,a1,-20
    1bda:	a8cff0ef          	jal	e66 <ssd1306_drawstr_sz.constprop.0>
	for( i = 1; i < sizeof(gameModes)/sizeof(gameModes[0]); i++ )
    1bde:	fd4918e3          	bne	s2,s4,1bae <ModeMenuLoop+0x32>
	if( newClickedMask & 1 )
    1be2:	00147713          	andi	a4,s0,1
	int ent = m->selectedEntry;
    1be6:	449c                	lw	a5,8(s1)
	if( newClickedMask & 1 )
    1be8:	c709                	beqz	a4,1bf2 <ModeMenuLoop+0x76>
		ent--;
    1bea:	17fd                	addi	a5,a5,-1
		if( ent < 1 ) ent = 1;
    1bec:	00f04363          	bgtz	a5,1bf2 <ModeMenuLoop+0x76>
    1bf0:	4785                	li	a5,1
	if( newClickedMask & 4 )
    1bf2:	00447713          	andi	a4,s0,4
    1bf6:	c711                	beqz	a4,1c02 <ModeMenuLoop+0x86>
		ent++;
    1bf8:	0785                	addi	a5,a5,1
		if( ent >= sizeof(gameModes)/sizeof(gameModes[0]) ) ent = sizeof(gameModes)/sizeof(gameModes[0])-1;
    1bfa:	4711                	li	a4,4
    1bfc:	00f77363          	bgeu	a4,a5,1c02 <ModeMenuLoop+0x86>
    1c00:	87ba                	mv	a5,a4
	m->selectedEntry = ent;
    1c02:	c49c                	sw	a5,8(s1)
	if( newClickedMask & 2 )
    1c04:	8809                	andi	s0,s0,2
    1c06:	cc11                	beqz	s0,1c22 <ModeMenuLoop+0xa6>
	switch(modeNumber)
    1c08:	470d                	li	a4,3
    1c0a:	14e78863          	beq	a5,a4,1d5a <ModeMenuLoop+0x1de>
    1c0e:	02f74563          	blt	a4,a5,1c38 <ModeMenuLoop+0xbc>
    1c12:	4705                	li	a4,1
    1c14:	08e78263          	beq	a5,a4,1c98 <ModeMenuLoop+0x11c>
    1c18:	4709                	li	a4,2
    1c1a:	0ae78463          	beq	a5,a4,1cc2 <ModeMenuLoop+0x146>
			EnterMenuMode( &gameUnion.menu );
    1c1e:	939ff0ef          	jal	1556 <EnterMenuMode.constprop.0>
}
    1c22:	446a                	lw	s0,152(sp)
    1c24:	40fa                	lw	ra,156(sp)
    1c26:	44da                	lw	s1,148(sp)
    1c28:	494a                	lw	s2,144(sp)
    1c2a:	49ba                	lw	s3,140(sp)
    1c2c:	4a2a                	lw	s4,136(sp)
    1c2e:	4a9a                	lw	s5,132(sp)
    1c30:	4b0a                	lw	s6,128(sp)
    1c32:	610d                	addi	sp,sp,160
	ssd1306_refresh();
    1c34:	d54ff06f          	j	1188 <ssd1306_refresh>
	switch(modeNumber)
    1c38:	4711                	li	a4,4
    1c3a:	fee792e3          	bne	a5,a4,1c1e <ModeMenuLoop+0xa2>


void EnterShutMode( ModeShut * m )
{
	memset( m, 0, sizeof(*m) );
    1c3e:	20002537          	lui	a0,0x20002
    1c42:	04000613          	li	a2,64
    1c46:	4581                	li	a1,0
    1c48:	c0050513          	addi	a0,a0,-1024 # 20001c00 <gameUnion+0x8>
    1c4c:	8f9ff0ef          	jal	1544 <memset>
	m->Update = ModeShutLoop;
    1c50:	20002437          	lui	s0,0x20002
    1c54:	6785                	lui	a5,0x1
    1c56:	bf840413          	addi	s0,s0,-1032 # 20001bf8 <gameUnion>
    1c5a:	7ba78793          	addi	a5,a5,1978 # 17ba <ModeShutLoop>
    1c5e:	c01c                	sw	a5,0(s0)
	m->WirelessRX = ModeShutWirelessRX;
    1c60:	6785                	lui	a5,0x1
    1c62:	e3478793          	addi	a5,a5,-460 # e34 <ModeShutWirelessRX>
    1c66:	c05c                	sw	a5,4(s0)
	seed(frameentropy);
    1c68:	200027b7          	lui	a5,0x20002
    1c6c:	be07a703          	lw	a4,-1056(a5) # 20001be0 <frameentropy>

	memset(m->shutters, 0, sizeof(int)*10);
    1c70:	20002537          	lui	a0,0x20002
    1c74:	02800613          	li	a2,40
    1c78:	4581                	li	a1,0
    1c7a:	c0850513          	addi	a0,a0,-1016 # 20001c08 <gameUnion+0x10>
	_rand_lfsr = seed_val;
    1c7e:	c0e1a223          	sw	a4,-1020(gp) # 200009b0 <_rand_lfsr>
    1c82:	8c3ff0ef          	jal	1544 <memset>
	m->gameState = 0;
	m->score = 0;
	m->selected = 0;
	m->remainingRoll = rollDice();
    1c86:	98cff0ef          	jal	e12 <rollDice>
	m->animTimer = 0;
    1c8a:	4781                	li	a5,0
    1c8c:	4801                	li	a6,0
	m->remainingRoll = rollDice();
    1c8e:	c448                	sw	a0,12(s0)
	m->animTimer = 0;
    1c90:	c03c                	sw	a5,64(s0)
    1c92:	05042223          	sw	a6,68(s0)
	/*
	for(int i=2; i<10; i++){
		m->shutters[i] = 1;
	}*/
}
    1c96:	b771                	j	1c22 <ModeMenuLoop+0xa6>
}


void EnterExampleMode( ModeExample * m )
{
	memset( m, 0, sizeof(*m) );
    1c98:	200027b7          	lui	a5,0x20002
    1c9c:	c0078793          	addi	a5,a5,-1024 # 20001c00 <gameUnion+0x8>
    1ca0:	0007a023          	sw	zero,0(a5)
    1ca4:	0007a223          	sw	zero,4(a5)
	m->Update = ModeExampleLoop;
    1ca8:	6709                	lui	a4,0x2
    1caa:	200027b7          	lui	a5,0x20002
    1cae:	bf878793          	addi	a5,a5,-1032 # 20001bf8 <gameUnion>
    1cb2:	fda70713          	addi	a4,a4,-38 # 1fda <ModeExampleLoop>
    1cb6:	c398                	sw	a4,0(a5)
	m->WirelessRX = ModeExampleWirelessRX;
    1cb8:	6709                	lui	a4,0x2
    1cba:	e7a70713          	addi	a4,a4,-390 # 1e7a <ModeExampleWirelessRX>
    1cbe:	c3d8                	sw	a4,4(a5)
	m->frameNumber = 0;
}
    1cc0:	b78d                	j	1c22 <ModeMenuLoop+0xa6>


void EnterTestMode( ModeTest * m )
{
	memset( m, 0, sizeof(*m) );
	m->Update = ModeTestLoop;
    1cc2:	200027b7          	lui	a5,0x20002
    1cc6:	670d                	lui	a4,0x3
    1cc8:	bf878793          	addi	a5,a5,-1032 # 20001bf8 <gameUnion>
    1ccc:	90470713          	addi	a4,a4,-1788 # 2904 <ModeTestLoop>
    1cd0:	c398                	sw	a4,0(a5)
	m->WirelessRX = ModeTestWirelessRX;
    1cd2:	6709                	lui	a4,0x2
    1cd4:	e1870713          	addi	a4,a4,-488 # 1e18 <ModeTestWirelessRX>
    1cd8:	c3d8                	sw	a4,4(a5)
	for( i = 0; i < 128; i++ )
    1cda:	4401                	li	s0,0
	ssd1306_setbuf(0x00); // Clear screen
    1cdc:	899ff0ef          	jal	1574 <ssd1306_setbuf.constprop.0>
	for( i = 0; i < 128; i++ )
    1ce0:	08000493          	li	s1,128
		ssd1306_drawPixel(i, i, 1);
    1ce4:	85a2                	mv	a1,s0
    1ce6:	8522                	mv	a0,s0
    1ce8:	4605                	li	a2,1
	for( i = 0; i < 128; i++ )
    1cea:	0405                	addi	s0,s0,1
		ssd1306_drawPixel(i, i, 1);
    1cec:	ec3fe0ef          	jal	bae <ssd1306_drawPixel>
	for( i = 0; i < 128; i++ )
    1cf0:	fe941ae3          	bne	s0,s1,1ce4 <ModeMenuLoop+0x168>
	ssd1306_refresh();
    1cf4:	c94ff0ef          	jal	1188 <ssd1306_refresh>
	ssd1306_cmd(0xa8);
    1cf8:	0a800513          	li	a0,168
    1cfc:	c74ff0ef          	jal	1170 <ssd1306_cmd.isra.0>
	ssd1306_cmd(0x0 );
    1d00:	4501                	li	a0,0
    1d02:	c6eff0ef          	jal	1170 <ssd1306_cmd.isra.0>
	ssd1306_cmd(0xD5);
    1d06:	0d500513          	li	a0,213
    1d0a:	c66ff0ef          	jal	1170 <ssd1306_cmd.isra.0>
	ssd1306_cmd(0xf0);
    1d0e:	0f000513          	li	a0,240
    1d12:	c5eff0ef          	jal	1170 <ssd1306_cmd.isra.0>
	ssd1306_cmd(0xc8);
    1d16:	0c800513          	li	a0,200
    1d1a:	c56ff0ef          	jal	1170 <ssd1306_cmd.isra.0>
	ssd1306_cmd(0xa1);
    1d1e:	0a100513          	li	a0,161
    1d22:	c4eff0ef          	jal	1170 <ssd1306_cmd.isra.0>
	ssd1306_cmd(0xD9);
    1d26:	0d900513          	li	a0,217
    1d2a:	c46ff0ef          	jal	1170 <ssd1306_cmd.isra.0>
	ssd1306_cmd(0x11);
    1d2e:	4545                	li	a0,17
    1d30:	c40ff0ef          	jal	1170 <ssd1306_cmd.isra.0>
	R8_SPI0_CLOCK_DIV = 3; 
    1d34:	40004737          	lui	a4,0x40004
    1d38:	468d                	li	a3,3
    1d3a:	00d701a3          	sb	a3,3(a4) # 40004003 <_eusrstack+0x20001003>
	R8_SPI0_CTRL_MOD &= ~RB_SPI_FIFO_DIR;
    1d3e:	00074783          	lbu	a5,0(a4)
    1d42:	0ef7f793          	andi	a5,a5,239
    1d46:	00f70023          	sb	a5,0(a4)
	R8_SPI0_CTRL_CFG |= RB_SPI_AUTO_IF | RB_SPI_DMA_ENABLE;
    1d4a:	87ba                	mv	a5,a4
    1d4c:	00174703          	lbu	a4,1(a4)
    1d50:	01176713          	ori	a4,a4,17
    1d54:	00e780a3          	sb	a4,1(a5)
}
    1d58:	b5e9                	j	1c22 <ModeMenuLoop+0xa6>


void EnterPufferMode( ModePuffer * m )
{
	memset( m, 0, sizeof(*m) );
    1d5a:	200027b7          	lui	a5,0x20002
    1d5e:	c0078793          	addi	a5,a5,-1024 # 20001c00 <gameUnion+0x8>
    1d62:	0007a023          	sw	zero,0(a5)
    1d66:	0007a223          	sw	zero,4(a5)
    1d6a:	0007a423          	sw	zero,8(a5)
    1d6e:	0007a623          	sw	zero,12(a5)
	m->Update = ModePufferLoop;
    1d72:	6705                	lui	a4,0x1
    1d74:	200027b7          	lui	a5,0x20002
    1d78:	bf878793          	addi	a5,a5,-1032 # 20001bf8 <gameUnion>
    1d7c:	58670713          	addi	a4,a4,1414 # 1586 <ModePufferLoop>
    1d80:	c398                	sw	a4,0(a5)
	m->WirelessRX = ModePufferWirelessRX;
    1d82:	6705                	lui	a4,0x1
    1d84:	dec70713          	addi	a4,a4,-532 # dec <ModePufferWirelessRX>
    1d88:	c3d8                	sw	a4,4(a5)
    m->curPoke = 0;
	m->spriteTime = 0;
	m->frameNum = 0;
	m->displayAdd = 0;

	seed(frameentropy);
    1d8a:	200027b7          	lui	a5,0x20002
    1d8e:	be07a703          	lw	a4,-1056(a5) # 20001be0 <frameentropy>
    1d92:	c0e1a223          	sw	a4,-1020(gp) # 200009b0 <_rand_lfsr>
}
    1d96:	b571                	j	1c22 <ModeMenuLoop+0xa6>

00001d98 <memcpy>:
	for (; n; n--) *d++ = *s++;
    1d98:	4781                	li	a5,0
    1d9a:	00f61363          	bne	a2,a5,1da0 <memcpy+0x8>
}
    1d9e:	8082                	ret
	for (; n; n--) *d++ = *s++;
    1da0:	00f58733          	add	a4,a1,a5
    1da4:	00074683          	lbu	a3,0(a4)
    1da8:	00f50733          	add	a4,a0,a5
    1dac:	0785                	addi	a5,a5,1
    1dae:	00d70023          	sb	a3,0(a4)
    1db2:	b7e5                	j	1d9a <memcpy+0x2>

00001db4 <putchar>:
	if( ( *DMDATA0 & 0xc0 ) == 0xc0 ) return 0;
    1db4:	e00007b7          	lui	a5,0xe0000
    1db8:	34078793          	addi	a5,a5,832 # e0000340 <_eusrstack+0xbfffd340>
    1dbc:	4398                	lw	a4,0(a5)
    1dbe:	0c000693          	li	a3,192
    1dc2:	0c077713          	andi	a4,a4,192
    1dc6:	04d70763          	beq	a4,a3,1e14 <putchar+0x60>
{
    1dca:	1141                	addi	sp,sp,-16
    1dcc:	00100737          	lui	a4,0x100
    1dd0:	c422                	sw	s0,8(sp)
    1dd2:	c606                	sw	ra,12(sp)
    1dd4:	842a                	mv	s0,a0
    1dd6:	0705                	addi	a4,a4,1 # 100001 <firmware.c.57502c15+0xfb7e3>
	while( ( lastdmd = (*DMDATA0) ) & 0x80 )
    1dd8:	4394                	lw	a3,0(a5)
    1dda:	0806f613          	andi	a2,a3,128
    1dde:	e205                	bnez	a2,1dfe <putchar+0x4a>
	if( lastdmd ) internal_handle_input( (uint32_t*)DMDATA0 );
    1de0:	c299                	beqz	a3,1de6 <putchar+0x32>
    1de2:	a22ff0ef          	jal	1004 <internal_handle_input.constprop.0>
	*DMDATA0 = 0x85 | ((const char)c<<8);
    1de6:	00841793          	slli	a5,s0,0x8
    1dea:	07c2                	slli	a5,a5,0x10
    1dec:	83c1                	srli	a5,a5,0x10
    1dee:	0857e793          	ori	a5,a5,133
    1df2:	e0000737          	lui	a4,0xe0000
    1df6:	34f72023          	sw	a5,832(a4) # e0000340 <_eusrstack+0xbfffd340>
    1dfa:	4505                	li	a0,1
    1dfc:	a801                	j	1e0c <putchar+0x58>
		if( timeout-- == 0 )
    1dfe:	177d                	addi	a4,a4,-1
    1e00:	ff61                	bnez	a4,1dd8 <putchar+0x24>
			*DMDATA0 |= 0xc0;
    1e02:	4398                	lw	a4,0(a5)
	if( ( *DMDATA0 & 0xc0 ) == 0xc0 ) return 0;
    1e04:	4501                	li	a0,0
			*DMDATA0 |= 0xc0;
    1e06:	0c076713          	ori	a4,a4,192
    1e0a:	c398                	sw	a4,0(a5)
}
    1e0c:	40b2                	lw	ra,12(sp)
    1e0e:	4422                	lw	s0,8(sp)
    1e10:	0141                	addi	sp,sp,16
    1e12:	8082                	ret
	if( ( *DMDATA0 & 0xc0 ) == 0xc0 ) return 0;
    1e14:	4501                	li	a0,0
}
    1e16:	8082                	ret

00001e18 <ModeTestWirelessRX>:
{
    1e18:	7179                	addi	sp,sp,-48
    1e1a:	d422                	sw	s0,40(sp)
    1e1c:	d226                	sw	s1,36(sp)
    1e1e:	d04a                	sw	s2,32(sp)
    1e20:	ce4e                	sw	s3,28(sp)
    1e22:	d606                	sw	ra,44(sp)
	printf( "%02x:%02x:%02x:%02x:%02x:%02x:%3d %d:", txmac[0], txmac[1], txmac[2], txmac[3], txmac[4], txmac[5], rssi, messageLength );
    1e24:	c032                	sw	a2,0(sp)
    1e26:	00554803          	lbu	a6,5(a0)
    1e2a:	00454783          	lbu	a5,4(a0)
    1e2e:	00354703          	lbu	a4,3(a0)
    1e32:	88b6                	mv	a7,a3
{
    1e34:	892e                	mv	s2,a1
	printf( "%02x:%02x:%02x:%02x:%02x:%02x:%3d %d:", txmac[0], txmac[1], txmac[2], txmac[3], txmac[4], txmac[5], rssi, messageLength );
    1e36:	00254683          	lbu	a3,2(a0)
    1e3a:	00054583          	lbu	a1,0(a0)
{
    1e3e:	8432                	mv	s0,a2
	printf( "%02x:%02x:%02x:%02x:%02x:%02x:%3d %d:", txmac[0], txmac[1], txmac[2], txmac[3], txmac[4], txmac[5], rssi, messageLength );
    1e40:	00154603          	lbu	a2,1(a0)
    1e44:	650d                	lui	a0,0x3
    1e46:	d8850513          	addi	a0,a0,-632 # 2d88 <__udivdi3+0x478>
    1e4a:	e74ff0ef          	jal	14be <printf>
	for( i = 0; i < messageLength; i++ )
    1e4e:	4481                	li	s1,0
		printf( "%02x ", message[i] );
    1e50:	698d                	lui	s3,0x3
	for( i = 0; i < messageLength; i++ )
    1e52:	0084ca63          	blt	s1,s0,1e66 <ModeTestWirelessRX+0x4e>
}
    1e56:	5422                	lw	s0,40(sp)
    1e58:	50b2                	lw	ra,44(sp)
    1e5a:	5492                	lw	s1,36(sp)
    1e5c:	5902                	lw	s2,32(sp)
    1e5e:	49f2                	lw	s3,28(sp)
	printf( "\n" );
    1e60:	4529                	li	a0,10
}
    1e62:	6145                	addi	sp,sp,48
	printf( "\n" );
    1e64:	bf81                	j	1db4 <putchar>
		printf( "%02x ", message[i] );
    1e66:	009907b3          	add	a5,s2,s1
    1e6a:	0007c583          	lbu	a1,0(a5)
    1e6e:	db098513          	addi	a0,s3,-592 # 2db0 <__udivdi3+0x4a0>
	for( i = 0; i < messageLength; i++ )
    1e72:	0485                	addi	s1,s1,1
		printf( "%02x ", message[i] );
    1e74:	e4aff0ef          	jal	14be <printf>
	for( i = 0; i < messageLength; i++ )
    1e78:	bfe9                	j	1e52 <ModeTestWirelessRX+0x3a>

00001e7a <ModeExampleWirelessRX>:
void ModeExampleWirelessRX( uint8_t * txmac, uint8_t * message, int messageLength, int rssi )
    1e7a:	bf79                	j	1e18 <ModeTestWirelessRX>

00001e7c <SystemInit>:
	}
	else
	{
		if((sc & RB_CLK_SYS_MOD) == 0x40) // PLL div
		{
			SYS_SAFE_ACCESS(
    1e7c:	400017b7          	lui	a5,0x40001
    1e80:	04078793          	addi	a5,a5,64 # 40001040 <_eusrstack+0x1fffe040>
    1e84:	05700593          	li	a1,87
    1e88:	00b78023          	sb	a1,0(a5)
    1e8c:	fa800613          	li	a2,-88
    1e90:	00c78023          	sb	a2,0(a5)
    1e94:	0001                	nop
    1e96:	0001                	nop
    1e98:	40001737          	lui	a4,0x40001
    1e9c:	00a74683          	lbu	a3,10(a4) # 4000100a <_eusrstack+0x1fffe00a>
    1ea0:	0106e693          	ori	a3,a3,16
    1ea4:	00d70523          	sb	a3,10(a4)
    1ea8:	40002737          	lui	a4,0x40002
    1eac:	4685                	li	a3,1
    1eae:	80d703a3          	sb	a3,-2041(a4) # 40001807 <_eusrstack+0x1fffe807>
    1eb2:	80574683          	lbu	a3,-2043(a4)
    1eb6:	0106e693          	ori	a3,a3,16
    1eba:	80d702a3          	sb	a3,-2043(a4)
    1ebe:	00078023          	sb	zero,0(a5)
    1ec2:	0001                	nop
    1ec4:	0001                	nop
		{
			SYS_SAFE_ACCESS(
				R8_FLASH_CFG = (sc & 0x1F) ? 0x02 : 0x07;
			);
		}
		SYS_SAFE_ACCESS(
    1ec6:	00b78023          	sb	a1,0(a5)
    1eca:	00c78023          	sb	a2,0(a5)
    1ece:	0001                	nop
    1ed0:	0001                	nop
    1ed2:	40001737          	lui	a4,0x40001
    1ed6:	04a00693          	li	a3,74
    1eda:	00d70423          	sb	a3,8(a4) # 40001008 <_eusrstack+0x1fffe008>
    1ede:	00078023          	sb	zero,0(a5)
    1ee2:	0001                	nop
    1ee4:	0001                	nop
	*DMDATA1 = 0x00;
    1ee6:	e00007b7          	lui	a5,0xe0000
    1eea:	3407a223          	sw	zero,836(a5) # e0000344 <_eusrstack+0xbfffd344>
	*DMDATA0 = 0x80;
    1eee:	08000713          	li	a4,128
    1ef2:	34e7a023          	sw	a4,832(a5)
	SetupDebugPrintf();
#endif
#if defined(FUNCONF_SUPPORT_CONSTRUCTORS) && FUNCONF_SUPPORT_CONSTRUCTORS
	CallConstructors();
#endif
}
    1ef6:	8082                	ret

00001ef8 <ISLER_BEANBOY_INTERNAL_CALLBACK>:
{
    1ef8:	1141                	addi	sp,sp,-16
    1efa:	c606                	sw	ra,12(sp)
    1efc:	c422                	sw	s0,8(sp)
	if( !iSLERCRCOK() ) return;
    1efe:	1fffe097          	auipc	ra,0x1fffe
    1f02:	136080e7          	jalr	310(ra) # 20000034 <iSLERCRCOK>
    1f06:	cd15                	beqz	a0,1f42 <ISLER_BEANBOY_INTERNAL_CALLBACK+0x4a>



void ISLERCallback( uint8_t * txmac, uint8_t * message, int messageLength, int rssi )
{
	if( gameUnion.template.WirelessRX )
    1f08:	200027b7          	lui	a5,0x20002
    1f0c:	bf878793          	addi	a5,a5,-1032 # 20001bf8 <gameUnion>
    1f10:	43c0                	lw	s0,4(a5)
    1f12:	c805                	beqz	s0,1f42 <ISLER_BEANBOY_INTERNAL_CALLBACK+0x4a>
	int rssi = ReadRSSI();
    1f14:	1fffe097          	auipc	ra,0x1fffe
    1f18:	108080e7          	jalr	264(ra) # 2000001c <iSLERRSSI>
	int len = frame[0];
    1f1c:	200027b7          	lui	a5,0x20002
    1f20:	c407c603          	lbu	a2,-960(a5) # 20001c40 <LLE_BUF>
		gameUnion.template.WirelessRX( txmac, message, messageLength, rssi );
    1f24:	87a2                	mv	a5,s0
}
    1f26:	4422                	lw	s0,8(sp)
    1f28:	40b2                	lw	ra,12(sp)
	int rssi = ReadRSSI();
    1f2a:	86aa                	mv	a3,a0
    1f2c:	200025b7          	lui	a1,0x20002
    1f30:	20002537          	lui	a0,0x20002
    1f34:	0611                	addi	a2,a2,4
    1f36:	c4a58593          	addi	a1,a1,-950 # 20001c4a <LLE_BUF+0xa>
    1f3a:	c4250513          	addi	a0,a0,-958 # 20001c42 <LLE_BUF+0x2>
}
    1f3e:	0141                	addi	sp,sp,16
    1f40:	8782                	jr	a5
    1f42:	40b2                	lw	ra,12(sp)
    1f44:	4422                	lw	s0,8(sp)
    1f46:	0141                	addi	sp,sp,16
    1f48:	8082                	ret

00001f4a <LLE_IRQHandler>:
void LLE_IRQHandler() {
    1f4a:	715d                	addi	sp,sp,-80
    1f4c:	de22                	sw	s0,60(sp)
		rx_flag = LL->STATUS & 1;
    1f4e:	4000c437          	lui	s0,0x4000c
    1f52:	20040413          	addi	s0,s0,512 # 4000c200 <_eusrstack+0x20009200>
void LLE_IRQHandler() {
    1f56:	dc26                	sw	s1,56(sp)
    1f58:	d23a                	sw	a4,36(sp)
		rx_flag = LL->STATUS & 1;
    1f5a:	4404                	lw	s1,8(s0)
void LLE_IRQHandler() {
    1f5c:	d03e                	sw	a5,32(sp)
		LL->STATUS &= LL->INT_EN;
    1f5e:	4458                	lw	a4,12(s0)
    1f60:	441c                	lw	a5,8(s0)
void LLE_IRQHandler() {
    1f62:	da2a                	sw	a0,52(sp)
    1f64:	c686                	sw	ra,76(sp)
    1f66:	c496                	sw	t0,72(sp)
    1f68:	c29a                	sw	t1,68(sp)
    1f6a:	c09e                	sw	t2,64(sp)
    1f6c:	d82e                	sw	a1,48(sp)
    1f6e:	d632                	sw	a2,44(sp)
    1f70:	d436                	sw	a3,40(sp)
    1f72:	ce42                	sw	a6,28(sp)
    1f74:	cc46                	sw	a7,24(sp)
    1f76:	ca72                	sw	t3,20(sp)
    1f78:	c876                	sw	t4,16(sp)
    1f7a:	c67a                	sw	t5,12(sp)
    1f7c:	c47e                	sw	t6,8(sp)
		LL->STATUS &= LL->INT_EN;
    1f7e:	8ff9                	and	a5,a5,a4
		BB->CTRL_TX = (BB->CTRL_TX & 0xfffffffc) | 1;
    1f80:	4000c737          	lui	a4,0x4000c
		LL->STATUS &= LL->INT_EN;
    1f84:	c41c                	sw	a5,8(s0)
		BB->CTRL_TX = (BB->CTRL_TX & 0xfffffffc) | 1;
    1f86:	10070713          	addi	a4,a4,256 # 4000c100 <_eusrstack+0x20009100>
    1f8a:	5b5c                	lw	a5,52(a4)
	DevSetMode(0);
    1f8c:	4501                	li	a0,0
	if( rx_flag )
    1f8e:	8885                	andi	s1,s1,1
		BB->CTRL_TX = (BB->CTRL_TX & 0xfffffffc) | 1;
    1f90:	9bf1                	andi	a5,a5,-4
    1f92:	0017e793          	ori	a5,a5,1
    1f96:	db5c                	sw	a5,52(a4)
	DevSetMode(0);
    1f98:	c53fe0ef          	jal	bea <DevSetMode>
	LL->CTRL_MOD &= CTRL_MOD_RFSTOP;
    1f9c:	483c                	lw	a5,80(s0)
    1f9e:	8ff7f793          	andi	a5,a5,-1793
    1fa2:	c83c                	sw	a5,80(s0)
	LL->LL0 |= 0x08;
    1fa4:	401c                	lw	a5,0(s0)
    1fa6:	0087e793          	ori	a5,a5,8
    1faa:	c01c                	sw	a5,0(s0)
	if( rx_flag )
    1fac:	c091                	beqz	s1,1fb0 <LLE_IRQHandler+0x66>
		ISLER_CALLBACK();
    1fae:	37a9                	jal	1ef8 <ISLER_BEANBOY_INTERNAL_CALLBACK>
}
    1fb0:	5472                	lw	s0,60(sp)
    1fb2:	40b6                	lw	ra,76(sp)
    1fb4:	42a6                	lw	t0,72(sp)
    1fb6:	4316                	lw	t1,68(sp)
    1fb8:	4386                	lw	t2,64(sp)
    1fba:	54e2                	lw	s1,56(sp)
    1fbc:	5552                	lw	a0,52(sp)
    1fbe:	55c2                	lw	a1,48(sp)
    1fc0:	5632                	lw	a2,44(sp)
    1fc2:	56a2                	lw	a3,40(sp)
    1fc4:	5712                	lw	a4,36(sp)
    1fc6:	5782                	lw	a5,32(sp)
    1fc8:	4872                	lw	a6,28(sp)
    1fca:	48e2                	lw	a7,24(sp)
    1fcc:	4e52                	lw	t3,20(sp)
    1fce:	4ec2                	lw	t4,16(sp)
    1fd0:	4f32                	lw	t5,12(sp)
    1fd2:	4fa2                	lw	t6,8(sp)
    1fd4:	6161                	addi	sp,sp,80
    1fd6:	30200073          	mret

00001fda <ModeExampleLoop>:
{
    1fda:	7155                	addi	sp,sp,-208
    1fdc:	c786                	sw	ra,204(sp)
    1fde:	c1ca                	sw	s2,192(sp)
    1fe0:	df4e                	sw	s3,188(sp)
    1fe2:	8932                	mv	s2,a2
    1fe4:	89aa                	mv	s3,a0
    1fe6:	dd52                	sw	s4,184(sp)
    1fe8:	db56                	sw	s5,180(sp)
    1fea:	d75e                	sw	s7,172(sp)
    1fec:	d366                	sw	s9,164(sp)
    1fee:	d16a                	sw	s10,160(sp)
    1ff0:	8a2e                	mv	s4,a1
    1ff2:	c5a2                	sw	s0,200(sp)
    1ff4:	c3a6                	sw	s1,196(sp)
    1ff6:	d95a                	sw	s6,176(sp)
    1ff8:	d562                	sw	s8,168(sp)
	ssd1306_setbuf(0x00); // Clear screen
    1ffa:	d7aff0ef          	jal	1574 <ssd1306_setbuf.constprop.0>
	sprintf( st, "%08x", (int)SysTick->CNT );
    1ffe:	e000f7b7          	lui	a5,0xe000f
    2002:	4790                	lw	a2,8(a5)
    2004:	658d                	lui	a1,0x3
    2006:	db858593          	addi	a1,a1,-584 # 2db8 <__udivdi3+0x4a8>
    200a:	1008                	addi	a0,sp,32
    200c:	d14ff0ef          	jal	1520 <sprintf>
	ssd1306_drawstr_sz(0, 0, st, 1, 2 );
    2010:	4689                	li	a3,2
    2012:	1010                	addi	a2,sp,32
    2014:	4581                	li	a1,0
    2016:	4501                	li	a0,0
    2018:	e4ffe0ef          	jal	e66 <ssd1306_drawstr_sz.constprop.0>
	sprintf( st, "%3d %d", (int)m->frameNumber, (int)pressures[3] );
    201c:	00c92683          	lw	a3,12(s2)
    2020:	0089a603          	lw	a2,8(s3)
    2024:	658d                	lui	a1,0x3
    2026:	dc058593          	addi	a1,a1,-576 # 2dc0 <__udivdi3+0x4b0>
    202a:	1008                	addi	a0,sp,32
    202c:	cf4ff0ef          	jal	1520 <sprintf>
	ssd1306_drawstr_sz(0, 24, st, 1, 2 );
    2030:	4689                	li	a3,2
    2032:	1010                	addi	a2,sp,32
    2034:	45e1                	li	a1,24
    2036:	4501                	li	a0,0
    2038:	e2ffe0ef          	jal	e66 <ssd1306_drawstr_sz.constprop.0>
    203c:	02000b93          	li	s7,32
    int err = 2 - 2 * radius;
    2040:	4c85                	li	s9,1
        ssd1306_drawPixel(x + x_pos, y - y_pos, color);
    2042:	05a00a93          	li	s5,90
	for( btn = 0; btn < 3; btn++ )
    2046:	08000d13          	li	s10,128
		int p = pressures[btn]>>9;
    204a:	00092403          	lw	s0,0(s2)
    int y_pos = 0;
    204e:	4b01                	li	s6,0
    2050:	8025                	srli	s0,s0,0x9
    int x_pos = -radius;
    2052:	408004b3          	neg	s1,s0
    int err = 2 - 2 * radius;
    2056:	408c8433          	sub	s0,s9,s0
    205a:	0406                	slli	s0,s0,0x1
        ssd1306_drawPixel(x - x_pos, y + y_pos, color);
    205c:	409b8c33          	sub	s8,s7,s1
    2060:	05ab0593          	addi	a1,s6,90
    2064:	4605                	li	a2,1
    2066:	8562                	mv	a0,s8
    2068:	c42e                	sw	a1,8(sp)
    206a:	b45fe0ef          	jal	bae <ssd1306_drawPixel>
        ssd1306_drawPixel(x + x_pos, y + y_pos, color);
    206e:	45a2                	lw	a1,8(sp)
    2070:	009b8533          	add	a0,s7,s1
    2074:	4605                	li	a2,1
    2076:	c62a                	sw	a0,12(sp)
    2078:	b37fe0ef          	jal	bae <ssd1306_drawPixel>
        ssd1306_drawPixel(x + x_pos, y - y_pos, color);
    207c:	4532                	lw	a0,12(sp)
    207e:	416a85b3          	sub	a1,s5,s6
    2082:	4605                	li	a2,1
    2084:	c42e                	sw	a1,8(sp)
    2086:	b29fe0ef          	jal	bae <ssd1306_drawPixel>
        ssd1306_drawPixel(x - x_pos, y - y_pos, color);
    208a:	45a2                	lw	a1,8(sp)
    208c:	4605                	li	a2,1
    208e:	8562                	mv	a0,s8
    2090:	b1ffe0ef          	jal	bae <ssd1306_drawPixel>
        if (e2 <= y_pos) {
    2094:	028b4963          	blt	s6,s0,20c6 <ModeExampleLoop+0xec>
            err += ++y_pos * 2 + 1;
    2098:	0b05                	addi	s6,s6,1
    209a:	001b1793          	slli	a5,s6,0x1
    209e:	0785                	addi	a5,a5,1 # e000f001 <_eusrstack+0xc000c001>
            if(-x_pos == y_pos && e2 <= x_pos) {
    20a0:	40900733          	neg	a4,s1
            err += ++y_pos * 2 + 1;
    20a4:	97a2                	add	a5,a5,s0
            if(-x_pos == y_pos && e2 <= x_pos) {
    20a6:	00eb1563          	bne	s6,a4,20b0 <ModeExampleLoop+0xd6>
    20aa:	0084c563          	blt	s1,s0,20b4 <ModeExampleLoop+0xda>
              e2 = 0;
    20ae:	4401                	li	s0,0
        if (e2 > x_pos) {
    20b0:	0084d963          	bge	s1,s0,20c2 <ModeExampleLoop+0xe8>
            err += ++x_pos * 2 + 1;
    20b4:	0485                	addi	s1,s1,1
    20b6:	00149713          	slli	a4,s1,0x1
    20ba:	0705                	addi	a4,a4,1
    20bc:	97ba                	add	a5,a5,a4
    } while (x_pos <= 0);
    20be:	01948663          	beq	s1,s9,20ca <ModeExampleLoop+0xf0>
    int y_pos = 0;
    20c2:	843e                	mv	s0,a5
    20c4:	bf61                	j	205c <ModeExampleLoop+0x82>
    20c6:	87a2                	mv	a5,s0
    20c8:	b7e5                	j	20b0 <ModeExampleLoop+0xd6>
	for( btn = 0; btn < 3; btn++ )
    20ca:	020b8b93          	addi	s7,s7,32
    20ce:	0911                	addi	s2,s2,4
    20d0:	f7ab9de3          	bne	s7,s10,204a <ModeExampleLoop+0x70>
	for( i = 0; i < 10; i++ )
    20d4:	4401                	li	s0,0
		int x = (rand() % (128+80))-40;
    20d6:	0d000493          	li	s1,208
		RenderBSprite( (i&1)?&bubble:&bubblemirror, x, y );
    20da:	20002ab7          	lui	s5,0x20002
    20de:	20002b37          	lui	s6,0x20002
	for( i = 0; i < 10; i++ )
    20e2:	4929                	li	s2,10
	rand_out = _rand_gen_32b();
    20e4:	ccdfe0ef          	jal	db0 <_rand_gen_32b>
		int x = (rand() % (128+80))-40;
    20e8:	029575b3          	remu	a1,a0,s1
    20ec:	fd858593          	addi	a1,a1,-40
    20f0:	c42e                	sw	a1,8(sp)
    20f2:	cbffe0ef          	jal	db0 <_rand_gen_32b>
		int y = (rand() % (128+80))-40;
    20f6:	02957633          	remu	a2,a0,s1
		RenderBSprite( (i&1)?&bubble:&bubblemirror, x, y );
    20fa:	00147793          	andi	a5,s0,1
    20fe:	45a2                	lw	a1,8(sp)
    2100:	9d4a8513          	addi	a0,s5,-1580 # 200019d4 <bubblemirror>
		int y = (rand() % (128+80))-40;
    2104:	fd860613          	addi	a2,a2,-40
		RenderBSprite( (i&1)?&bubble:&bubblemirror, x, y );
    2108:	c399                	beqz	a5,210e <ModeExampleLoop+0x134>
    210a:	ad8b0513          	addi	a0,s6,-1320 # 20001ad8 <bubble>
	for( i = 0; i < 10; i++ )
    210e:	0405                	addi	s0,s0,1
		RenderBSprite( (i&1)?&bubble:&bubblemirror, x, y );
    2110:	bc9fe0ef          	jal	cd8 <RenderBSprite>
	for( i = 0; i < 10; i++ )
    2114:	fd2418e3          	bne	s0,s2,20e4 <ModeExampleLoop+0x10a>
	ssd1306_refresh();
    2118:	870ff0ef          	jal	1188 <ssd1306_refresh>
	int32_t us = m->usTilNextSend -= deltaTime;
    211c:	00c9a783          	lw	a5,12(s3)
    2120:	414787b3          	sub	a5,a5,s4
	if( us < 0 )
    2124:	0207c263          	bltz	a5,2148 <ModeExampleLoop+0x16e>
	int32_t us = m->usTilNextSend -= deltaTime;
    2128:	00f9a623          	sw	a5,12(s3)
}
    212c:	40be                	lw	ra,204(sp)
    212e:	442e                	lw	s0,200(sp)
    2130:	449e                	lw	s1,196(sp)
    2132:	490e                	lw	s2,192(sp)
    2134:	59fa                	lw	s3,188(sp)
    2136:	5a6a                	lw	s4,184(sp)
    2138:	5ada                	lw	s5,180(sp)
    213a:	5b4a                	lw	s6,176(sp)
    213c:	5bba                	lw	s7,172(sp)
    213e:	5c2a                	lw	s8,168(sp)
    2140:	5c9a                	lw	s9,164(sp)
    2142:	5d0a                	lw	s10,160(sp)
    2144:	6169                	addi	sp,sp,208
    2146:	8082                	ret
		m->usTilNextSend = 400000;
    2148:	000627b7          	lui	a5,0x62
    214c:	a8078793          	addi	a5,a5,-1408 # 61a80 <firmware.c.57502c15+0x5d262>
    2150:	00f9a623          	sw	a5,12(s3)
	memcpy( pkt_tx+2, (uint32_t*)ROM_CFG_MAC_ADDR, 6 );
    2154:	0003f5b7          	lui	a1,0x3f
	pkt_tx[0] = 0x02;
    2158:	6785                	lui	a5,0x1
    215a:	0789                	addi	a5,a5,2 # 1002 <ssd1306_drawRect.constprop.0+0x34>
	memcpy( pkt_tx+2, (uint32_t*)ROM_CFG_MAC_ADDR, 6 );
    215c:	4619                	li	a2,6
    215e:	05e1                	addi	a1,a1,24 # 3f018 <firmware.c.57502c15+0x3a7fa>
    2160:	01210513          	addi	a0,sp,18
	pkt_tx[0] = 0x02;
    2164:	00f11823          	sh	a5,16(sp)
	memcpy( pkt_tx+2, (uint32_t*)ROM_CFG_MAC_ADDR, 6 );
    2168:	3905                	jal	1d98 <memcpy>
	memcpy( pkt_tx+10, message, messageLength );
    216a:	658d                	lui	a1,0x3
	pkt_tx[8] = 0xff; // Normally should be 0x03, 0x19, 0x00, 0x00 for BLE
    216c:	57fd                	li	a5,-1
	memcpy( pkt_tx+10, message, messageLength );
    216e:	4619                	li	a2,6
    2170:	dc858593          	addi	a1,a1,-568 # 2dc8 <__udivdi3+0x4b8>
    2174:	01a10513          	addi	a0,sp,26
	pkt_tx[8] = 0xff; // Normally should be 0x03, 0x19, 0x00, 0x00 for BLE
    2178:	00f11c23          	sh	a5,24(sp)
	memcpy( pkt_tx+10, message, messageLength );
    217c:	3931                	jal	1d98 <memcpy>
	Frame_TX(ACCESS_ADDRESS, pkt_tx, messageLength+10, iSLERChannel, PHY_MODE);
    217e:	200027b7          	lui	a5,0x20002
    2182:	be47c403          	lbu	s0,-1052(a5) # 20001be4 <iSLERChannel>
    2186:	4641                	li	a2,16
    2188:	8e89c537          	lui	a0,0x8e89c
    218c:	00c105b3          	add	a1,sp,a2
    2190:	4705                	li	a4,1
    2192:	86a2                	mv	a3,s0
    2194:	ed650513          	addi	a0,a0,-298 # 8e89bed6 <_eusrstack+0x6e898ed6>
    2198:	1fffe097          	auipc	ra,0x1fffe
    219c:	ebc080e7          	jalr	-324(ra) # 20000054 <iSLERTX>
	Frame_RX(ACCESS_ADDRESS, iSLERChannel, PHY_MODE);
    21a0:	8e89c537          	lui	a0,0x8e89c
    21a4:	4605                	li	a2,1
    21a6:	85a2                	mv	a1,s0
    21a8:	ed650513          	addi	a0,a0,-298 # 8e89bed6 <_eusrstack+0x6e898ed6>
    21ac:	1fffe097          	auipc	ra,0x1fffe
    21b0:	fe0080e7          	jalr	-32(ra) # 2000018c <iSLERRX>
}
    21b4:	bfa5                	j	212c <ModeExampleLoop+0x152>

000021b6 <SetupRegisterMap.isra.0>:
int SetupRegisterMap( int address, const uint8_t * regptr, int regs, const char * name )
    21b6:	1101                	addi	sp,sp,-32
		int b = SendByte( address<<1 );
    21b8:	0506                	slli	a0,a0,0x1
int SetupRegisterMap( int address, const uint8_t * regptr, int regs, const char * name )
    21ba:	cc22                	sw	s0,24(sp)
    21bc:	ca26                	sw	s1,20(sp)
    21be:	c84a                	sw	s2,16(sp)
    21c0:	c64e                	sw	s3,12(sp)
    21c2:	c452                	sw	s4,8(sp)
    21c4:	c256                	sw	s5,4(sp)
    21c6:	ce06                	sw	ra,28(sp)
    21c8:	c05a                	sw	s6,0(sp)
    21ca:	842e                	mv	s0,a1
    21cc:	89b2                	mv	s3,a2
    21ce:	8a36                	mv	s4,a3
	for( i = 0; i < regs; i++ )
    21d0:	4901                	li	s2,0
		int b = SendByte( address<<1 );
    21d2:	0ff57493          	zext.b	s1,a0
			printf( "%s Cannot Configure @ %d\n", name, i );
    21d6:	6a8d                	lui	s5,0x3
		SendStart();
    21d8:	1fffe097          	auipc	ra,0x1fffe
    21dc:	182080e7          	jalr	386(ra) # 2000035a <SendStart>
		int b = SendByte( address<<1 );
    21e0:	8526                	mv	a0,s1
    21e2:	1fffe097          	auipc	ra,0x1fffe
    21e6:	264080e7          	jalr	612(ra) # 20000446 <SendByte>
		if( b )
    21ea:	c505                	beqz	a0,2212 <SetupRegisterMap.isra.0+0x5c>
			printf( "%s Cannot Configure @ %d\n", name, i );
    21ec:	864a                	mv	a2,s2
    21ee:	85d2                	mv	a1,s4
    21f0:	dd0a8513          	addi	a0,s5,-560 # 2dd0 <__udivdi3+0x4c0>
    21f4:	acaff0ef          	jal	14be <printf>
	for( i = 0; i < regs; i++ )
    21f8:	0905                	addi	s2,s2,1
    21fa:	fd391fe3          	bne	s2,s3,21d8 <SetupRegisterMap.isra.0+0x22>
}
    21fe:	40f2                	lw	ra,28(sp)
    2200:	4462                	lw	s0,24(sp)
    2202:	44d2                	lw	s1,20(sp)
    2204:	4942                	lw	s2,16(sp)
    2206:	49b2                	lw	s3,12(sp)
    2208:	4a22                	lw	s4,8(sp)
    220a:	4a92                	lw	s5,4(sp)
    220c:	4b02                	lw	s6,0(sp)
    220e:	6105                	addi	sp,sp,32
    2210:	8082                	ret
		SendByte( a );
    2212:	00044503          	lbu	a0,0(s0)
		int v = *(regptr++);
    2216:	00240b13          	addi	s6,s0,2
		SendByte( a );
    221a:	1fffe097          	auipc	ra,0x1fffe
    221e:	22c080e7          	jalr	556(ra) # 20000446 <SendByte>
		b = SendByte( v );
    2222:	00144503          	lbu	a0,1(s0)
		int v = *(regptr++);
    2226:	845a                	mv	s0,s6
		b = SendByte( v );
    2228:	1fffe097          	auipc	ra,0x1fffe
    222c:	21e080e7          	jalr	542(ra) # 20000446 <SendByte>
		SendStop();
    2230:	1fffe097          	auipc	ra,0x1fffe
    2234:	196080e7          	jalr	406(ra) # 200003c6 <SendStop>
    2238:	b7c1                	j	21f8 <SetupRegisterMap.isra.0+0x42>

0000223a <main>:
}


int main()
{
    223a:	7119                	addi	sp,sp,-128
    223c:	de86                	sw	ra,124(sp)
    223e:	dca2                	sw	s0,120(sp)
    2240:	daa6                	sw	s1,116(sp)
    2242:	d8ca                	sw	s2,112(sp)
    2244:	d6ce                	sw	s3,108(sp)
    2246:	d4d2                	sw	s4,104(sp)
    2248:	d2d6                	sw	s5,100(sp)
    224a:	d0da                	sw	s6,96(sp)
    224c:	cede                	sw	s7,92(sp)
    224e:	cce2                	sw	s8,88(sp)
    2250:	cae6                	sw	s9,84(sp)
    2252:	c8ea                	sw	s10,80(sp)
    2254:	c6ee                	sw	s11,76(sp)

/////////////////////////////////////////////////////////////////////////////////////////////////

static void BeanboySetup()
{
	SystemInit();
    2256:	311d                	jal	1e7c <SystemInit>

	funGpioInitAll(); // no-op on ch5xx

	funPinMode( PA11, GPIO_CFGLR_OUT_10Mhz_PP );
    2258:	6505                	lui	a0,0x1
    225a:	80050513          	addi	a0,a0,-2048 # 800 <_einit+0x770>
//	funDigitalWrite( PA11, 1 ); // BS1 = 1 for I2C
	funDigitalWrite( PA11, 0 ); // BS1 = 0 for SPI
    225e:	40001437          	lui	s0,0x40001
    2262:	6b05                	lui	s6,0x1
    2264:	0ac40413          	addi	s0,s0,172 # 400010ac <_eusrstack+0x1fffe0ac>
	funPinMode( PA11, GPIO_CFGLR_OUT_10Mhz_PP );
    2268:	f97fe0ef          	jal	11fe <funPinMode.constprop.0>
	funDigitalWrite( PA11, 0 ); // BS1 = 0 for SPI
    226c:	800b0b13          	addi	s6,s6,-2048 # 800 <_einit+0x770>
    2270:	01642023          	sw	s6,0(s0)

	funPinMode( PA6, GPIO_CFGLR_OUT_10Mhz_PP );
    2274:	04000513          	li	a0,64
    2278:	f87fe0ef          	jal	11fe <funPinMode.constprop.0>
	funDigitalWrite( PA6, 1 ); // RES
    227c:	04000a13          	li	s4,64
    2280:	40001937          	lui	s2,0x40001
    2284:	0b492c23          	sw	s4,184(s2) # 400010b8 <_eusrstack+0x1fffe0b8>
	funPinMode( PA4, GPIO_CFGLR_OUT_10Mhz_PP );
    2288:	4541                	li	a0,16
    228a:	f75fe0ef          	jal	11fe <funPinMode.constprop.0>
	funDigitalWrite( PA4, 0 ); // SCS
    228e:	4bc1                	li	s7,16
	funPinMode( PA10, GPIO_CFGLR_OUT_10Mhz_PP );
	funDigitalWrite( PA10, 0 ); // D/C
    2290:	40000a93          	li	s5,1024
	funPinMode( PA10, GPIO_CFGLR_OUT_10Mhz_PP );
    2294:	40000513          	li	a0,1024
	funDigitalWrite( PA4, 0 ); // SCS
    2298:	01742023          	sw	s7,0(s0)
	funPinMode( PA10, GPIO_CFGLR_OUT_10Mhz_PP );
    229c:	f63fe0ef          	jal	11fe <funPinMode.constprop.0>
	funDigitalWrite( PA10, 0 ); // D/C
    22a0:	01542023          	sw	s5,0(s0)
	ConfigI2C();
    22a4:	1fffe097          	auipc	ra,0x1fffe
    22a8:	09e080e7          	jalr	158(ra) # 20000342 <ConfigI2C>
	SetupRegisterMap( QMC6309_ADDRESS, (const uint8_t[]){ 0x12, 0x81 }, 1, "LSM6DS3 RESET" );
    22ac:	77e1                	lui	a5,0xffff8
    22ae:	00c10993          	addi	s3,sp,12
    22b2:	668d                	lui	a3,0x3
    22b4:	11278793          	addi	a5,a5,274 # ffff8112 <_eusrstack+0xdfff5112>
    22b8:	dec68693          	addi	a3,a3,-532 # 2dec <__udivdi3+0x4dc>
    22bc:	4605                	li	a2,1
    22be:	85ce                	mv	a1,s3
    22c0:	07c00513          	li	a0,124
    22c4:	00f11623          	sh	a5,12(sp)
    22c8:	35fd                	jal	21b6 <SetupRegisterMap.isra.0>
	SetupRegisterMap( QMC6309_ADDRESS, (const uint8_t[]){ 0x0b, 0x80, 0x0b, 0x00 }, 2, "QMC6309 RESET" );
    22ca:	000b87b7          	lui	a5,0xb8
    22ce:	0824                	addi	s1,sp,24
    22d0:	668d                	lui	a3,0x3
    22d2:	07ad                	addi	a5,a5,11 # b800b <firmware.c.57502c15+0xb37ed>
    22d4:	dfc68693          	addi	a3,a3,-516 # 2dfc <__udivdi3+0x4ec>
    22d8:	4609                	li	a2,2
    22da:	85a6                	mv	a1,s1
    22dc:	07c00513          	li	a0,124
    22e0:	cc3e                	sw	a5,24(sp)
    22e2:	3dd1                	jal	21b6 <SetupRegisterMap.isra.0>
	SetupRegisterMap( LSM6DS3_ADDRESS, LSM6DS3Regmap, sizeof(LSM6DS3Regmap)/2, "LSM6DS3" );
    22e4:	668d                	lui	a3,0x3
    22e6:	658d                	lui	a1,0x3
    22e8:	e0c68693          	addi	a3,a3,-500 # 2e0c <__udivdi3+0x4fc>
    22ec:	463d                	li	a2,15
    22ee:	68c58593          	addi	a1,a1,1676 # 368c <LSM6DS3Regmap.1>
    22f2:	06a00513          	li	a0,106
    22f6:	35c1                	jal	21b6 <SetupRegisterMap.isra.0>
	SetupRegisterMap( QMC6309_ADDRESS, QMC6309Regmap, sizeof(QMC6309Regmap)/2, "QMC6309" );
    22f8:	668d                	lui	a3,0x3
    22fa:	4609                	li	a2,2
    22fc:	c0c18593          	addi	a1,gp,-1012 # 200009b8 <QMC6309Regmap.0>
    2300:	e1468693          	addi	a3,a3,-492 # 2e14 <__udivdi3+0x504>
    2304:	07c00513          	li	a0,124
    2308:	357d                	jal	21b6 <SetupRegisterMap.isra.0>
	DSCL_OUTPUT;
    230a:	01642023          	sw	s6,0(s0)
	DSDA_OUTPUT;
    230e:	01542023          	sw	s5,0(s0)
	Delay_Ms(10);
    2312:	00092537          	lui	a0,0x92
	funDigitalWrite( SSD1306_RST_PIN, FUN_LOW );
    2316:	01442023          	sw	s4,0(s0)
	Delay_Ms(10);
    231a:	7c050513          	addi	a0,a0,1984 # 927c0 <firmware.c.57502c15+0x8dfa2>
    231e:	feefe0ef          	jal	b0c <DelaySysTick>
	funPinMode( SSD1306_RST_PIN, GPIO_CFGLR_OUT_50Mhz_PP );
    2322:	8552                	mv	a0,s4
	funDigitalWrite( SSD1306_RST_PIN, FUN_HIGH );
    2324:	0b492c23          	sw	s4,184(s2)
	funPinMode( SSD1306_RST_PIN, GPIO_CFGLR_OUT_50Mhz_PP );
    2328:	ed7fe0ef          	jal	11fe <funPinMode.constprop.0>
	funPinMode( SSD1306_CS_PIN, GPIO_CFGLR_OUT_50Mhz_PP );
    232c:	855e                	mv	a0,s7
    232e:	ed1fe0ef          	jal	11fe <funPinMode.constprop.0>
	funPinMode( SSD1306_DC_PIN, GPIO_CFGLR_OUT_50Mhz_PP );
    2332:	8556                	mv	a0,s5
    2334:	ecbfe0ef          	jal	11fe <funPinMode.constprop.0>
	funPinMode( SSD1306_MOSI_PIN, GPIO_CFGLR_OUT_50Mhz_PP );
    2338:	08000513          	li	a0,128
    233c:	ec3fe0ef          	jal	11fe <funPinMode.constprop.0>
	funPinMode( SSD1306_SCK_PIN, GPIO_CFGLR_OUT_50Mhz_PP );
    2340:	02000513          	li	a0,32
    2344:	ebbfe0ef          	jal	11fe <funPinMode.constprop.0>
	funDigitalWrite( SSD1306_RST_PIN, FUN_HIGH );
    2348:	0b492c23          	sw	s4,184(s2)
	funDigitalWrite( SSD1306_CS_PIN, FUN_HIGH );
    234c:	0b792c23          	sw	s7,184(s2)
	funDigitalWrite( SSD1306_DC_PIN, FUN_LOW );
    2350:	01542023          	sw	s5,0(s0)
	R8_SPI0_CLOCK_DIV = FUNCONF_SYSTEM_CORE_CLOCK / 12000000; // 16MHz is the fastest I want to go - though it does seem to work up to ~60MHz. 
    2354:	400047b7          	lui	a5,0x40004
    2358:	4695                	li	a3,5
    235a:	00d781a3          	sb	a3,3(a5) # 40004003 <_eusrstack+0x20001003>
	R8_SPI0_CTRL_MOD  = RB_SPI_ALL_CLEAR;
    235e:	4689                	li	a3,2
    2360:	00d78023          	sb	a3,0(a5)
	R8_SPI0_CTRL_MOD  = RB_SPI_MOSI_OE | RB_SPI_2WIRE_MOD | RB_SPI_SCK_OE;
    2364:	06400713          	li	a4,100
    2368:	00e78023          	sb	a4,0(a5)
	R8_SPI0_CTRL_MOD |= RB_SPI_MST_SCK_MOD;
    236c:	0007c703          	lbu	a4,0(a5)
	Delay_Ms(10);
    2370:	00092537          	lui	a0,0x92
    2374:	7c050513          	addi	a0,a0,1984 # 927c0 <firmware.c.57502c15+0x8dfa2>
	R8_SPI0_CTRL_MOD |= RB_SPI_MST_SCK_MOD;
    2378:	00876713          	ori	a4,a4,8
    237c:	00e78023          	sb	a4,0(a5)
	R8_SPI0_CTRL_CFG = RB_MST_CLK_SEL;
    2380:	00d780a3          	sb	a3,1(a5)
	funDigitalWrite( SSD1306_RST_PIN, FUN_LOW );
    2384:	01442023          	sw	s4,0(s0)
	Delay_Ms(10);
    2388:	f84fe0ef          	jal	b0c <DelaySysTick>

	ssd1306_setbuf(0);
	
	// initialize OLED
#if !defined(SSD1306_CUSTOM_INIT_ARRAY) || !SSD1306_CUSTOM_INIT_ARRAY
	uint8_t *cmd_list = (uint8_t *)ssd1306_init_array;
    238c:	640d                	lui	s0,0x3
	funDigitalWrite( SSD1306_RST_PIN, FUN_HIGH );
    238e:	0b492c23          	sw	s4,184(s2)
	ssd1306_setbuf(0);
    2392:	9e2ff0ef          	jal	1574 <ssd1306_setbuf.constprop.0>
	uint8_t *cmd_list = (uint8_t *)ssd1306_init_array;
    2396:	6ac40413          	addi	s0,s0,1708 # 36ac <ssd1306_init_array>
	while(*cmd_list != SSD1306_TERMINATE_CMDS)
    239a:	0ff00913          	li	s2,255
    239e:	00044503          	lbu	a0,0(s0)
    23a2:	4f251963          	bne	a0,s2,2894 <main+0x65a>
	{
		if(ssd1306_cmd(*cmd_list++))
			return 1;
	}
	
	ssd1306_refresh();	
    23a6:	de3fe0ef          	jal	1188 <ssd1306_refresh>

	ssd1306_rst();

	ssd1306_spi_init();
	ssd1306_init();
	ssd1306_setbuf(0x00);
    23aa:	9caff0ef          	jal	1574 <ssd1306_setbuf.constprop.0>

	// Turbo-time
	ssd1306_cmd(0xD5);
    23ae:	0d500513          	li	a0,213
    23b2:	dbffe0ef          	jal	1170 <ssd1306_cmd.isra.0>
	ssd1306_cmd(0xe0);
    23b6:	0e000513          	li	a0,224
    23ba:	db7fe0ef          	jal	1170 <ssd1306_cmd.isra.0>

	ssd1306_cmd(0xc8);
    23be:	0c800513          	li	a0,200
    23c2:	daffe0ef          	jal	1170 <ssd1306_cmd.isra.0>
	ssd1306_cmd(0xa1);
    23c6:	0a100513          	li	a0,161
    23ca:	da7fe0ef          	jal	1170 <ssd1306_cmd.isra.0>
	R8_TMR_CTRL_MOD = 0b00000010; // All clear
    23ce:	400027b7          	lui	a5,0x40002
    23d2:	4689                	li	a3,2
	R32_TMR_CNT_END = 0x03FFFFFF; // Maximum possible counter size.
    23d4:	04000737          	lui	a4,0x4000
	R8_TMR_CTRL_MOD = 0b00000010; // All clear
    23d8:	40d78023          	sb	a3,1024(a5) # 40002400 <_eusrstack+0x1ffff400>
	R32_TMR_CNT_END = 0x03FFFFFF; // Maximum possible counter size.
    23dc:	177d                	addi	a4,a4,-1 # 3ffffff <firmware.c.57502c15+0x3ffb7e1>
    23de:	40e7a623          	sw	a4,1036(a5)
	R8_TMR_CTRL_MOD = 0b11000101; // Capture mode rising edge
    23e2:	fc500713          	li	a4,-59
    23e6:	40e78023          	sb	a4,1024(a5)
	R8_TMR_INTER_EN = 0b10; // Capture event.
    23ea:	40d78123          	sb	a3,1026(a5)
	R16_PIN_ALTERNATE_H |= 1<<6; // Map PA2 to CAP1 (could be PA7, PA4, or PA9) (see RB_TMR_PIN)
    23ee:	400017b7          	lui	a5,0x40001
    23f2:	01a7d703          	lhu	a4,26(a5) # 4000101a <_eusrstack+0x1fffe01a>
	NVIC->IENR[((uint32_t)(IRQn) >> 5)] = (1 << ((uint32_t)(IRQn) & 0x1F));
    23f6:	e000e937          	lui	s2,0xe000e
    23fa:	04076713          	ori	a4,a4,64
    23fe:	00e79d23          	sh	a4,26(a5)
    2402:	010007b7          	lui	a5,0x1000
    2406:	10f92023          	sw	a5,256(s2) # e000e100 <_eusrstack+0xc000b100>
	uint32_t result; __ASM volatile( ADD_ARCH_ZICSR "csrr %0," "mstatus": "=r"(result) );
    240a:	300027f3          	csrr	a5,mstatus
	result |= 0x88;  __ASM volatile( ADD_ARCH_ZICSR "csrw mstatus, %0" : : "r" (result) );
    240e:	0887e793          	ori	a5,a5,136
    2412:	30079073          	csrw	mstatus,a5
	funPinMode( PA2, GPIO_ModeOut_PP_20mA );
    2416:	4511                	li	a0,4
    2418:	de7fe0ef          	jal	11fe <funPinMode.constprop.0>
	iSLERChannel = channel;
    241c:	200027b7          	lui	a5,0x20002
    2420:	4739                	li	a4,14
    2422:	bee78223          	sb	a4,-1052(a5) # 20001be4 <iSLERChannel>
	LL->LL5 = 0x8c;
    2426:	4000c7b7          	lui	a5,0x4000c
    242a:	20078793          	addi	a5,a5,512 # 4000c200 <_eusrstack+0x20009200>
    242e:	08c00713          	li	a4,140
    2432:	cbd8                	sw	a4,20(a5)
	LL->LL7 = 0x76;
    2434:	07600693          	li	a3,118
    2438:	cfd4                	sw	a3,28(a5)
	LL->LL9 = 0x8c;
    243a:	d3d8                	sw	a4,36(a5)
	LL->LL13 = 0x8c;
    243c:	dbd8                	sw	a4,52(a5)
	LL->LL17 = 0x8c;
    243e:	c3f8                	sw	a4,68(a5)
	LL->LL19 = 0x76;
    2440:	c7f4                	sw	a3,76(a5)
	LL->LL11 = 0x6c;
    2442:	06c00713          	li	a4,108
    2446:	d7d8                	sw	a4,44(a5)
	LL->LL15 = 0x6c;
    2448:	dfd8                	sw	a4,60(a5)
	LL->LL1 = 0x78;
    244a:	07800713          	li	a4,120
    244e:	c3d8                	sw	a4,4(a5)
	LL->INT_EN = 0x16000f;
    2450:	00160737          	lui	a4,0x160
	LL->LL21 = 0;
    2454:	0407aa23          	sw	zero,84(a5)
	LL->INT_EN = 0x16000f;
    2458:	073d                	addi	a4,a4,15 # 16000f <firmware.c.57502c15+0x15b7f1>
    245a:	c7d8                	sw	a4,12(a5)
	LL->RXBUF = (uint32_t)LLE_BUF;
    245c:	20002737          	lui	a4,0x20002
    2460:	c4070713          	addi	a4,a4,-960 # 20001c40 <LLE_BUF>
    2464:	dff8                	sw	a4,124(a5)
	LL->STATUS = 0xffffffff;
    2466:	577d                	li	a4,-1
	RF->RF10 = 0x480;
    2468:	4000d437          	lui	s0,0x4000d
	LL->STATUS = 0xffffffff;
    246c:	c798                	sw	a4,8(a5)
	RF->RF10 = 0x480;
    246e:	48000793          	li	a5,1152
    2472:	d41c                	sw	a5,40(s0)
	RF->RF12 &= 0xfff9ffff;
    2474:	581c                	lw	a5,48(s0)
    2476:	fffa0737          	lui	a4,0xfffa0
    247a:	177d                	addi	a4,a4,-1 # fff9ffff <_eusrstack+0xdff9cfff>
    247c:	8ff9                	and	a5,a5,a4
    247e:	d81c                	sw	a5,48(s0)
	RF->RF12 |= 0x70000000;
    2480:	581c                	lw	a5,48(s0)
    2482:	70000737          	lui	a4,0x70000
	RF->RF15 = (RF->RF15 & 0xf8ffffff) | 0x2000000;
    2486:	020006b7          	lui	a3,0x2000
	RF->RF12 |= 0x70000000;
    248a:	8fd9                	or	a5,a5,a4
    248c:	d81c                	sw	a5,48(s0)
	RF->RF15 = (RF->RF15 & 0xf8ffffff) | 0x2000000;
    248e:	5c5c                	lw	a5,60(s0)
    2490:	f9000737          	lui	a4,0xf9000
    2494:	177d                	addi	a4,a4,-1 # f8ffffff <_eusrstack+0xd8ffcfff>
    2496:	8ff9                	and	a5,a5,a4
    2498:	8fd5                	or	a5,a5,a3
    249a:	dc5c                	sw	a5,60(s0)
	RF->RF15 = (RF->RF15 & 0x1fffffff) | 0x40000000;
    249c:	5c5c                	lw	a5,60(s0)
    249e:	40000737          	lui	a4,0x40000
	BB->CTRL_TX = (BB->CTRL_TX & 0x1ffffff) | (TxPower | 0x40) << 0x19;
    24a2:	16fd                	addi	a3,a3,-1 # 1ffffff <firmware.c.57502c15+0x1ffb7e1>
	RF->RF15 = (RF->RF15 & 0x1fffffff) | 0x40000000;
    24a4:	078e                	slli	a5,a5,0x3
    24a6:	838d                	srli	a5,a5,0x3
    24a8:	8fd9                	or	a5,a5,a4
    24aa:	dc5c                	sw	a5,60(s0)
	RF->RF18 &= 0xfff8ffff;
    24ac:	443c                	lw	a5,72(s0)
    24ae:	fff90737          	lui	a4,0xfff90
    24b2:	177d                	addi	a4,a4,-1 # fff8ffff <_eusrstack+0xdff8cfff>
    24b4:	8ff9                	and	a5,a5,a4
    24b6:	c43c                	sw	a5,72(s0)
	RF->RF20 = (RF->RF20 & 0xfffff8ff) | 0x300;
    24b8:	483c                	lw	a5,80(s0)
	RF->RF23 |= 0x70000;
    24ba:	00070737          	lui	a4,0x70
	NVIC->VTFIDR[3] = 0x14;
    24be:	4bd1                	li	s7,20
	RF->RF20 = (RF->RF20 & 0xfffff8ff) | 0x300;
    24c0:	8ff7f793          	andi	a5,a5,-1793
    24c4:	3007e793          	ori	a5,a5,768
    24c8:	c83c                	sw	a5,80(s0)
	RF->RF23 |= 0x70000;
    24ca:	4c7c                	lw	a5,92(s0)
	DevSetMode(DEVSETMODE_TUNE);
    24cc:	55800513          	li	a0,1368
	RF->RF23 |= 0x70000;
    24d0:	8fd9                	or	a5,a5,a4
    24d2:	cc7c                	sw	a5,92(s0)
	RF->RF23 |= 0x700000;
    24d4:	4c7c                	lw	a5,92(s0)
    24d6:	00700737          	lui	a4,0x700
    24da:	8fd9                	or	a5,a5,a4
    24dc:	cc7c                	sw	a5,92(s0)
	BB->BB14 = 0x2020c;
    24de:	00020737          	lui	a4,0x20
    24e2:	4000c7b7          	lui	a5,0x4000c
    24e6:	10078793          	addi	a5,a5,256 # 4000c100 <_eusrstack+0x20009100>
    24ea:	20c70713          	addi	a4,a4,524 # 2020c <firmware.c.57502c15+0x1b9ee>
    24ee:	df98                	sw	a4,56(a5)
	BB->BB15 = 0x50;
    24f0:	05000713          	li	a4,80
    24f4:	dfd8                	sw	a4,60(a5)
	BB->CTRL_TX = (BB->CTRL_TX & 0x1ffffff) | (TxPower | 0x40) << 0x19;
    24f6:	5bd8                	lw	a4,52(a5)
    24f8:	8f75                	and	a4,a4,a3
    24fa:	da0006b7          	lui	a3,0xda000
    24fe:	8f55                	or	a4,a4,a3
    2500:	dbd8                	sw	a4,52(a5)
	BB->CTRL_CFG &= 0xfffffcff;
    2502:	4398                	lw	a4,0(a5)
    2504:	cff77713          	andi	a4,a4,-769
    2508:	c398                	sw	a4,0(a5)
	NVIC->VTFIDR[3] = 0x14;
    250a:	057909a3          	sb	s7,83(s2)
	DevSetMode(DEVSETMODE_TUNE);
    250e:	edcfe0ef          	jal	bea <DevSetMode>
	RF->RF1 &= 0xfffffeff;
    2512:	405c                	lw	a5,4(s0)
	RF->RF10 &= 0xffffefff;
    2514:	777d                	lui	a4,0xfffff
    2516:	177d                	addi	a4,a4,-1 # ffffefff <_eusrstack+0xdfffbfff>
	RF->RF1 &= 0xfffffeff;
    2518:	eff7f793          	andi	a5,a5,-257
    251c:	c05c                	sw	a5,4(s0)
	RF->RF10 &= 0xffffefff;
    251e:	541c                	lw	a5,40(s0)
	uint32_t tune2401 = RFEND_TXCTune(37);
    2520:	02500513          	li	a0,37
	RF->RF10 &= 0xffffefff;
    2524:	8ff9                	and	a5,a5,a4
    2526:	d41c                	sw	a5,40(s0)
	RF->RF11 &= 0xffffffef;
    2528:	545c                	lw	a5,44(s0)
	RF->RF2 |= 0x20000;
    252a:	00020737          	lui	a4,0x20
	RF->RF11 &= 0xffffffef;
    252e:	9bbd                	andi	a5,a5,-17
    2530:	d45c                	sw	a5,44(s0)
	RF->RF2 |= 0x20000;
    2532:	441c                	lw	a5,8(s0)
    2534:	8fd9                	or	a5,a5,a4
    2536:	c41c                	sw	a5,8(s0)
	RF->RF1 |= 0x10;
    2538:	405c                	lw	a5,4(s0)
    253a:	0107e793          	ori	a5,a5,16
    253e:	c05c                	sw	a5,4(s0)
	uint32_t tune2401 = RFEND_TXCTune(37);
    2540:	ef8fe0ef          	jal	c38 <RFEND_TXCTune>
    2544:	842a                	mv	s0,a0
	uint8_t nGA2401 = (uint8_t)(tune2401 >> 24) & 0x7f;
    2546:	01855b13          	srli	s6,a0,0x18
	uint32_t tune2480 = RFEND_TXCTune(39);
    254a:	02700513          	li	a0,39
    254e:	eeafe0ef          	jal	c38 <RFEND_TXCTune>
    2552:	8a2a                	mv	s4,a0
	uint8_t nGA2480 = (uint8_t)(tune2480 >> 24) & 0x7f;
    2554:	01855c13          	srli	s8,a0,0x18
	uint32_t tune2440 = RFEND_TXCTune(18);
    2558:	4549                	li	a0,18
    255a:	edefe0ef          	jal	c38 <RFEND_TXCTune>
	uint32_t dCO0140 = nCO2401 - nCO2440;
    255e:	0ff57793          	zext.b	a5,a0
	uint8_t txctune_co[sizeof(RF->TXCTUNE_CO)] = {0};
    2562:	02800613          	li	a2,40
	uint32_t tune2440 = RFEND_TXCTune(18);
    2566:	892a                	mv	s2,a0
	uint8_t nGA2440 = (uint8_t)(tune2440 >> 24) & 0x7f;
    2568:	01855a93          	srli	s5,a0,0x18
	uint32_t dCO0140 = nCO2401 - nCO2440;
    256c:	0ff47413          	zext.b	s0,s0
	uint32_t dCO4080 = nCO2440 - nCO2480;
    2570:	0ffa7a13          	zext.b	s4,s4
	uint8_t txctune_co[sizeof(RF->TXCTUNE_CO)] = {0};
    2574:	4581                	li	a1,0
    2576:	8526                	mv	a0,s1
	uint32_t dCO0140 = nCO2401 - nCO2440;
    2578:	8c1d                	sub	s0,s0,a5
	uint32_t dCO4080 = nCO2440 - nCO2480;
    257a:	41478a33          	sub	s4,a5,s4
	uint8_t txctune_co[sizeof(RF->TXCTUNE_CO)] = {0};
    257e:	fc7fe0ef          	jal	1544 <memset>
	for(int f = 0; f < int_points; f++) {
    2582:	037406b3          	mul	a3,s0,s7
    2586:	4781                	li	a5,0
		tune = (dCO0140 * (int_points -f)) / int_points;
    2588:	865e                	mv	a2,s7
		txctune_co[f] = tune | (tune << 4);
    258a:	00f485b3          	add	a1,s1,a5
	for(int f = 0; f < int_points; f++) {
    258e:	0785                	addi	a5,a5,1
		tune = (dCO0140 * (int_points -f)) / int_points;
    2590:	0376d733          	divu	a4,a3,s7
	for(int f = 0; f < int_points; f++) {
    2594:	8e81                	sub	a3,a3,s0
		txctune_co[f] = tune | (tune << 4);
    2596:	0762                	slli	a4,a4,0x18
    2598:	8761                	srai	a4,a4,0x18
    259a:	00471513          	slli	a0,a4,0x4
    259e:	8f49                	or	a4,a4,a0
    25a0:	00e58023          	sb	a4,0(a1)
	for(int f = 0; f < int_points; f++) {
    25a4:	fec793e3          	bne	a5,a2,258a <main+0x350>
    25a8:	4681                	li	a3,0
		tune = (dCO4080 * (f -int_points)) / int_points;
    25aa:	4851                	li	a6,20
	for(int f = int_points; f < sizeof(RF->TXCTUNE_CO); f++) {
    25ac:	02800613          	li	a2,40
		tune = (dCO4080 * (f -int_points)) / int_points;
    25b0:	0306d733          	divu	a4,a3,a6
		txctune_co[f] = tune | (tune << 4);
    25b4:	00f485b3          	add	a1,s1,a5
	for(int f = int_points; f < sizeof(RF->TXCTUNE_CO); f++) {
    25b8:	0785                	addi	a5,a5,1
    25ba:	96d2                	add	a3,a3,s4
		txctune_co[f] = tune | (tune << 4);
    25bc:	0762                	slli	a4,a4,0x18
    25be:	8761                	srai	a4,a4,0x18
    25c0:	00471513          	slli	a0,a4,0x4
    25c4:	8f49                	or	a4,a4,a0
    25c6:	00e58023          	sb	a4,0(a1)
	for(int f = int_points; f < sizeof(RF->TXCTUNE_CO); f++) {
    25ca:	fec793e3          	bne	a5,a2,25b0 <main+0x376>
    25ce:	86a6                	mv	a3,s1
	for(int i = 0; i < sizeof(txctune_co) /4; i++) {
    25d0:	4701                	li	a4,0
		RF->TXCTUNE_CO[i] = ((uint32_t*)txctune_co)[i];
    25d2:	4000d537          	lui	a0,0x4000d
	for(int i = 0; i < sizeof(txctune_co) /4; i++) {
    25d6:	4629                	li	a2,10
		RF->TXCTUNE_CO[i] = ((uint32_t*)txctune_co)[i];
    25d8:	428c                	lw	a1,0(a3)
    25da:	02870793          	addi	a5,a4,40 # 20028 <firmware.c.57502c15+0x1b80a>
    25de:	078a                	slli	a5,a5,0x2
    25e0:	97aa                	add	a5,a5,a0
    25e2:	c38c                	sw	a1,0(a5)
	for(int i = 0; i < sizeof(txctune_co) /4; i++) {
    25e4:	0705                	addi	a4,a4,1
    25e6:	0691                	addi	a3,a3,4 # da000004 <_eusrstack+0xb9ffd004>
    25e8:	fec718e3          	bne	a4,a2,25d8 <main+0x39e>
	uint32_t dGA0140 = nGA2401 - nGA2440;
    25ec:	415b0633          	sub	a2,s6,s5
	uint32_t dGA4080 = nGA2440 - nGA2480;
    25f0:	4695                	li	a3,5
    25f2:	02d606b3          	mul	a3,a2,a3
    25f6:	418a8ab3          	sub	s5,s5,s8
	uint8_t txctune_ga[sizeof(RF->TXCTUNE_GA)] = {0};
    25fa:	c602                	sw	zero,12(sp)
    25fc:	c802                	sw	zero,16(sp)
    25fe:	ca02                	sw	zero,20(sp)
	for(int f = 1; f < int_points; f++) {
    2600:	4785                	li	a5,1
		tune = (dGA0140 * (int_points -f)) / int_points;
    2602:	4599                	li	a1,6
		txctune_ga[f] = tune | (tune << 4);
    2604:	00f98533          	add	a0,s3,a5
	for(int f = 1; f < int_points; f++) {
    2608:	0785                	addi	a5,a5,1
		tune = (dGA0140 * (int_points -f)) / int_points;
    260a:	02b6d733          	divu	a4,a3,a1
	for(int f = 1; f < int_points; f++) {
    260e:	8e91                	sub	a3,a3,a2
		txctune_ga[f] = tune | (tune << 4);
    2610:	0762                	slli	a4,a4,0x18
    2612:	8761                	srai	a4,a4,0x18
    2614:	00471813          	slli	a6,a4,0x4
    2618:	01076733          	or	a4,a4,a6
    261c:	00e50023          	sb	a4,0(a0) # 4000d000 <_eusrstack+0x2000a000>
	for(int f = 1; f < int_points; f++) {
    2620:	feb792e3          	bne	a5,a1,2604 <main+0x3ca>
    2624:	4681                	li	a3,0
		tune = (dGA4080 * (f -int_points)) / int_points;
    2626:	4819                	li	a6,6
	for(int f = int_points; f < sizeof(RF->TXCTUNE_GA) -1; f++) {
    2628:	462d                	li	a2,11
		tune = (dGA4080 * (f -int_points)) / int_points;
    262a:	0306d733          	divu	a4,a3,a6
		txctune_ga[f] = tune | (tune << 4);
    262e:	00f985b3          	add	a1,s3,a5
	for(int f = int_points; f < sizeof(RF->TXCTUNE_GA) -1; f++) {
    2632:	0785                	addi	a5,a5,1
    2634:	96d6                	add	a3,a3,s5
		txctune_ga[f] = tune | (tune << 4);
    2636:	0762                	slli	a4,a4,0x18
    2638:	8761                	srai	a4,a4,0x18
    263a:	00471513          	slli	a0,a4,0x4
    263e:	8f49                	or	a4,a4,a0
    2640:	00e58023          	sb	a4,0(a1)
	for(int f = int_points; f < sizeof(RF->TXCTUNE_GA) -1; f++) {
    2644:	fec793e3          	bne	a5,a2,262a <main+0x3f0>
		RF->TXCTUNE_GA[i] = ((uint32_t*)txctune_ga)[i];
    2648:	46b2                	lw	a3,12(sp)
    264a:	4000d7b7          	lui	a5,0x4000d
    264e:	08078713          	addi	a4,a5,128 # 4000d080 <_eusrstack+0x2000a080>
    2652:	c734                	sw	a3,72(a4)
    2654:	46c2                	lw	a3,16(sp)
	RF->RF10 |= 0x1000;
    2656:	6605                	lui	a2,0x1
		RF->TXCTUNE_GA[i] = ((uint32_t*)txctune_ga)[i];
    2658:	c774                	sw	a3,76(a4)
    265a:	46d2                	lw	a3,20(sp)
    265c:	cb34                	sw	a3,80(a4)
	RF->RF1 &= 0xffffffef;
    265e:	43d8                	lw	a4,4(a5)
	RF->TXTUNE_CTRL = (RF->TXTUNE_CTRL & 0xffffffc0) | (tune2440 & 0x3f);
    2660:	03f97693          	andi	a3,s2,63
	RF->RF1 &= 0xffffffef;
    2664:	9b3d                	andi	a4,a4,-17
    2666:	c3d8                	sw	a4,4(a5)
	RF->RF1 &= 0xfffffffe;
    2668:	43d8                	lw	a4,4(a5)
    266a:	9b79                	andi	a4,a4,-2
    266c:	c3d8                	sw	a4,4(a5)
	RF->RF10 |= 0x1000;
    266e:	5798                	lw	a4,40(a5)
    2670:	8f51                	or	a4,a4,a2
    2672:	d798                	sw	a4,40(a5)
	RF->RF11 |= 0x10;
    2674:	57d8                	lw	a4,44(a5)
    2676:	01076713          	ori	a4,a4,16
    267a:	d7d8                	sw	a4,44(a5)
	RF->TXTUNE_CTRL = (RF->TXTUNE_CTRL & 0xffffffc0) | (tune2440 & 0x3f);
    267c:	5f98                	lw	a4,56(a5)
    267e:	fc077713          	andi	a4,a4,-64
    2682:	8f55                	or	a4,a4,a3
    2684:	df98                	sw	a4,56(a5)
	RF->TXTUNE_CTRL = (RF->TXTUNE_CTRL & 0x80ffffff) | (tune2440 & 0x7f000000);
    2686:	5f98                	lw	a4,56(a5)
    2688:	810006b7          	lui	a3,0x81000
    268c:	16fd                	addi	a3,a3,-1 # 80ffffff <_eusrstack+0x60ffcfff>
    268e:	8f75                	and	a4,a4,a3
    2690:	7f0006b7          	lui	a3,0x7f000
    2694:	00d97933          	and	s2,s2,a3
    2698:	01276733          	or	a4,a4,s2
    269c:	df98                	sw	a4,56(a5)
	RF->RF1 |= 0x100;
    269e:	43d8                	lw	a4,4(a5)
	RF->RF20 &= 0xfffeffff;
    26a0:	76c1                	lui	a3,0xffff0
    26a2:	16fd                	addi	a3,a3,-1 # fffeffff <_eusrstack+0xdffecfff>
	RF->RF1 |= 0x100;
    26a4:	10076713          	ori	a4,a4,256
    26a8:	c3d8                	sw	a4,4(a5)
	RF->RF20 &= 0xfffeffff;
    26aa:	4bb8                	lw	a4,80(a5)
    26ac:	8f75                	and	a4,a4,a3
    26ae:	cbb8                	sw	a4,80(a5)
	RF->RF2 |= 0x200000;
    26b0:	4798                	lw	a4,8(a5)
    26b2:	002006b7          	lui	a3,0x200
    26b6:	8f55                	or	a4,a4,a3
    26b8:	c798                	sw	a4,8(a5)
	RF->RF3 = (RF->RF3 & 0xffffffef) | 0x10;
    26ba:	47d8                	lw	a4,12(a5)
	LL->TMR = 100;
    26bc:	06400693          	li	a3,100
	RF->RF3 = (RF->RF3 & 0xffffffef) | 0x10;
    26c0:	01076713          	ori	a4,a4,16
    26c4:	c7d8                	sw	a4,12(a5)
	RF->RF1 |= 0x1000;
    26c6:	43d8                	lw	a4,4(a5)
    26c8:	8f51                	or	a4,a4,a2
    26ca:	c3d8                	sw	a4,4(a5)
	LL->TMR = 100;
    26cc:	4000c737          	lui	a4,0x4000c
    26d0:	20070713          	addi	a4,a4,512 # 4000c200 <_eusrstack+0x20009200>
    26d4:	d374                	sw	a3,100(a4)
	while(LL->TMR && ((RF->RXTUNE >> 8) & 1));
    26d6:	5374                	lw	a3,100(a4)
    26d8:	c691                	beqz	a3,26e4 <main+0x4aa>
    26da:	09c7a683          	lw	a3,156(a5)
    26de:	1006f693          	andi	a3,a3,256
    26e2:	faf5                	bnez	a3,26d6 <main+0x49c>
	tuneFilter = RF->RXTUNE & 0x1f;
    26e4:	4000d7b7          	lui	a5,0x4000d
    26e8:	08078713          	addi	a4,a5,128 # 4000d080 <_eusrstack+0x2000a080>
    26ec:	4f58                	lw	a4,28(a4)
    26ee:	200026b7          	lui	a3,0x20002
	RF->RF20 |= 0x10000;
    26f2:	6641                	lui	a2,0x10
	tuneFilter = RF->RXTUNE & 0x1f;
    26f4:	8b7d                	andi	a4,a4,31
    26f6:	bee6a623          	sw	a4,-1044(a3) # 20001bec <tuneFilter>
	RF->RF20 |= 0x10000;
    26fa:	4bb8                	lw	a4,80(a5)
    26fc:	8f51                	or	a4,a4,a2
    26fe:	cbb8                	sw	a4,80(a5)
	RF->RF20 = (RF->RF20 & 0xffffffe0) | tuneFilter;
    2700:	4bb8                	lw	a4,80(a5)
    2702:	bec6a603          	lw	a2,-1044(a3)
    2706:	9b01                	andi	a4,a4,-32
    2708:	8f51                	or	a4,a4,a2
    270a:	cbb8                	sw	a4,80(a5)
	RF->RF2 &= 0xffdfffff;
    270c:	4798                	lw	a4,8(a5)
    270e:	ffe00637          	lui	a2,0xffe00
    2712:	167d                	addi	a2,a2,-1 # ffdfffff <_eusrstack+0xdfdfcfff>
    2714:	8f71                	and	a4,a4,a2
    2716:	c798                	sw	a4,8(a5)
	tuneFilter2M = (tuneFilter +2 < 0x1f) ? (tuneFilter +2) : 0x1f;
    2718:	bec6a703          	lw	a4,-1044(a3)
    271c:	4679                	li	a2,30
    271e:	47fd                	li	a5,31
    2720:	0709                	addi	a4,a4,2
    2722:	00e66563          	bltu	a2,a4,272c <main+0x4f2>
    2726:	bec6a783          	lw	a5,-1044(a3)
    272a:	0789                	addi	a5,a5,2
    272c:	20002737          	lui	a4,0x20002
    2730:	bef72823          	sw	a5,-1040(a4) # 20001bf0 <tuneFilter2M>
	RF->RF22 &= 0xfffeffff;
    2734:	4000d7b7          	lui	a5,0x4000d
    2738:	4fb8                	lw	a4,88(a5)
    273a:	76c1                	lui	a3,0xffff0
    273c:	16fd                	addi	a3,a3,-1 # fffeffff <_eusrstack+0xdffecfff>
    273e:	8f75                	and	a4,a4,a3
    2740:	cfb8                	sw	a4,88(a5)
	RF->RF2 |= 0x10000;
    2742:	4798                	lw	a4,8(a5)
    2744:	66c1                	lui	a3,0x10
	DevSetMode(0);
    2746:	4501                	li	a0,0
	RF->RF2 |= 0x10000;
    2748:	8f55                	or	a4,a4,a3
    274a:	c798                	sw	a4,8(a5)
	RF->RF3 = (RF->RF3 & 0xfffffeff) | 0x100;
    274c:	47d8                	lw	a4,12(a5)
	RF->RF1 = (RF->RF1 & 0xfffeffff) | 0x100000;
    274e:	ffef06b7          	lui	a3,0xffef0
    2752:	16fd                	addi	a3,a3,-1 # ffeeffff <_eusrstack+0xdfeecfff>
	RF->RF3 = (RF->RF3 & 0xfffffeff) | 0x100;
    2754:	10076713          	ori	a4,a4,256
    2758:	c7d8                	sw	a4,12(a5)
	RF->RF1 = (RF->RF1 & 0xfffeffff) | 0x100000;
    275a:	43d8                	lw	a4,4(a5)

	game = &gameUnion.template;

	SelectMode( 0 ); // Menu mode

	uint32_t lastClickedMask = 0;
    275c:	4a81                	li	s5,0
	unsigned lastStart = 0;
    275e:	4901                	li	s2,0
    2760:	8f75                	and	a4,a4,a3
    2762:	001006b7          	lui	a3,0x100
    2766:	8f55                	or	a4,a4,a3
    2768:	c3d8                	sw	a4,4(a5)
	DevSetMode(0);
    276a:	c80fe0ef          	jal	bea <DevSetMode>
	NVIC->IPRIOR[0x15] |= 0x80;
    276e:	e000e7b7          	lui	a5,0xe000e
    2772:	4157c703          	lbu	a4,1045(a5) # e000e415 <_eusrstack+0xc000b415>
	Frame_RX(ACCESS_ADDRESS, channel, PHY_MODE);
    2776:	8e89c537          	lui	a0,0x8e89c
    277a:	4605                	li	a2,1
    277c:	08076713          	ori	a4,a4,128
    2780:	40e78aa3          	sb	a4,1045(a5)
	NVIC->IENR[((uint32_t)(IRQn) >> 5)] = (1 << ((uint32_t)(IRQn) & 0x1F));
    2784:	00200737          	lui	a4,0x200
    2788:	10e7a023          	sw	a4,256(a5)
    278c:	45b9                	li	a1,14
    278e:	ed650513          	addi	a0,a0,-298 # 8e89bed6 <_eusrstack+0x6e898ed6>
    2792:	1fffe097          	auipc	ra,0x1fffe
    2796:	9fa080e7          	jalr	-1542(ra) # 2000018c <iSLERRX>
			EnterMenuMode( &gameUnion.menu );
    279a:	4c21                	li	s8,8
    279c:	dbbfe0ef          	jal	1556 <EnterMenuMode.constprop.0>
	uint32_t lastClickedMask = 0;
    27a0:	10000c93          	li	s9,256
    27a4:	20000d13          	li	s10,512
		switch( btn )
    27a8:	4b85                	li	s7,1
    27aa:	4d89                	li	s11,2
		if( *((uint32_t*)0x4fff0000) == 0xaaaaaaaa )
    27ac:	4fff0b37          	lui	s6,0x4fff0
    27b0:	aaaaba37          	lui	s4,0xaaaab
    27b4:	89a6                	mv	s3,s1
	for( btn = 0; btn < 4; btn++ )
    27b6:	4401                	li	s0,0
		if( *((uint32_t*)0x4fff0000) == 0xaaaaaaaa )
    27b8:	aaaa0a13          	addi	s4,s4,-1366 # aaaaaaaa <_eusrstack+0x8aaa7aaa>
	switch(mode) {
    27bc:	4521                	li	a0,8
    27be:	e78fe0ef          	jal	e36 <funPinMode.part.0>
    27c2:	10000513          	li	a0,256
    27c6:	e70fe0ef          	jal	e36 <funPinMode.part.0>
    27ca:	20000513          	li	a0,512
    27ce:	e68fe0ef          	jal	e36 <funPinMode.part.0>
		switch( btn )
    27d2:	0d740563          	beq	s0,s7,289c <main+0x662>
    27d6:	0db40c63          	beq	s0,s11,28ae <main+0x674>
    27da:	e809                	bnez	s0,27ec <main+0x5b2>
			funPinMode( PA8, GPIO_CFGLR_OUT_10Mhz_PP );
    27dc:	10000513          	li	a0,256
    27e0:	a1ffe0ef          	jal	11fe <funPinMode.constprop.0>
			funDigitalWrite( PA3, 1 );
    27e4:	400017b7          	lui	a5,0x40001
    27e8:	0b87ac23          	sw	s8,184(a5) # 400010b8 <_eusrstack+0x1fffe0b8>
		if( *((uint32_t*)0x4fff0000) == 0xaaaaaaaa )
    27ec:	000b2783          	lw	a5,0(s6) # 4fff0000 <_eusrstack+0x2ffed000>
    27f0:	0d479763          	bne	a5,s4,28be <main+0x684>
			p = *((uint32_t*)(0x4fff0004+4*btn));
    27f4:	00241793          	slli	a5,s0,0x2
    27f8:	97da                	add	a5,a5,s6
    27fa:	43dc                	lw	a5,4(a5)
		uint32_t fe = frameentropy;
    27fc:	20002737          	lui	a4,0x20002
    2800:	be072683          	lw	a3,-1056(a4) # 20001be0 <frameentropy>
		pressures[btn] = p;
    2804:	00f9a023          	sw	a5,0(s3)
	for( btn = 0; btn < 4; btn++ )
    2808:	0405                	addi	s0,s0,1 # 4000d001 <_eusrstack+0x2000a001>
		fe += p;
    280a:	97b6                	add	a5,a5,a3
		fe ^= fe << 10;
    280c:	00a79693          	slli	a3,a5,0xa
    2810:	8fb5                	xor	a5,a5,a3
		fe ^= fe << 21;
    2812:	01579693          	slli	a3,a5,0x15
    2816:	8fb5                	xor	a5,a5,a3
		frameentropy = fe;
    2818:	bef72023          	sw	a5,-1056(a4)
	for( btn = 0; btn < 4; btn++ )
    281c:	4791                	li	a5,4
    281e:	0991                	addi	s3,s3,4
    2820:	f8f41ee3          	bne	s0,a5,27bc <main+0x582>
		// TODO: Make this debounce.
		int i;
		uint32_t clickedMask = 0;
		for( i = 0; i < 3; i++ )
		{
			if( pressures[i] > 5000 ) clickedMask |= 1<<i;
    2824:	4462                	lw	s0,24(sp)
    2826:	6785                	lui	a5,0x1
    2828:	38878793          	addi	a5,a5,904 # 1388 <mini_vpprintf+0xa0>
    282c:	4772                	lw	a4,28(sp)
    282e:	0087b433          	sltu	s0,a5,s0
    2832:	6785                	lui	a5,0x1
    2834:	38878793          	addi	a5,a5,904 # 1388 <mini_vpprintf+0xa0>
    2838:	00e7f463          	bgeu	a5,a4,2840 <main+0x606>
    283c:	00246413          	ori	s0,s0,2
    2840:	5702                	lw	a4,32(sp)
    2842:	00e7f463          	bgeu	a5,a4,284a <main+0x610>
    2846:	00446413          	ori	s0,s0,4
		}

		unsigned now = SysTick->CNT;
    284a:	e000f7b7          	lui	a5,0xe000f
    284e:	0087a983          	lw	s3,8(a5) # e000f008 <_eusrstack+0xc000c008>
		unsigned deltaUS = (now - lastStart)/48; // Wacky math to make sure we don't lose microseconds.
		//printf("%d,%d,%d\n",now,lastStart,deltaUS);
		if( gameUnion.template.Update )
    2852:	20002537          	lui	a0,0x20002
		unsigned deltaUS = (now - lastStart)/48; // Wacky math to make sure we don't lose microseconds.
    2856:	03000793          	li	a5,48
    285a:	412989b3          	sub	s3,s3,s2
    285e:	02f9d9b3          	divu	s3,s3,a5
		if( gameUnion.template.Update )
    2862:	bf850793          	addi	a5,a0,-1032 # 20001bf8 <gameUnion>
    2866:	439c                	lw	a5,0(a5)
    2868:	cb81                	beqz	a5,2878 <main+0x63e>
		{
			gameUnion.template.Update( &gameUnion, deltaUS, pressures, clickedMask, lastClickedMask );
    286a:	8756                	mv	a4,s5
    286c:	86a2                	mv	a3,s0
    286e:	8626                	mv	a2,s1
    2870:	85ce                	mv	a1,s3
    2872:	bf850513          	addi	a0,a0,-1032
    2876:	9782                	jalr	a5
		}
		lastStart += deltaUS * 48;
    2878:	03000793          	li	a5,48
    287c:	02f989b3          	mul	s3,s3,a5
    2880:	994e                	add	s2,s2,s3
		frameno++;

		// EMULATOR ONLY! BB19 contains a pointer to an incoming packet.
		while( BB->BB19 )
    2882:	4000c9b7          	lui	s3,0x4000c
    2886:	10098993          	addi	s3,s3,256 # 4000c100 <_eusrstack+0x20009100>
    288a:	04c9a783          	lw	a5,76(s3)
    288e:	e7b5                	bnez	a5,28fa <main+0x6c0>

	int rssi = ReadRSSI();
	int len = frame[0];
	ISLERCallback( frame+2, frame+10, len+4, rssi );
}*/
		lastClickedMask = clickedMask;
    2890:	8aa2                	mv	s5,s0
	{
    2892:	bf39                	j	27b0 <main+0x576>
		if(ssd1306_cmd(*cmd_list++))
    2894:	0405                	addi	s0,s0,1
    2896:	8dbfe0ef          	jal	1170 <ssd1306_cmd.isra.0>
    289a:	b611                	j	239e <main+0x164>
			funPinMode( PA9, GPIO_CFGLR_OUT_10Mhz_PP );
    289c:	20000513          	li	a0,512
    28a0:	95ffe0ef          	jal	11fe <funPinMode.constprop.0>
			funDigitalWrite( PA8, 1 );
    28a4:	400017b7          	lui	a5,0x40001
    28a8:	0b97ac23          	sw	s9,184(a5) # 400010b8 <_eusrstack+0x1fffe0b8>
			break;
    28ac:	b781                	j	27ec <main+0x5b2>
			funPinMode( PA3, GPIO_CFGLR_OUT_10Mhz_PP );
    28ae:	4521                	li	a0,8
    28b0:	94ffe0ef          	jal	11fe <funPinMode.constprop.0>
			funDigitalWrite( PA9, 1 );
    28b4:	400017b7          	lui	a5,0x40001
    28b8:	0ba7ac23          	sw	s10,184(a5) # 400010b8 <_eusrstack+0x1fffe0b8>
			break;
    28bc:	bf05                	j	27ec <main+0x5b2>
			lastfifo = 0;
    28be:	20002737          	lui	a4,0x20002
    28c2:	be072423          	sw	zero,-1048(a4) # 20001be8 <lastfifo>
			EventRelease();
    28c6:	1fffd097          	auipc	ra,0x1fffd
    28ca:	73a080e7          	jalr	1850(ra) # 20000000 <EventRelease>
			while( !lastfifo && --to );
    28ce:	6785                	lui	a5,0x1
    28d0:	fa078793          	addi	a5,a5,-96 # fa0 <ssd1306_drawFastVLine.constprop.0+0x1a>
    28d4:	20002737          	lui	a4,0x20002
    28d8:	be872683          	lw	a3,-1048(a4) # 20001be8 <lastfifo>
    28dc:	e299                	bnez	a3,28e2 <main+0x6a8>
    28de:	17fd                	addi	a5,a5,-1
    28e0:	ffe5                	bnez	a5,28d8 <main+0x69e>
			int r = lastfifo - 2; // 2 cycles back.
    28e2:	be872703          	lw	a4,-1048(a4)
			int vtot = COEFFICIENT/r + ((const uint32_t)(VREF*FIXEDPOINT_SCALE));
    28e6:	0034e7b7          	lui	a5,0x34e
    28ea:	f2878793          	addi	a5,a5,-216 # 34df28 <firmware.c.57502c15+0x34970a>
			int r = lastfifo - 2; // 2 cycles back.
    28ee:	1779                	addi	a4,a4,-2
			int vtot = COEFFICIENT/r + ((const uint32_t)(VREF*FIXEDPOINT_SCALE));
    28f0:	02e7d7b3          	divu	a5,a5,a4
    28f4:	06978793          	addi	a5,a5,105
    28f8:	b711                	j	27fc <main+0x5c2>
			ISLER_BEANBOY_INTERNAL_CALLBACK();
    28fa:	dfeff0ef          	jal	1ef8 <ISLER_BEANBOY_INTERNAL_CALLBACK>
			BB->BB19 = 0;
    28fe:	0409a623          	sw	zero,76(s3)
    2902:	b761                	j	288a <main+0x650>

00002904 <ModeTestLoop>:
{
    2904:	1141                	addi	sp,sp,-16
    2906:	c606                	sw	ra,12(sp)
	CoreLoop();
    2908:	1fffe097          	auipc	ra,0x1fffe
    290c:	f0a080e7          	jalr	-246(ra) # 20000812 <CoreLoop>

00002910 <__udivdi3>:
    2910:	8832                	mv	a6,a2
    2912:	88aa                	mv	a7,a0
    2914:	872e                	mv	a4,a1
    2916:	ead5                	bnez	a3,29ca <__udivdi3+0xba>
    2918:	0ec5ff63          	bgeu	a1,a2,2a16 <__udivdi3+0x106>
    291c:	67c1                	lui	a5,0x10
    291e:	18f66c63          	bltu	a2,a5,2ab6 <__udivdi3+0x1a6>
    2922:	010007b7          	lui	a5,0x1000
    2926:	46e1                	li	a3,24
    2928:	00f67363          	bgeu	a2,a5,292e <__udivdi3+0x1e>
    292c:	46c1                	li	a3,16
    292e:	00d65333          	srl	t1,a2,a3
    2932:	00001797          	auipc	a5,0x1
    2936:	dda78793          	addi	a5,a5,-550 # 370c <__clz_tab>
    293a:	979a                	add	a5,a5,t1
    293c:	0007c783          	lbu	a5,0(a5)
    2940:	02000313          	li	t1,32
    2944:	97b6                	add	a5,a5,a3
    2946:	40f306b3          	sub	a3,t1,a5
    294a:	00f30b63          	beq	t1,a5,2960 <__udivdi3+0x50>
    294e:	00d59733          	sll	a4,a1,a3
    2952:	00f557b3          	srl	a5,a0,a5
    2956:	8f5d                	or	a4,a4,a5
    2958:	00d61833          	sll	a6,a2,a3
    295c:	00d518b3          	sll	a7,a0,a3
    2960:	01085613          	srli	a2,a6,0x10
    2964:	02c75533          	divu	a0,a4,a2
    2968:	01081693          	slli	a3,a6,0x10
    296c:	82c1                	srli	a3,a3,0x10
    296e:	0108d793          	srli	a5,a7,0x10
    2972:	02c77733          	remu	a4,a4,a2
    2976:	02a685b3          	mul	a1,a3,a0
    297a:	0742                	slli	a4,a4,0x10
    297c:	8fd9                	or	a5,a5,a4
    297e:	00b7fa63          	bgeu	a5,a1,2992 <__udivdi3+0x82>
    2982:	97c2                	add	a5,a5,a6
    2984:	fff50713          	addi	a4,a0,-1
    2988:	0107e463          	bltu	a5,a6,2990 <__udivdi3+0x80>
    298c:	30b7ee63          	bltu	a5,a1,2ca8 <__udivdi3+0x398>
    2990:	853a                	mv	a0,a4
    2992:	8f8d                	sub	a5,a5,a1
    2994:	02c7d733          	divu	a4,a5,a2
    2998:	08c2                	slli	a7,a7,0x10
    299a:	0108d893          	srli	a7,a7,0x10
    299e:	02c7f7b3          	remu	a5,a5,a2
    29a2:	02e686b3          	mul	a3,a3,a4
    29a6:	07c2                	slli	a5,a5,0x10
    29a8:	00f8e8b3          	or	a7,a7,a5
    29ac:	00d8fb63          	bgeu	a7,a3,29c2 <__udivdi3+0xb2>
    29b0:	98c2                	add	a7,a7,a6
    29b2:	fff70793          	addi	a5,a4,-1
    29b6:	0108e563          	bltu	a7,a6,29c0 <__udivdi3+0xb0>
    29ba:	1779                	addi	a4,a4,-2
    29bc:	00d8e363          	bltu	a7,a3,29c2 <__udivdi3+0xb2>
    29c0:	873e                	mv	a4,a5
    29c2:	0542                	slli	a0,a0,0x10
    29c4:	8d59                	or	a0,a0,a4
    29c6:	4581                	li	a1,0
    29c8:	8082                	ret
    29ca:	00d5f563          	bgeu	a1,a3,29d4 <__udivdi3+0xc4>
    29ce:	4581                	li	a1,0
    29d0:	4501                	li	a0,0
    29d2:	8082                	ret
    29d4:	67c1                	lui	a5,0x10
    29d6:	18f6e863          	bltu	a3,a5,2b66 <__udivdi3+0x256>
    29da:	01000737          	lui	a4,0x1000
    29de:	47e1                	li	a5,24
    29e0:	00e6f363          	bgeu	a3,a4,29e6 <__udivdi3+0xd6>
    29e4:	47c1                	li	a5,16
    29e6:	00f6d833          	srl	a6,a3,a5
    29ea:	00001717          	auipc	a4,0x1
    29ee:	d2270713          	addi	a4,a4,-734 # 370c <__clz_tab>
    29f2:	9742                	add	a4,a4,a6
    29f4:	00074703          	lbu	a4,0(a4)
    29f8:	02000813          	li	a6,32
    29fc:	973e                	add	a4,a4,a5
    29fe:	40e808b3          	sub	a7,a6,a4
    2a02:	18e81763          	bne	a6,a4,2b90 <__udivdi3+0x280>
    2a06:	28b6e363          	bltu	a3,a1,2c8c <__udivdi3+0x37c>
    2a0a:	00c53533          	sltu	a0,a0,a2
    2a0e:	00153513          	seqz	a0,a0
    2a12:	4581                	li	a1,0
    2a14:	8082                	ret
    2a16:	c655                	beqz	a2,2ac2 <__udivdi3+0x1b2>
    2a18:	67c1                	lui	a5,0x10
    2a1a:	26f67163          	bgeu	a2,a5,2c7c <__udivdi3+0x36c>
    2a1e:	10063713          	sltiu	a4,a2,256
    2a22:	00173713          	seqz	a4,a4
    2a26:	070e                	slli	a4,a4,0x3
    2a28:	00e656b3          	srl	a3,a2,a4
    2a2c:	00001797          	auipc	a5,0x1
    2a30:	ce078793          	addi	a5,a5,-800 # 370c <__clz_tab>
    2a34:	97b6                	add	a5,a5,a3
    2a36:	0007c783          	lbu	a5,0(a5)
    2a3a:	02000693          	li	a3,32
    2a3e:	97ba                	add	a5,a5,a4
    2a40:	40f68eb3          	sub	t4,a3,a5
    2a44:	08f69f63          	bne	a3,a5,2ae2 <__udivdi3+0x1d2>
    2a48:	40c587b3          	sub	a5,a1,a2
    2a4c:	01065693          	srli	a3,a2,0x10
    2a50:	0642                	slli	a2,a2,0x10
    2a52:	8241                	srli	a2,a2,0x10
    2a54:	4585                	li	a1,1
    2a56:	02d7d533          	divu	a0,a5,a3
    2a5a:	0108d713          	srli	a4,a7,0x10
    2a5e:	02d7f7b3          	remu	a5,a5,a3
    2a62:	02c50333          	mul	t1,a0,a2
    2a66:	07c2                	slli	a5,a5,0x10
    2a68:	8fd9                	or	a5,a5,a4
    2a6a:	0067fa63          	bgeu	a5,t1,2a7e <__udivdi3+0x16e>
    2a6e:	97c2                	add	a5,a5,a6
    2a70:	fff50713          	addi	a4,a0,-1
    2a74:	0107e463          	bltu	a5,a6,2a7c <__udivdi3+0x16c>
    2a78:	2267e563          	bltu	a5,t1,2ca2 <__udivdi3+0x392>
    2a7c:	853a                	mv	a0,a4
    2a7e:	406787b3          	sub	a5,a5,t1
    2a82:	02d7d733          	divu	a4,a5,a3
    2a86:	08c2                	slli	a7,a7,0x10
    2a88:	0108d893          	srli	a7,a7,0x10
    2a8c:	02d7f7b3          	remu	a5,a5,a3
    2a90:	02c70633          	mul	a2,a4,a2
    2a94:	07c2                	slli	a5,a5,0x10
    2a96:	00f8e8b3          	or	a7,a7,a5
    2a9a:	00c8fb63          	bgeu	a7,a2,2ab0 <__udivdi3+0x1a0>
    2a9e:	98c2                	add	a7,a7,a6
    2aa0:	fff70793          	addi	a5,a4,-1
    2aa4:	0108e563          	bltu	a7,a6,2aae <__udivdi3+0x19e>
    2aa8:	1779                	addi	a4,a4,-2
    2aaa:	00c8e363          	bltu	a7,a2,2ab0 <__udivdi3+0x1a0>
    2aae:	873e                	mv	a4,a5
    2ab0:	0542                	slli	a0,a0,0x10
    2ab2:	8d59                	or	a0,a0,a4
    2ab4:	8082                	ret
    2ab6:	10063693          	sltiu	a3,a2,256
    2aba:	0016b693          	seqz	a3,a3
    2abe:	068e                	slli	a3,a3,0x3
    2ac0:	b5bd                	j	292e <__udivdi3+0x1e>
    2ac2:	4681                	li	a3,0
    2ac4:	00001797          	auipc	a5,0x1
    2ac8:	c4878793          	addi	a5,a5,-952 # 370c <__clz_tab>
    2acc:	97b6                	add	a5,a5,a3
    2ace:	0007c783          	lbu	a5,0(a5)
    2ad2:	4701                	li	a4,0
    2ad4:	02000693          	li	a3,32
    2ad8:	97ba                	add	a5,a5,a4
    2ada:	40f68eb3          	sub	t4,a3,a5
    2ade:	f6f685e3          	beq	a3,a5,2a48 <__udivdi3+0x138>
    2ae2:	01d61833          	sll	a6,a2,t4
    2ae6:	00f5d333          	srl	t1,a1,a5
    2aea:	01085693          	srli	a3,a6,0x10
    2aee:	02d35e33          	divu	t3,t1,a3
    2af2:	01081613          	slli	a2,a6,0x10
    2af6:	01d595b3          	sll	a1,a1,t4
    2afa:	8241                	srli	a2,a2,0x10
    2afc:	00f557b3          	srl	a5,a0,a5
    2b00:	8fcd                	or	a5,a5,a1
    2b02:	0107d713          	srli	a4,a5,0x10
    2b06:	01d518b3          	sll	a7,a0,t4
    2b0a:	02d37333          	remu	t1,t1,a3
    2b0e:	03c605b3          	mul	a1,a2,t3
    2b12:	0342                	slli	t1,t1,0x10
    2b14:	00676733          	or	a4,a4,t1
    2b18:	00b77b63          	bgeu	a4,a1,2b2e <__udivdi3+0x21e>
    2b1c:	9742                	add	a4,a4,a6
    2b1e:	fffe0513          	addi	a0,t3,-1
    2b22:	17076c63          	bltu	a4,a6,2c9a <__udivdi3+0x38a>
    2b26:	16b77a63          	bgeu	a4,a1,2c9a <__udivdi3+0x38a>
    2b2a:	1e79                	addi	t3,t3,-2
    2b2c:	9742                	add	a4,a4,a6
    2b2e:	8f0d                	sub	a4,a4,a1
    2b30:	02d75533          	divu	a0,a4,a3
    2b34:	07c2                	slli	a5,a5,0x10
    2b36:	83c1                	srli	a5,a5,0x10
    2b38:	02d77733          	remu	a4,a4,a3
    2b3c:	02a60333          	mul	t1,a2,a0
    2b40:	0742                	slli	a4,a4,0x10
    2b42:	8fd9                	or	a5,a5,a4
    2b44:	0067fb63          	bgeu	a5,t1,2b5a <__udivdi3+0x24a>
    2b48:	97c2                	add	a5,a5,a6
    2b4a:	fff50713          	addi	a4,a0,-1
    2b4e:	1507e263          	bltu	a5,a6,2c92 <__udivdi3+0x382>
    2b52:	1467f063          	bgeu	a5,t1,2c92 <__udivdi3+0x382>
    2b56:	1579                	addi	a0,a0,-2
    2b58:	97c2                	add	a5,a5,a6
    2b5a:	010e1593          	slli	a1,t3,0x10
    2b5e:	8dc9                	or	a1,a1,a0
    2b60:	406787b3          	sub	a5,a5,t1
    2b64:	bdcd                	j	2a56 <__udivdi3+0x146>
    2b66:	1006b793          	sltiu	a5,a3,256
    2b6a:	0017b793          	seqz	a5,a5
    2b6e:	078e                	slli	a5,a5,0x3
    2b70:	00f6d833          	srl	a6,a3,a5
    2b74:	00001717          	auipc	a4,0x1
    2b78:	b9870713          	addi	a4,a4,-1128 # 370c <__clz_tab>
    2b7c:	9742                	add	a4,a4,a6
    2b7e:	00074703          	lbu	a4,0(a4)
    2b82:	02000813          	li	a6,32
    2b86:	973e                	add	a4,a4,a5
    2b88:	40e808b3          	sub	a7,a6,a4
    2b8c:	e6e80de3          	beq	a6,a4,2a06 <__udivdi3+0xf6>
    2b90:	00e65e33          	srl	t3,a2,a4
    2b94:	011696b3          	sll	a3,a3,a7
    2b98:	00de6e33          	or	t3,t3,a3
    2b9c:	00e5d833          	srl	a6,a1,a4
    2ba0:	010e5e93          	srli	t4,t3,0x10
    2ba4:	03d857b3          	divu	a5,a6,t4
    2ba8:	010e1313          	slli	t1,t3,0x10
    2bac:	011595b3          	sll	a1,a1,a7
    2bb0:	01035313          	srli	t1,t1,0x10
    2bb4:	00e55733          	srl	a4,a0,a4
    2bb8:	8f4d                	or	a4,a4,a1
    2bba:	01075693          	srli	a3,a4,0x10
    2bbe:	01161633          	sll	a2,a2,a7
    2bc2:	03d87833          	remu	a6,a6,t4
    2bc6:	02f305b3          	mul	a1,t1,a5
    2bca:	0842                	slli	a6,a6,0x10
    2bcc:	0106e6b3          	or	a3,a3,a6
    2bd0:	00b6fb63          	bgeu	a3,a1,2be6 <__udivdi3+0x2d6>
    2bd4:	96f2                	add	a3,a3,t3
    2bd6:	fff78813          	addi	a6,a5,-1
    2bda:	0dc6e263          	bltu	a3,t3,2c9e <__udivdi3+0x38e>
    2bde:	0cb6f063          	bgeu	a3,a1,2c9e <__udivdi3+0x38e>
    2be2:	17f9                	addi	a5,a5,-2
    2be4:	96f2                	add	a3,a3,t3
    2be6:	8e8d                	sub	a3,a3,a1
    2be8:	03d6d833          	divu	a6,a3,t4
    2bec:	0742                	slli	a4,a4,0x10
    2bee:	8341                	srli	a4,a4,0x10
    2bf0:	03d6f6b3          	remu	a3,a3,t4
    2bf4:	030305b3          	mul	a1,t1,a6
    2bf8:	06c2                	slli	a3,a3,0x10
    2bfa:	8f55                	or	a4,a4,a3
    2bfc:	00b77b63          	bgeu	a4,a1,2c12 <__udivdi3+0x302>
    2c00:	9772                	add	a4,a4,t3
    2c02:	fff80693          	addi	a3,a6,-1 # 7fffffff <_eusrstack+0x5fffcfff>
    2c06:	09c76863          	bltu	a4,t3,2c96 <__udivdi3+0x386>
    2c0a:	08b77663          	bgeu	a4,a1,2c96 <__udivdi3+0x386>
    2c0e:	1879                	addi	a6,a6,-2
    2c10:	9772                	add	a4,a4,t3
    2c12:	07c2                	slli	a5,a5,0x10
    2c14:	01081693          	slli	a3,a6,0x10
    2c18:	01061313          	slli	t1,a2,0x10
    2c1c:	0107e7b3          	or	a5,a5,a6
    2c20:	82c1                	srli	a3,a3,0x10
    2c22:	01035313          	srli	t1,t1,0x10
    2c26:	0107d813          	srli	a6,a5,0x10
    2c2a:	8241                	srli	a2,a2,0x10
    2c2c:	02680e33          	mul	t3,a6,t1
    2c30:	8f0d                	sub	a4,a4,a1
    2c32:	02668333          	mul	t1,a3,t1
    2c36:	02c686b3          	mul	a3,a3,a2
    2c3a:	01035593          	srli	a1,t1,0x10
    2c3e:	96f2                	add	a3,a3,t3
    2c40:	96ae                	add	a3,a3,a1
    2c42:	02c80833          	mul	a6,a6,a2
    2c46:	01c6f463          	bgeu	a3,t3,2c4e <__udivdi3+0x33e>
    2c4a:	6641                	lui	a2,0x10
    2c4c:	9832                	add	a6,a6,a2
    2c4e:	0106d613          	srli	a2,a3,0x10
    2c52:	9642                	add	a2,a2,a6
    2c54:	02c76063          	bltu	a4,a2,2c74 <__udivdi3+0x364>
    2c58:	00c70563          	beq	a4,a2,2c62 <__udivdi3+0x352>
    2c5c:	853e                	mv	a0,a5
    2c5e:	4581                	li	a1,0
    2c60:	8082                	ret
    2c62:	0342                	slli	t1,t1,0x10
    2c64:	01035313          	srli	t1,t1,0x10
    2c68:	06c2                	slli	a3,a3,0x10
    2c6a:	01151533          	sll	a0,a0,a7
    2c6e:	969a                	add	a3,a3,t1
    2c70:	fed576e3          	bgeu	a0,a3,2c5c <__udivdi3+0x34c>
    2c74:	fff78513          	addi	a0,a5,-1
    2c78:	4581                	li	a1,0
    2c7a:	8082                	ret
    2c7c:	010007b7          	lui	a5,0x1000
    2c80:	02f67763          	bgeu	a2,a5,2cae <__udivdi3+0x39e>
    2c84:	01065693          	srli	a3,a2,0x10
    2c88:	4741                	li	a4,16
    2c8a:	b34d                	j	2a2c <__udivdi3+0x11c>
    2c8c:	4581                	li	a1,0
    2c8e:	4505                	li	a0,1
    2c90:	8082                	ret
    2c92:	853a                	mv	a0,a4
    2c94:	b5d9                	j	2b5a <__udivdi3+0x24a>
    2c96:	8836                	mv	a6,a3
    2c98:	bfad                	j	2c12 <__udivdi3+0x302>
    2c9a:	8e2a                	mv	t3,a0
    2c9c:	bd49                	j	2b2e <__udivdi3+0x21e>
    2c9e:	87c2                	mv	a5,a6
    2ca0:	b799                	j	2be6 <__udivdi3+0x2d6>
    2ca2:	1579                	addi	a0,a0,-2
    2ca4:	97c2                	add	a5,a5,a6
    2ca6:	bbe1                	j	2a7e <__udivdi3+0x16e>
    2ca8:	1579                	addi	a0,a0,-2
    2caa:	97c2                	add	a5,a5,a6
    2cac:	b1dd                	j	2992 <__udivdi3+0x82>
    2cae:	01865693          	srli	a3,a2,0x18
    2cb2:	4761                	li	a4,24
    2cb4:	bba5                	j	2a2c <__udivdi3+0x11c>
    2cb6:	0000                	unimp
    2cb8:	6150                	.insn	2, 0x6150
    2cba:	74207373          	.insn	4, 0x74207373
    2cbe:	6568                	.insn	2, 0x6568
    2cc0:	5020                	lw	s0,96(s0)
    2cc2:	6675                	lui	a2,0x1d
    2cc4:	6566                	.insn	2, 0x6566
    2cc6:	2172                	.insn	2, 0x2172
    2cc8:	0000                	unimp
    2cca:	0000                	unimp
    2ccc:	502d                	c.li	zero,-21
    2cce:	6572                	.insn	2, 0x6572
    2cd0:	43207373          	.insn	4, 0x43207373
    2cd4:	7420                	.insn	2, 0x7420
    2cd6:	6f50206f          	j	5bca <firmware.c.57502c15+0x13ac>
    2cda:	0000656b          	.insn	4, 0x656b
    2cde:	0000                	unimp
    2ce0:	472d                	li	a4,11
    2ce2:	7465                	lui	s0,0xffff9
    2ce4:	7220                	.insn	2, 0x7220
    2ce6:	6469                	lui	s0,0x1a
    2ce8:	6f20                	.insn	2, 0x6f20
    2cea:	2066                	.insn	2, 0x2066
    2cec:	6968                	.insn	2, 0x6968
    2cee:	006d                	c.nop	27
    2cf0:	6220                	.insn	2, 0x6220
    2cf2:	6665                	lui	a2,0x19
    2cf4:	2065726f          	jal	tp,59efa <firmware.c.57502c15+0x556dc>
    2cf8:	6568                	.insn	2, 0x6568
    2cfa:	7020                	.insn	2, 0x7020
    2cfc:	2173706f          	j	3a712 <firmware.c.57502c15+0x35ef4>
    2d00:	0000                	unimp
    2d02:	0000                	unimp
    2d04:	502d                	c.li	zero,-21
    2d06:	6572                	.insn	2, 0x6572
    2d08:	52207373          	.insn	4, 0x52207373
    2d0c:	7420                	.insn	2, 0x7420
    2d0e:	7020006f          	j	3410 <fontdata+0x584>
    2d12:	616c                	.insn	2, 0x616c
    2d14:	2079                	jal	2da2 <__udivdi3+0x492>
    2d16:	6761                	lui	a4,0x18
    2d18:	6961                	lui	s2,0x18
    2d1a:	216e                	.insn	2, 0x216e
    2d1c:	0000                	unimp
    2d1e:	0000                	unimp
    2d20:	656d6147          	.insn	4, 0x656d6147
    2d24:	4f20                	lw	s0,88(a4)
    2d26:	6576                	.insn	2, 0x6576
    2d28:	2172                	.insn	2, 0x2172
    2d2a:	0000                	unimp
    2d2c:	6f59                	lui	t5,0x16
    2d2e:	7275                	lui	tp,0xffffd
    2d30:	5320                	lw	s0,96(a4)
    2d32:	65726f63          	bltu	tp,s7,3390 <fontdata+0x504>
    2d36:	003a                	c.slli	zero,0xe
    2d38:	3325                	jal	2a60 <__udivdi3+0x150>
    2d3a:	0064                	addi	s1,sp,12
    2d3c:	2052                	.insn	2, 0x2052
    2d3e:	6f74                	.insn	2, 0x6f74
    2d40:	5220                	lw	s0,96(a2)
    2d42:	7365                	lui	t1,0xffff9
    2d44:	6174                	.insn	2, 0x6174
    2d46:	7472                	.insn	2, 0x7472
    2d48:	0000                	unimp
    2d4a:	0000                	unimp
    2d4c:	204c                	.insn	2, 0x204c
    2d4e:	6f74                	.insn	2, 0x6f74
    2d50:	4c20                	lw	s0,88(s0)
    2d52:	6165                	addi	sp,sp,112
    2d54:	6576                	.insn	2, 0x6576
    2d56:	0000                	unimp
    2d58:	6f59                	lui	t5,0x16
    2d5a:	2075                	jal	2e06 <__udivdi3+0x4f6>
    2d5c:	74756853          	.insn	4, 0x74756853
    2d60:	0000                	unimp
    2d62:	0000                	unimp
    2d64:	6874                	.insn	2, 0x6874
    2d66:	2065                	jal	2e0e <__udivdi3+0x4fe>
    2d68:	6f42                	.insn	2, 0x6f42
    2d6a:	2178                	.insn	2, 0x2178
    2d6c:	0000                	unimp
    2d6e:	0000                	unimp
    2d70:	6f742043          	.insn	4, 0x6f742043
    2d74:	4320                	lw	s0,64(a4)
    2d76:	69746e6f          	jal	t3,49c0c <firmware.c.57502c15+0x453ee>
    2d7a:	756e                	.insn	2, 0x756e
    2d7c:	0065                	c.nop	25
    2d7e:	0000                	unimp
    2d80:	6325                	lui	t1,0x9
    2d82:	7325                	lui	t1,0xfffe9
    2d84:	0000                	unimp
    2d86:	0000                	unimp
    2d88:	3025                	jal	25b0 <main+0x376>
    2d8a:	7832                	.insn	2, 0x7832
    2d8c:	253a                	.insn	2, 0x253a
    2d8e:	3230                	.insn	2, 0x3230
    2d90:	3a78                	.insn	2, 0x3a78
    2d92:	3025                	jal	25ba <main+0x380>
    2d94:	7832                	.insn	2, 0x7832
    2d96:	253a                	.insn	2, 0x253a
    2d98:	3230                	.insn	2, 0x3230
    2d9a:	3a78                	.insn	2, 0x3a78
    2d9c:	3025                	jal	25c4 <main+0x38a>
    2d9e:	7832                	.insn	2, 0x7832
    2da0:	253a                	.insn	2, 0x253a
    2da2:	3230                	.insn	2, 0x3230
    2da4:	3a78                	.insn	2, 0x3a78
    2da6:	3325                	jal	2ace <__udivdi3+0x1be>
    2da8:	2064                	.insn	2, 0x2064
    2daa:	6425                	lui	s0,0x9
    2dac:	003a                	c.slli	zero,0xe
    2dae:	0000                	unimp
    2db0:	3025                	jal	25d8 <main+0x39e>
    2db2:	7832                	.insn	2, 0x7832
    2db4:	0020                	addi	s0,sp,8
    2db6:	0000                	unimp
    2db8:	3025                	jal	25e0 <main+0x3a6>
    2dba:	7838                	.insn	2, 0x7838
    2dbc:	0000                	unimp
    2dbe:	0000                	unimp
    2dc0:	3325                	jal	2ae8 <__udivdi3+0x1d8>
    2dc2:	2064                	.insn	2, 0x2064
    2dc4:	6425                	lui	s0,0x9
    2dc6:	0000                	unimp
    2dc8:	bbaa                	.insn	2, 0xbbaa
    2dca:	ddcc                	sw	a1,60(a1)
    2dcc:	ffee                	.insn	2, 0xffee
    2dce:	0000                	unimp
    2dd0:	7325                	lui	t1,0xfffe9
    2dd2:	4320                	lw	s0,64(a4)
    2dd4:	6e61                	lui	t3,0x18
    2dd6:	6f6e                	.insn	2, 0x6f6e
    2dd8:	2074                	.insn	2, 0x2074
    2dda:	666e6f43          	.insn	4, 0x666e6f43
    2dde:	6769                	lui	a4,0x1a
    2de0:	7275                	lui	tp,0xffffd
    2de2:	2065                	jal	2e8a <__udivdi3+0x57a>
    2de4:	2040                	.insn	2, 0x2040
    2de6:	6425                	lui	s0,0x9
    2de8:	000a                	c.slli	zero,0x2
    2dea:	0000                	unimp
    2dec:	534c                	lw	a1,36(a4)
    2dee:	364d                	jal	2990 <__udivdi3+0x80>
    2df0:	5344                	lw	s1,36(a4)
    2df2:	45522033          	.insn	4, 0x45522033
    2df6:	00544553          	.insn	4, 0x00544553
    2dfa:	0000                	unimp
    2dfc:	4d51                	li	s10,20
    2dfe:	30333643          	.insn	4, 0x30333643
    2e02:	2039                	jal	2e10 <__udivdi3+0x500>
    2e04:	4552                	lw	a0,20(sp)
    2e06:	00544553          	.insn	4, 0x00544553
    2e0a:	0000                	unimp
    2e0c:	534c                	lw	a1,36(a4)
    2e0e:	364d                	jal	29b0 <__udivdi3+0xa0>
    2e10:	5344                	lw	s1,36(a4)
    2e12:	4d510033          	.insn	4, 0x4d510033
    2e16:	30333643          	.insn	4, 0x30333643
    2e1a:	0039                	c.nop	14
    2e1c:	7546                	.insn	2, 0x7546
    2e1e:	6c6c                	.insn	2, 0x6c6c
    2e20:	5320                	lw	s0,96(a4)
    2e22:	25203a57          	.insn	4, 0x25203a57
    2e26:	3630                	.insn	2, 0x3630
    2e28:	0a78                	addi	a4,sp,284
    2e2a:	0000                	unimp
    2e2c:	534c                	lw	a1,36(a4)
    2e2e:	364d                	jal	29d0 <__udivdi3+0xc0>
    2e30:	5344                	lw	s1,36(a4)
    2e32:	764f2033          	.insn	4, 0x764f2033
    2e36:	7265                	lui	tp,0xffff9
    2e38:	6c66                	.insn	2, 0x6c66
    2e3a:	0000776f          	jal	a4,9e3a <firmware.c.57502c15+0x561c>
    2e3e:	0000                	unimp
    2e40:	3025                	jal	2668 <main+0x42e>
    2e42:	7836                	.insn	2, 0x7836
    2e44:	0020                	addi	s0,sp,8
    2e46:	0000                	unimp
    2e48:	3025                	jal	2670 <main+0x436>
    2e4a:	7834                	.insn	2, 0x7834
    2e4c:	0020                	addi	s0,sp,8
    2e4e:	0000                	unimp
    2e50:	666e6f43          	.insn	4, 0x666e6f43
    2e54:	7375                	lui	t1,0xffffd
    2e56:	6e69                	lui	t3,0x1a
    2e58:	61742067          	.insn	4, 0x61742067
    2e5c:	25203a67          	.insn	4, 0x25203a67
    2e60:	0a64                	addi	s1,sp,284
    2e62:	0000                	unimp
    2e64:	654d                	lui	a0,0x13
    2e66:	756e                	.insn	2, 0x756e
    2e68:	0000                	unimp
    2e6a:	0000                	unimp
    2e6c:	7845                	lui	a6,0xffff1
    2e6e:	6d61                	lui	s10,0x18
    2e70:	6c70                	.insn	2, 0x6c70
    2e72:	0065                	c.nop	25
    2e74:	6554                	.insn	2, 0x6554
    2e76:	00007473          	.insn	4, 0x7473
    2e7a:	0000                	unimp
    2e7c:	7550                	.insn	2, 0x7550
    2e7e:	6666                	.insn	2, 0x6666
    2e80:	7265                	lui	tp,0xffff9
    2e82:	0000                	unimp
    2e84:	74756853          	.insn	4, 0x74756853
    2e88:	6f42                	.insn	2, 0x6f42
    2e8a:	0078                	addi	a4,sp,12

00002e8c <fontdata>:
	...
    2e94:	817e 81a5 99bd 7e81 ff7e ffdb e7c3 7eff     ~......~~......~
    2ea4:	fe6c fefe 387c 0010 3810 fe7c 387c 0010     l...|8...8|.|8..
    2eb4:	7c38 fe38 d6fe 3810 3810 fe7c 7cfe 3810     8|8....8.8|..|.8
    2ec4:	0000 3c18 183c 0000 ffff c3e7 e7c3 ffff     ...<<...........
    2ed4:	3c00 4266 6642 003c c3ff bd99 99bd ffc3     .<fBBf<.........
    2ee4:	070f 7d0f cccc 78cc 663c 6666 183c 187e     ...}...x<fff<.~.
    2ef4:	333f 303f 7030 e0f0 637f 637f 6763 c0e6     ?3?00p...c.ccg..
    2f04:	db18 e73c 3ce7 18db e080 fef8 e0f8 0080     ..<..<..........
    2f14:	0e02 fe3e 0e3e 0002 3c18 187e 7e18 183c     ..>.>....<~..~<.
    2f24:	6666 6666 0066 0066 db7f 7bdb 1b1b 001b     fffff.f....{....
    2f34:	613e 663c 3c66 7c86 0000 0000 7e7e 007e     >a<ff<.|....~~~.
    2f44:	3c18 187e 3c7e ff18 3c18 187e 1818 0018     .<~.~<...<~.....
    2f54:	1818 1818 3c7e 0018 1800 fe0c 180c 0000     ....~<..........
    2f64:	3000 fe60 3060 0000 0000 c0c0 fec0 0000     .0`.`0..........
    2f74:	2400 ff66 2466 0000 1800 7e3c ffff 0000     .$f.f$....<~....
    2f84:	ff00 7eff 183c 0000 0000 0000 0000 0000     ...~<...........
    2f94:	3c18 183c 0018 0018 6666 0024 0000 0000     .<<.....ff$.....
    2fa4:	6c6c 6cfe 6cfe 006c 3e18 3c60 7c06 0018     ll.l.ll..>`<.|..
    2fb4:	c600 18cc 6630 00c6 6c38 7638 ccdc 0076     ....0f..8l8v..v.
    2fc4:	1818 0030 0000 0000 180c 3030 1830 000c     ..0.......000...
    2fd4:	1830 0c0c 180c 0030 6600 ff3c 663c 0000     0.....0..f<.<f..
    2fe4:	1800 7e18 1818 0000 0000 0000 1800 3018     ...~...........0
    2ff4:	0000 7e00 0000 0000 0000 0000 1800 0018     ...~............
    3004:	0c06 3018 c060 0080 6c38 d6c6 6cc6 0038     ...0`...8l...l8.
    3014:	3818 1818 1818 007e c67c 1c06 6630 00fe     .8....~.|...0f..
    3024:	c67c 3c06 c606 007c 3c1c cc6c 0cfe 001e     |..<..|..<l.....
    3034:	c0fe fcc0 c606 007c 6038 fcc0 c6c6 007c     ......|.8`....|.
    3044:	c6fe 180c 3030 0030 c67c 7cc6 c6c6 007c     ....000.|..|..|.
    3054:	c67c 7ec6 0c06 0078 1800 0018 1800 0018     |..~..x.........
    3064:	1800 0018 1800 3018 0c06 3018 0c18 0006     .......0...0....
    3074:	0000 007e 7e00 0000 3060 0c18 3018 0060     ..~..~..`0...0`.
    3084:	c67c 180c 0018 0018 c67c dede c0de 0078     |.......|.....x.
    3094:	6c38 fec6 c6c6 00c6 66fc 7c66 6666 00fc     8l.......ff|ff..
    30a4:	663c c0c0 66c0 003c 6cf8 6666 6c66 00f8     <f...f<..lfffl..
    30b4:	62fe 7868 6268 00fe 62fe 7868 6068 00f0     .bhxhb...bhxh`..
    30c4:	663c c0c0 66ce 003a c6c6 fec6 c6c6 00c6     <f...f:.........
    30d4:	183c 1818 1818 003c 0c1e 0c0c cccc 0078     <.....<.......x.
    30e4:	66e6 786c 666c 00e6 60f0 6060 6662 00fe     .flxlf...```bf..
    30f4:	eec6 fefe c6d6 00c6 e6c6 def6 c6ce 00c6     ................
    3104:	c67c c6c6 c6c6 007c 66fc 7c66 6060 00f0     |.....|..ff|``..
    3114:	c67c c6c6 cec6 0e7c 66fc 7c66 666c 00e6     |.....|..ff|lf..
    3124:	663c 1830 660c 003c 7e7e 185a 1818 003c     <f0..f<.~~Z...<.
    3134:	c6c6 c6c6 c6c6 007c c6c6 c6c6 6cc6 0038     ......|......l8.
    3144:	c6c6 d6c6 fed6 006c c6c6 386c c66c 00c6     ......l...l8l...
    3154:	6666 3c66 1818 003c c6fe 188c 6632 00fe     fff<..<.....2f..
    3164:	303c 3030 3030 003c 60c0 1830 060c 0002     <00000<..`0.....
    3174:	0c3c 0c0c 0c0c 003c 3810 c66c 0000 0000     <.....<..8l.....
    3184:	0000 0000 0000 ff00 1830 000c 0000 0000     ........0.......
    3194:	0000 0c78 cc7c 0076 60e0 667c 6666 00dc     ..x.|.v..`|fff..
    31a4:	0000 c67c c6c0 007c 0c1c cc7c cccc 0076     ..|...|...|...v.
    31b4:	0000 c67c c0fe 007c 663c f860 6060 00f0     ..|...|.<f`.``..
    31c4:	0000 cc76 7ccc f80c 60e0 766c 6666 00e6     ..v..|...`lvff..
    31d4:	0018 1838 1818 003c 0006 0606 6606 3c66     ..8...<......ff<
    31e4:	60e0 6c66 6c78 00e6 1838 1818 1818 003c     .`flxl..8.....<.
    31f4:	0000 feec d6d6 00d6 0000 66dc 6666 0066     ...........ffff.
    3204:	0000 c67c c6c6 007c 0000 66dc 7c66 f060     ..|...|....ff|`.
    3214:	0000 cc76 7ccc 1e0c 0000 76dc 6060 00f0     ..v..|.....v``..
    3224:	0000 c07e 067c 00fc 3030 30fc 3630 001c     ..~.|...00.006..
    3234:	0000 cccc cccc 0076 0000 c6c6 6cc6 0038     ......v......l8.
    3244:	0000 d6c6 fed6 006c 0000 6cc6 6c38 00c6     ......l....l8l..
    3254:	0000 c6c6 7ec6 fc06 0000 4c7e 3218 007e     .....~....~L.2~.
    3264:	180e 7018 1818 000e 1818 1818 1818 0018     ...p............
    3274:	1870 0e18 1818 0070 dc76 0000 0000 0000     p.....p.v.......
    3284:	1000 6c38 c6c6 00fe c67c c0c0 7cc6 780c     ..8l....|....|.x
    3294:	00cc cccc cccc 0076 180c c67c c0fe 007c     ......v...|...|.
    32a4:	827c 0c78 cc7c 0076 00c6 0c78 cc7c 0076     |.x.|.v...x.|.v.
    32b4:	1830 0c78 cc7c 0076 3030 0c78 cc7c 0076     0.x.|.v.00x.|.v.
    32c4:	0000 c07e 7ec0 380c 827c c67c c0fe 007c     ..~..~.8|.|...|.
    32d4:	00c6 c67c c0fe 007c 1830 c67c c0fe 007c     ..|...|.0.|...|.
    32e4:	0066 1838 1818 003c 827c 1838 1818 003c     f.8...<.|.8...<.
    32f4:	1830 3800 1818 003c 38c6 c66c c6fe 00c6     0..8..<..8l.....
    3304:	6c38 c67c c6fe 00c6 3018 c0fe c0f8 00fe     8l|......0......
    3314:	0000 187e d87e 007e 6c3e fecc cccc 00ce     ..~.~.~.>l......
    3324:	827c c67c c6c6 007c 00c6 c67c c6c6 007c     |.|...|...|...|.
    3334:	1830 c67c c6c6 007c 8478 cc00 cccc 0076     0.|...|.x.....v.
    3344:	3060 cccc cccc 0076 00c6 c6c6 7ec6 fc06     `0....v......~..
    3354:	38c6 c66c 6cc6 0038 00c6 c6c6 c6c6 007c     .8l..l8.......|.
    3364:	1818 c07e 7ec0 1818 6c38 f064 6660 00fc     ..~..~..8ld.`f..
    3374:	6666 7e3c 7e18 1818 ccf8 facc cfc6 c7c6     ff<~.~..........
    3384:	1b0e 3c18 d818 0070 3018 0c78 cc7c 0076     ...<..p..0x.|.v.
    3394:	180c 3800 1818 003c 180c c67c c6c6 007c     ...8..<...|...|.
    33a4:	3018 cccc cccc 0076 dc76 dc00 6666 0066     .0....v.v...fff.
    33b4:	dc76 e600 def6 00ce 6c3c 3e6c 7e00 0000     v.......<ll>.~..
    33c4:	6c38 386c 7c00 0000 0018 1818 6330 003e     8ll8.|......0c>.
    33d4:	0000 fe00 c0c0 0000 0000 fe00 0606 0000     ................
    33e4:	e663 7e6c 6633 0fcc e663 7a6c 6a36 06df     c.l~3f..c.lz6j..
    33f4:	0018 1818 3c3c 0018 3300 cc66 3366 0000     ....<<...3f.f3..
    3404:	cc00 3366 cc66 0000 8822 8822 8822 8822     ..f3f...".".".".
    3414:	aa55 aa55 aa55 aa55 dd77 dd77 dd77 dd77     U.U.U.U.w.w.w.w.
    3424:	1818 1818 1818 1818 1818 1818 18f8 1818     ................
    3434:	1818 18f8 18f8 1818 3636 3636 36f6 3636     ........6666.666
    3444:	0000 0000 36fe 3636 0000 18f8 18f8 1818     .....666........
    3454:	3636 06f6 36f6 3636 3636 3636 3636 3636     66...66666666666
    3464:	0000 06fe 36f6 3636 3636 06f6 00fe 0000     .....66666......
    3474:	3636 3636 00fe 0000 1818 18f8 00f8 0000     6666............
    3484:	0000 0000 18f8 1818 1818 1818 001f 0000     ................
    3494:	1818 1818 00ff 0000 0000 0000 18ff 1818     ................
    34a4:	1818 1818 181f 1818 0000 0000 00ff 0000     ................
    34b4:	1818 1818 18ff 1818 1818 181f 181f 1818     ................
    34c4:	3636 3636 3637 3636 3636 3037 003f 0000     666676666670?...
    34d4:	0000 303f 3637 3636 3636 00f7 00ff 0000     ..?0766666......
    34e4:	0000 00ff 36f7 3636 3636 3037 3637 3636     .....66666707666
    34f4:	0000 00ff 00ff 0000 3636 00f7 36f7 3636     ........66...666
    3504:	1818 00ff 00ff 0000 3636 3636 00ff 0000     ........6666....
    3514:	0000 00ff 18ff 1818 0000 0000 36ff 3636     .............666
    3524:	3636 3636 003f 0000 1818 181f 001f 0000     6666?...........
    3534:	0000 181f 181f 1818 0000 0000 363f 3636     ............?666
    3544:	3636 3636 36ff 3636 1818 18ff 18ff 1818     6666.666........
    3554:	1818 1818 00f8 0000 0000 0000 181f 1818     ................
    3564:	ffff ffff ffff ffff 0000 0000 ffff ffff     ................
    3574:	f0f0 f0f0 f0f0 f0f0 0f0f 0f0f 0f0f 0f0f     ................
    3584:	ffff ffff 0000 0000 0000 dc76 dcc8 0076     ..........v...v.
    3594:	cc78 d8cc c6cc 00cc c6fe c0c0 c0c0 00c0     x...............
    35a4:	0000 6cfe 6c6c 006c c6fe 3060 c660 00fe     ...llll...`0`...
    35b4:	0000 d87e d8d8 0070 0000 6666 6666 c07c     ..~...p...ffff|.
    35c4:	7600 18dc 1818 0018 187e 663c 3c66 7e18     .v......~.<ff<.~
    35d4:	6c38 fec6 6cc6 0038 6c38 c6c6 6c6c 00ee     8l...l8.8l..ll..
    35e4:	180e 3e0c 6666 003c 0000 db7e 7edb 0000     ...>ff<...~..~..
    35f4:	0c06 db7e 7edb c060 301e 7e60 3060 001e     ..~..~`..0`~`0..
    3604:	7c00 c6c6 c6c6 00c6 fe00 fe00 fe00 0000     .|..............
    3614:	1818 187e 0018 007e 1830 180c 0030 007e     ..~...~.0...0.~.
    3624:	180c 1830 000c 007e 1b0e 181b 1818 1818     ..0...~.........
    3634:	1818 1818 d818 70d8 1800 7e00 1800 0000     .......p...~....
    3644:	7600 00dc dc76 0000 6c38 386c 0000 0000     .v..v...8ll8....
    3654:	0000 1800 0018 0000 0000 1800 0000 0000     ................
    3664:	0c0f 0c0c 6cec 1c3c 366c 3636 0036 0000     .....l<.l6666...
    3674:	0c78 3018 007c 0000 0000 3c3c 3c3c 0000     x..0|.....<<<<..
	...

0000368c <LSM6DS3Regmap.1>:
    368c:	4412 5a10 5d11 280a 6006 0007 0908 aa09     .D.Z.].(.`......
    369c:	010a 600b 000d 0013 1015 0016 0113 0000     ...`............

000036ac <ssd1306_init_array>:
    36ac:	00ae b010 00dc 6f81 a421 7fa8 00d3 f0d5     .......o!.......
    36bc:	1dd9 35db ad40 a080 d901 8106 dbfe a8fe     ...5@...........
    36cc:	af7f 00ff                                   ....

000036d0 <gameModes>:
    36d0:	2e64 0000 2e6c 0000 2e74 0000 2e7c 0000     d...l...t...|...
    36e0:	2e84 0000                                   ....

000036e4 <channel_map>:
    36e4:	0201 0403 0605 0807 0a09 0d0c 0f0e 1110     ................
    36f4:	1312 1514 1716 1918 1b1a 1d1c 1f1e 2120     .............. !
    3704:	2322 2524 0026 270b                         "#$%&..'

0000370c <__clz_tab>:
    370c:	0100 0202 0303 0303 0404 0404 0404 0404     ................
    371c:	0505 0505 0505 0505 0505 0505 0505 0505     ................
    372c:	0606 0606 0606 0606 0606 0606 0606 0606     ................
    373c:	0606 0606 0606 0606 0606 0606 0606 0606     ................
    374c:	0707 0707 0707 0707 0707 0707 0707 0707     ................
    375c:	0707 0707 0707 0707 0707 0707 0707 0707     ................
    376c:	0707 0707 0707 0707 0707 0707 0707 0707     ................
    377c:	0707 0707 0707 0707 0707 0707 0707 0707     ................
    378c:	0808 0808 0808 0808 0808 0808 0808 0808     ................
    379c:	0808 0808 0808 0808 0808 0808 0808 0808     ................
    37ac:	0808 0808 0808 0808 0808 0808 0808 0808     ................
    37bc:	0808 0808 0808 0808 0808 0808 0808 0808     ................
    37cc:	0808 0808 0808 0808 0808 0808 0808 0808     ................
    37dc:	0808 0808 0808 0808 0808 0808 0808 0808     ................
    37ec:	0808 0808 0808 0808 0808 0808 0808 0808     ................
    37fc:	0808 0808 0808 0808 0808 0808 0808 0808     ................
